; ModuleID = 'example.ceoy6l1x-cgu.0'
source_filename = "example.ceoy6l1x-cgu.0"
target datalayout = "e-m:e-i64:64-f80:128-n8:16:32:64-S128"
target triple = "x86_64-unknown-linux-gnu"

module asm ""
module asm "            .section .llvmbc,\22e\22"
module asm "            .section .llvmcmd,\22e\22"
module asm "        "

%"core::panic::Location" = type { [0 x i64], { [0 x i8]*, i64 }, [0 x i32], i32, [0 x i32], i32, [0 x i32] }
%"unwind::libunwind::_Unwind_Exception" = type { [0 x i64], i64, [0 x i64], void (i32, %"unwind::libunwind::_Unwind_Exception"*)*, [0 x i64], [6 x i64], [0 x i64] }
%"unwind::libunwind::_Unwind_Context" = type { [0 x i8] }

@alloc35 = private unnamed_addr constant <{ [10 x i8] }> <{ [10 x i8] c"src/lib.rs" }>, align 1
@alloc22 = private unnamed_addr constant <{ i8*, [16 x i8] }> <{ i8* getelementptr inbounds (<{ [10 x i8] }>, <{ [10 x i8] }>* @alloc35, i32 0, i32 0, i32 0), [16 x i8] c"\0A\00\00\00\00\00\00\00\0E\00\00\00\15\00\00\00" }>, align 8
@alloc26 = private unnamed_addr constant <{ i8*, [16 x i8] }> <{ i8* getelementptr inbounds (<{ [10 x i8] }>, <{ [10 x i8] }>* @alloc35, i32 0, i32 0, i32 0), [16 x i8] c"\0A\00\00\00\00\00\00\00\17\00\00\00\15\00\00\00" }>, align 8
@alloc28 = private unnamed_addr constant <{ i8*, [16 x i8] }> <{ i8* getelementptr inbounds (<{ [10 x i8] }>, <{ [10 x i8] }>* @alloc35, i32 0, i32 0, i32 0), [16 x i8] c"\0A\00\00\00\00\00\00\00\17\00\00\00\09\00\00\00" }>, align 8
@alloc30 = private unnamed_addr constant <{ i8*, [16 x i8] }> <{ i8* getelementptr inbounds (<{ [10 x i8] }>, <{ [10 x i8] }>* @alloc35, i32 0, i32 0, i32 0), [16 x i8] c"\0A\00\00\00\00\00\00\00(\00\00\00\15\00\00\00" }>, align 8
@alloc32 = private unnamed_addr constant <{ i8*, [16 x i8] }> <{ i8* getelementptr inbounds (<{ [10 x i8] }>, <{ [10 x i8] }>* @alloc35, i32 0, i32 0, i32 0), [16 x i8] c"\0A\00\00\00\00\00\00\00(\00\00\00\09\00\00\00" }>, align 8
@alloc34 = private unnamed_addr constant <{ i8*, [16 x i8] }> <{ i8* getelementptr inbounds (<{ [10 x i8] }>, <{ [10 x i8] }>* @alloc35, i32 0, i32 0, i32 0), [16 x i8] c"\0A\00\00\00\00\00\00\009\00\00\00\15\00\00\00" }>, align 8
@alloc36 = private unnamed_addr constant <{ i8*, [16 x i8] }> <{ i8* getelementptr inbounds (<{ [10 x i8] }>, <{ [10 x i8] }>* @alloc35, i32 0, i32 0, i32 0), [16 x i8] c"\0A\00\00\00\00\00\00\009\00\00\00\09\00\00\00" }>, align 8
@rustc.embedded.module = private constant [18188 x i8] c"BC\C0\DE5\14\00\00\05\00\00\00b\0C0$IY\BEf\EF\D3~-D\012\05\00\00\00\00!\0C\00\00\88\0F\00\00\0B\02!\00\02\00\00\00\16\00\00\00\07\81#\91A\C8\04I\06\1029\92\01\84\0C%\05\08\19\1E\04\8Bb\80\1CE\02B\92\0BB\E4\102\148\08\18K\0A2r\88Hp\C4!#D\12\87\8C\10A\92\02d\C8\08\B1\14 CF\88 \C9\012r\84\18*(*\901|\B0\5C\91 \C7\C8\00\00\00\89 \00\00Y\00\00\002\22\C8\09 d\85\04\93#\A4\84\04\93#\E3\84\A1\90\14\12L\8E\8C\0B\84\E4L\10\88\C2\1C\01\92\0A\00\1B\04H@\80\84\00X\81P \C3\1C\01(\14\01\81\A0\C4\08\00!\CA\B0`0\A81G\10\94\E1\C1`\10\A4\0C\08\06\82$E@0\88R\86\05\03A\16# \10\84)\02&C\9A2`\10\08\E2$ \F1\04\80<eX|>\04J\00\00\89\0A\B1\F8\8C\10D*\C4b\84\F8\90\A9\14\8B\11b\84 \D4\1C\01\18$\00\82`eX\A8X\D4J\03\C4LdP\0F\EEp\0F\E9\E0\0E\E4\A0\07z\C0\0E\E9 \0E\F5\E0\0E\F7\90\0E\EE@\0Ez\A0\07\BFP\0B\EEp\0F\E9\E0\0E\E4\F0\0B\A5\80\0F\E3P\0E\F0@\0F\E9\F0\0E\EE\80\8E\15b\E5Z\BDV3\89A=\B8\C3=\A4\83;\90\83\1E\E8\01;\A4\838\D4\83;\DCC:\B8\039\E8\81\1E\FCB-\B8\C3=\A4\83;\90\C3/\8C\C2;\B8\03=\94\03>\D0\03\0AD\14+\86J\A5B\B0d4+\C3\02A\A0\9A\11F\88\04P\CDT\8D\C3;\C8C9\E8\81\1E\C0C8\B8C:\8C\83\1E\E8\01+\BC\C38\84\03=\A4\C3;\B8\03:V7\9C\0A\A7\C2Q\AE\10\0B\04BG\BB\81\80B,z\BD\1E\F9\E81\05\00\00\00\00Q\18\00\00\0A\01\00\00\1B@!\F8\FF\FF\FF\FF\01 \008\00$\E0\01( \0C\08x\90\87w\10\87rh\83y\A0\87p\18\87u\00~\E1\17\E4\A1\1E\E6\81\1E~\01\1E\E4\E1\1D\C4\A1\1C\E6\81\1E\C2a\1C\D6\01 \E8!\1C\E4\E1\1C\CA\81\1E\DA`\1C\E0\A1\1E\00|\C0\03;h\03;\A0\03`\03(\08\FF\FF\FF\FF?\00\04\E0\07\00\1C\00\12\F0\00a@\C0\83<\BC\838\94C\1B\CC\03=\84\C38\AC\03\F0\0B\BF \0F\F50\0F\F4\F0\0B\F0 \0F\EF \0E\E50\0F\F4\10\0E\E3\B0\0E\00A\0F\E1 \0F\E7P\0E\F4\D0\06\E3\00\0F\F5\00\E0\03\1E\D8A\1B\D8\01\1D\00\1B\8C!\00\16\A0\DA@\10\02\B0l\00\85\E2\FF\FF\FF\FF\07\80\00\E0\00\90\80\07\A8\800 \E0A\1E\DEA\1C\CA\A1\0D\E6\81\1E\C2a\1C\D6\01\F8\85_\90\87z\98\07z\F8\05x\90\87w\10\87r\98\07z\08\87qX\07\80\A0\87p\90\87s(\07zh\83q\80\87z\00\F0\01\0F\EC\A0\0D\EC\80\0E\80\0D\84\01\00b\B0\C19\02 \01\16\A0\0A\02$H\03d\83\83\08@\02,@\15\04H\90\06\C8\06>H\FE\FF\FF\FF\7F\00\08@\02\1E \0C\08x\90\87w\10\87rh\83y\A0\87p\18\87u\00~\E1\17\E4\A1\1E\E6\81\1E~\01\1E\E4\E1\1D\C4\A1\1C\E6\81\1E\C2a\1C\D6\01 \E8!\1C\E4\E1\1C\CA\81\1E\DA`\1C\E0\A1\1E\00|\C0\03;h\03;\A0\03`\83\A2\04\C0\12\04H\90\06\C8\06e\11\80%\08\90 \0D\90\0D\04\13\00\CB\06Qh\FE\FF\FF\FF\7F\00\08\C0\0F\008\00$\E0\01\C2\00\A0\03\02\1E\E4\E1\1D\C4\A1\1C\DA`\1E\E8!\1C\C6a\1D\80_\F8\05y\A8\87y\A0\87_\80\07yx\07q(\87y\A0\87p\18\87u\00\08z\08\07y8\87r\A0\876\18\07x\A8\07\00\1F\F0\C0\0E\DA\C0\0E\E8\00\D8\A08\01\B0\04\01\12\A4\01\B4\81x\02\C0\DA\E0\07\D0\FF\FF\FF\FF\0F\00\1C\00\12\F0\00\14\10\06\04<\C8\C3;\88C9\B4\C1<\D0C8\8C\C3:\00\BF\F0\0B\F2P\0F\F3@\0F\BF\00\0F\F2\F0\0E\E2P\0E\F3@\0F\E10\0E\EB\00\10\F4\10\0E\F2p\0E\E5@\0Fm0\0E\F0P\0F\00>\E0\81\1D\B4\81\1D\D0\01\B0\01\0F\A2\FF\FF\FF\FF\1F\80\07\08\03\02\1E\E4\E1\1D\C4\A1\1C\DA`\1E\E8!\1C\C6a\1D\80_\F8\05y\A8\87y\A0\87_\80\07yx\07q(\87y\A0\87p\18\87u\00\08z\08\07y8\87r\A0\876\18\07x\A8\07\00\1F\F0\C0\0E\DA\C0\0E\E8\00\D8\E0H\01\90\00\0BP\05A\10\A4\01\08\E3\C9\06e\12\80%\08\82 \0D@\18O6$\94\00,\C0\19\04A\B0\A1\A9\02 \01\16\E0\0C\80*\08\82\0D\8A5\00K\10\04A\1A\800\9ElH\AE\01X\803\08\82`\83\1E`\FF\FF\FF\FF?\00\12\F0\00a@\C0\83<\BC\838\94C\1B\CC\03=\84\C38\AC\03\F0\0B\BF \0F\F50\0F\F4\F0\0B\F0 \0F\EF \0E\E50\0F\F4\10\0E\E3\B0\0E\00A\0F\E1 \0F\E7P\0E\F4\D0\06\E3\00\0F\F5\00\E0\03\1E\D8A\1B\D8\01\1D\00\1B\8C\EC\FF\FF\FF\FF\07\A0\0D\00i\03\A1\05\00\1Fl\F0\83\ED\FF\FF\FF\FF\07\80\0C\00\07\88\80\07\08\03\02\1E\E4\E1\1D\C4\A1\1C\DA`\1E\E8!\1C\C6a\1D\80_\F8\05y\A8\87y\A0\87_\80\07yx\07q(\87y\A0\87p\18\87u\00\08z\08\07y8\87r\A0\876\18\07x\A8\07\00\1F\F0\C0\0E\DA\C0\0E\E8\00\D8\C0p\03\90\00U\10 A\1A`\1B\90\EE\FF\FF\FF\FF\07@\02(\A0\0E6\10^\00\9C\C1\06\E2\13\803\D8\A0\80A\00\9CA\10 A\1A \1B\940\10\803\08\02$H\03d\83#\06\01\90\00g\00TA\80\04i\80lp\C6@\00\12\E0\0C\80*\08\90 \0D\90\0D\0A\19\04\C0\19\04\01\12\A4\01\04I\18\00\00\1A\00\00\00\13\82`\C2 \0C\C4\04\A20\0Ed\C2\90(\CB\04!Q&\0C\09CL\10\92a\82\D00\13\84\C4\99 \14\C7\04!x&\04\D0\84!\92\A6\09C$Q\13\86\A8\B2&\0CQuM\08\B0\09C\A6\11\13\84\8D\9B\10t\13\04\EF\9B \80A\18L\08\BE\09\83!\06c0!\10\83\09\01\18L\08\C8`B\C0\01\00\00\130|\C0\03;\F8\05;\A0\836\A8\07wX\07wx\87{p\876`\87tp\87z\C0\8768\07w\A8\87\0DeP\0Em\D0\0EzP\0Em\90\0Ev@\07z`\07t\D0\06\E6\80\07p\A0\07q \07x\D0\06\EE\80\07z\10\07v\A0\07s \07z`\07t\D0\06\B3\10\07r\80\07J\0F\08\11\92A\86\8C\14\19\014B\98\9CZe|\B8\0Dg\97]\E3\F2;oc\C7\F0\AD\F1\B9\EE\82\ED\90\80C\18\D4 \09\00\00\08\00\00\00\82\03\D8!\1D\871\CCAB\00\00\10\00\00\00\04\07\B0Cr\0Ec\A0\83\84\00\00 \00\00\00\08\0E`\87T\1D\C6P\07\09\01\00@\00\00\00\10\1C\C0\0E\89;\8C\C1\0E\12\02\00\80\00\00\00 8\80\1D\D2\18\1C\C6p\07\09\01\00@\00\00\00\10\1C\C0\0EI\0D\0Ec\C0\83\84\00\00 \00\00\00\08\0E`\87\14\07\871\E4AB\00\00\10\00\00\00\04\070\A4\C2\83^H\10`\08\00\00\00\02\00\00\00 \00\0E`HU\13}\D0 \C0 \00\00\00\04\00\00\00@\00\1C\C0\90J6\C8\01B\80a\00\00\00\08\00\00\00\80\008\80!\95\9D\94A\83\00\03\01\00\00\10\00\00\00\00\01p\00C\AA]A\03\09\01\86\02\00\00 \00\00\00\D0\02\E0\00\86T#\83\0A\09\02\0C\01\00\00@\00\00\00\00\04\C0\01\0C\A9V'\0F\1A\04\18\0C\00\00\80\00\00\00@\0B\80\03\18R\91P\19P\080\1C\00\00\00\01\00\00\00\10\00\070\A4J#3\B0\10`@\00\00\00\02\00\00\00 \00\0E`H\F5J4\A1!\C0\90\00\00\00\04\00\00\00@\00\1C\C0\90j\BC\CC\81B\80A\01\00\00\08\00\00\00\80\008\80!U\AA\95B\82\00\C3\02\00\00\10\00\00\00\00\01p\00C*\97\13\07\0E\00\00\06\00\00 \00\00\00\00\00\E0\00\86T\F0'\81\01\00\00\0D\00\00@\00\00\00\00\00\C0\01\0C\A9D0\C0\C8\00\00\00\07\00\00 \00\00\00\00\00\E0\00\86T:\18df\00\00\C0\03\00\00\10\00\00\00\00\00p\00C\AA9\0C(4\00\00\00\02\00\00\08\00\00\00\00\008\80!\D5)\06\D3\1C\00\01\10\01\00\00\04\00\00\00\00\00\1C\C0\90J\17\03\AC\0E\80\00\90\00\00\00\00\00\00\00\00\00\0E`H%\8F\81U\07@\00H\00\00\00\00\00\00\00\00\00\070\A4B\C9@\0F\F6\00\08\80\09\00\00 \00\00\00\00\00\E0\00\86T\A2\198~\00\04\00\05\00\00\00\00\00\00\00\00p\00\12\1B\04\0A\DF=\00\00d\81\00\00\00\007\00\00\002\1E\98\18\19\11L\90\8C\09&G\C6\04CB\94\C0\0C\C0\08@\01\22\9E\90j\04\A0\1C\8A\A0\04\CA\A0@?(\90\CA\9C\DC\D8\0B[\9A\98\8B\DC\1C\090@\890T\22\0C\80\1A\88\81\1A\88\81\1A\88\01\15\12R\00\00\00\00\00\00\00p\00\00\00\A8\00\00\00HH\01\00\00\00\00\00\00\E0\02\00\00\A0\02\00\00 !\05\00\00\00\00\00\00\80\0B\00\00\80\04\00\00\80\84\14\00\00\00\00\00\00\00P\00\00\00*\00\00\00\12R\00\00\00\00\00\00\00@\01\00\00H\00\00\00HH\01\00\00\00\00\00\00 \07\00\00\A0\02\00\00 !\05\00\00\00\00\00\00\80\1C\00\00\80\04\00\00\002\A0\A0\AE(\A8,\0Aj\8B\82\EA\A2\A0\BE(\A80\0AjL\A3\19\00\02\8E\00\00\00\00\B1\18\00\00\89\00\00\003\08\80\1C\C4\E1\1Cf\14\01=\88C8\84\C3\8CB\80\07yx\07s\98q\0C\E6\00\0F\ED\10\0E\F4\80\0E3\0CB\1E\C2\C1\1D\CE\A1\1Cf0\05=\88C8\84\83\1B\CC\03=\C8C=\8C\03=\CCx\8Ctp\07{\08\07yH\87pp\07zp\03vx\87p \87\19\CC\11\0E\EC\90\0E\E10\0Fn0\0F\E3\F0\0E\F0P\0E3\10\C4\1D\DE!\1C\D8!\1D\C2a\1Ef0\89;\BC\83;\D0C9\B4\03<\BC\83<\84\03;\CC\F0\14v`\07{h\077h\87rh\077\80\87p\90\87p`\07v(\07v\F8\05vx\87w\80\87_\08\87q\18\87r\98\87y\98\81,\EE\F0\0E\EE\E0\0E\F5\C0\0E\EC0\03b\C8\A1\1C\E4\A1\1C\CC\A1\1C\E4\A1\1C\DCa\1C\CA!\1C\C4\81\1D\CAa\06\D6\90C9\C8C9\98C9\C8C9\B8\C38\94C8\88\03;\94\C3/\BC\83<\FC\82;\D4\03;\B0\C3\0C\C7i\87pX\87rp\83th\07x`\87t\18\87t\A0\87\19\CES\0F\EE\00\0F\F2P\0E\E4\90\0E\E3@\0F\E1 \0E\ECP\0E3 (\1D\DC\C1\1E\C2A\1E\D2!\1C\DC\81\1E\DC\E0\1C\E4\E1\1D\EA\01\1Ef\18Q8\B0C:\9C\83;\CCP$v`\07{h\077`\87wx\07x\98QL\F4\90\0F\F0P\0E3\1Ej\1E\CAa\1C\E8!\1D\DE\C1\1D~\01\1E\E4\A1\1C\CC!\1D\F0a\06T\85\838\CC\C3;\B0C=\D0C9\FC\C2<\E4C;\88\C3;\B0\C3\8C\C5\0A\87y\98\87w\18\87t\08\07z(\07r\98\81\5C\E3\10\0E\EC\C0\0E\E5P\0E\F30#\C1\D2A\1E\E4\E1\17\D8\E1\1D\DE\01\1EfH\19;\B0\83=\B4\83\1B\84\C38\8CC9\CC\C3<\B8\C19\C8\C3;\D4\03<\CCH\B4q\08\07v`\07q\08\87qX\87\19\DB\C6\0E\EC`\0F\ED\E0\06\F0 \0F\E50\0F\E5 \0F\F6P\0En\10\0E\E30\0E\E50\0F\F3\E0\06\E9\E0\0E\E4P\0E\F8\00\00\00\00y \00\00r\01\00\00r\1EH C\88\0C\19\09r2H #\81\8C\91\91\D1D\A0\10(d<12B\8E\90!\A3\88\07t\B0_\00\00\00\C9\22)cP\06n\00\06\04Q E\110\CA0\04\85A\AC\01\18\0CJ\10\AC\01\18\0C\C9\C0\0C\03\18\14H\22\18`\00\06G\13\15\861\04N\02\06\00PIC LevelRtLibUseGOTDebug Info Versionsrc/lib.rs/benchdata/rust/assume_true/exampleclang LLVM (rustc version 1.46.0-dev)/benchdata/rust/rust/src/libcore/iter/range.rscccabf57d1b2ffaf9873830757e526c9coreiterrange{{impl}}usizestartn*const usize*mut usizesrcdstTimpls&usizeself/benchdata/rust/rust/src/libcore/mem/mod.rse0ab83ac79f7d21fce3cfde639f326acmem&mut usizexy/benchdata/rust/rust/src/libcore/ptr/mod.rsb0ff59056d9429f270152364d6f9dea4ptr<unknown>opsRange<usize>endIdx4be1f8843c4abc6e6b0755e50f9e3873&[u8]data_ptr*const u8u8length585202bcfc7dfd1dd72e8befe2491ee4e7ee8382cedb74b3e032db1a041f7292example&[u8; 320000]&mut [u8; 320000]inputoutput__nextvalibranch_weights&mut [u8]7596319ecf86f60af9b48d8c05ebf9f7\00\E6\08\01\00\00\00\00\000\82\A0\06c0\82\A0\06d0\82\A0\06e0\82\A0\06f0\82\80x#\08H\18\8C \A8\C1\19\0C5\05\1C)\18\01\00\00A)\00\00\00\00@\00\003\0Cy\10\E8\C1\0C\83\1E\08{0\C3\A0\07\03\1F\0CT\00D\01\003\00\03\15\C0\01\04\C8`\03\00$\83\0D\C0)(\83\0D\00*,\83\0D@*0\F3\1C\00\194\A0\00\1C\C0\0C\C3*\AC\C2*\CCD\08\00+\00\D3\05\C6D\0D\F0@\00\00\AC\02(\80\02\00\00\C1D\0D\F0D\00\00\AC\02(\80\02\00\00\C1d\03@\AD\C2\0CA,L\D4\00\8F\05\00\C0*\80\02(\00\00\10\0CT\00\18\10d\83\0D\C0)h\135\C0\B3\01\00\B0\0A\A0\00\0A\00\00\04\03\15\80\07\04\DF`\03p\0A`0P\01\84\01\00\00\D3\09\861\D8\00\9C\82\18\0C6\00\BB\B0L\D4\00\8D\93\0B\808\AC\02(\80\02\00\00\C0D\0D\D0\90A.\00\E2\B0\0A\A0\00\0A\A0\00\00\C0\0CB/\F8\C2d\03P\06\AB0C\00\0E#E\C24\06\B9\00\F0\02\00\12\A0\00\00\BF\00\00\E1`\06\C0<\07@\06j\80\00\070Q\03<i\00\00\C08\80\02(\00\00\10L\D4\00\0D\1A\E4\02\80\0E\E4\00\0A\A0\00\00\000Q\034k\90\0B\00:\AC\02(\80\02(\00\000\83P\0E\E60R$Lg\90\0B\00\00\80\04(\00\C09\00@)\B0\010\1Da\80 \01\80\C2t\84\01\82\04(\80\C2@\05@\14A\1B\0C6\00\80\1BL3\08~\00\CC\10\B4\C3H\91\10\00\00\00\8C\03\08\92\AE\80\00\80;\00\00\00\00\135\C0\F3\06\00\00\BC\03(\80\02\00\00\C1D\0D\F0\C0\01\00\00\EF\00\0A\A0\00\00@0\C3`\07\7F\B0\07\135@\83\06\B9\00\D8\039\80\02(\00\00\00L\D4\00\CD\1A\E4\02`\0F\AB\00\0A\A0\00\0A\00\00\CC \CC\03=\8C\14\09\D3\1D\E4\02\00\00 \01\0A\00P\0F\00P\0Ax\00\9C\1F\00h\80\06h\80\06\9C\18\A0\81K\B8\81\1B\B8\81\1B@n \06h\80\06h`\0At\E0\06\16<\C0\03\1Ap\F0\E0\06h\00\0Fn\E0\06t\C0\B9\01\1A\F0\03J\A0\81\1Bpfa\0A\F6 \12(\81\06`\A1\07\A0@\07h\80\06\9CN\D8\83=\D0\81H\A0\04\1A\C8H`\822bc\B3ksi{#\ABc+s1c\0B;\9B\1Be\00\85P\10\85\5C\D8\D8\EC\DA\5C\C8\C4\CE\5C\C6\EAF\09\FE\00\00\00\00\00\A9\18\00\00\0B\00\00\00\0B\0Ar(\87w\80\07zXp\98C=\B8\C38\B0C9\D0\C3\82\E6\1C\C6\A1\0D\E8A\1E\C2\C1\1D\E6!\1D\E8!\1D\DE\C1\1D\00\D1\10\00\00\06\00\00\00\07\CC<\A4\83;\9C\03;\94\03=\A0\83<\94C8\90\C3\01\00\00\00a \00\00Q\00\00\00\13\04A<\0C\00\00\00/\00\00\00\22G\C8\90Q\0A\84<\00\00\00\00Q/\00\00forward_unchecked_ZN49_$LT$usize$u20$as$u20$core..iter..range..Step$GT$17forward_unchecked17hf3e4aa5239d3229aE\00\00\AB\A4C\15\EE\01\1FL\E1/Z\E1/\00\0E\00\11P(\05\80\1F\00`\5C\22\E4\83c\0A\7F\B1\0A\01\00\8CK\84|xL\E1/VA\00\80\0D\82>\EC\C3\04\01\D9\03\00\00\00\00#\06\07\00\82`\E0\07\1F\E8\FF\FF\FF\0F\A3\FF\FF\FF?\BC\FF\FF\FF\FF0cP\00@>\00\C0\88\C1\01\80 \18\F8\C1\07\88\FE\FF\FF\FF\F0\FE\FF\FF\FF\C3\84\010bP\001\08\06\C9\1B\043\06EhX\F9\00\00\1B\CC\18\14\A2\A1\E4\03\00\84\03\01\04\00\00\00\07PH\13\10M\B6cH\13\10M5\00\00\00\011\00\00\02\00\00\00[\04\00\1F\00\00\00\00\00\00\00\00a \00\00v\00\00\00\13\04A<\0C\00\00\00L\00\00\00\22G\C8\90Q\1A\08_\00\00\00\00n\00\06\8A\D6\07\05\00/benchdata/rust/rust/src/libcore/intrinsics.rs8711e10a7510f3464d77c4ff3fc6cb16intrinsicscopy_nonoverlapping<usize>_ZN4core10intrinsics19copy_nonoverlapping17h7d5aa160c6764310Ecount\AB\A4\E3\1F\F4a\1F\FC\81\14\85\90 E\01\E0\00\10\01\05Y\00J\02\00\06\15\C0=\00\01>\0C\1B\80S\C8\87\0D\04\F0\0A\B0\B0\0A\9B\08\01\00\09`\5C\22\F4\83\E4\0F\A4(\BCB\00\00\E3\12\A1\1F&\7F E\01\16\04\00\18\97\08\FD\C0\0F\FE@\8A\C2*\0C\00\B0a\10\89\91 \89\09\02\B3\07\13\04\86\0F\00#\06\07\00\82`\E0\07`\80\F7\FF\FF\FF\03\DF\FF\FF\FF\0F\F0\FF\FF\FF?\CC\18\14\00\D0\0F\000bp\00 \08\06~\00\06w\FF\FF\FF?\EC\FD\FF\FF\FF\00\FF\FF\FF\FF\C3\84\010bp\00 \08\06~\00\06\81\DE\FF\FF\FF\0F\F0\FF\FF\FF?L\18\00$ \C8\8CAA\8B\82\D3\0F\000l@\08\01\01L\18\00:cP\D4\A2 \F4\03\00\84\03\01\04\00\00\00\B63H\91`<\C3 M\07PH\13\10M\00\011\00\00\02\00\00\00[\04\80\1F\00\00\00\00\00\00\00\00a \00\00|\00\00\00\13\04A<\0C\00\00\00O\00\00\00\22G\C8\90Q\1EHh\00\00\00\00g\00\06\83@\0ED\01/benchdata/rust/rust/src/libcore/cmp.rsa4329b033234040c2caa81654f112278cmplt_ZN4core3cmp5impls57_$LT$impl$u20$core..cmp..PartialOrd$u20$for$u20$usize$GT$2lt17h697d7385366f3475Eboolother\00\00\00\AB\A4C$\F4a\1F\FE!\1E\83\92\88\C7\00\E0\00\10\01\85R\00P\02\00\06\15\C0=\00\01>\0C\1B\80S\C8\87a\03\00\12\D5\B0\01\08\09f\CF\01\90\01? \80\00l\18Fb\16fa\13!\00$\01\8CK\04\7F\B8\FE!\1E\83Y\08\00`\5C\22\F8C?\FCC<\06\B3 \00\C0\06\C1$Nb\82\C0\EC\C1\04\81\E1\03\00#\06\07\00\82`\E0\07`P\F7\FF\FF\FF\03\DE\FF\FF\FF\0F\F0\FF\FF\FF?\CC\18\14\00\E0\0F\000bp\00 \08\06~\00\06t\FF\FF\FF?\DC\FD\FF\FF\FF\00\FF\FF\FF\FF\C3\84\01@\02\82\CC\18\14\F1\18\D0\81?\00\00\09\082cP\C4c\E0\07\FE\00\00\C3\0DB@\063\06E<\06t\E0\0F\00\B0\C1\8CA\11\8F\01*\F8\03\00\84\03\01\00\00\00\07\00\00\00\C6S8\D3AD\D6#\FC\B7\F9\08?n;\84D,\C5\01\14\D2\04D\13\00\00\00\011\00\00\02\00\00\00[\04\A0\1F\00\00\00\00\00\00\00\00a \00\00F\00\00\00\13\04A<\0C\00\00\00\22\00\00\00\22G\C8\90Q\0A\04\1D\00\00\00\00K\19\00\00swap<usize>_ZN4core3mem4swap17h0019af1984fcaf22E\AB\A4\A3\16\EE\01\1Fh\C1\AD\F6\C1\AD\00\0E\00\11P\90\05\C0\1F\00`\C3\00\D8\82-l\22\04@\1F\80q\89\90\0F\1C-\B8\95-\04\000.\11\F2\A1\A3\05\B7\B2\05\01\006\08\FC\D0\0F\13\04f\0F&\08\0C\1F\00#\06\07\00\82`\E0\07`\F0\F7\FF\FF\FF\83\E8\FF\FF\FF\0F\F0\FF\FF\FF?\CC\18\14\00\90\0F\000bp\00 \08\06~\00\06~\FF\FF\FF?\84\FE\FF\FF\FF\00\FF\FF\FF\FF\C3\84\010b`T1\08\06\CD\1B\08\C1\8CA!WI>\00\80\CE\18\14t%\E4\03\00\84\03\01\00\00\04\00\00\00\B6\13\5C\C6\13`\07PH\13\10M\00\00\00\00\011\00\00\02\00\00\00[\04\00\1F\00\00\00\00\00\00\00\00a \00\00Z\00\00\00\13\04A<\0C\00\00\00'\00\00\00\22G\C8\90Q\0E\84\1F\00\00\00\00\0E\1A\10\00replace<usize>_ZN4core3mem7replace17hb0bd2fc33dce5fd7Edest\00\00\AB\A4\A3\16\EE\01\1Fh\C1\CD\F8\C1\CD\00\0E\00\11P\90\05\E0\1F\00`\C3\B0\0A\B6\B0\0A\9B\08\01\D8\07`\5C\22\E8C>\D0\82\9B\D9B\00\00\E3\12A\1F$Zp\B3U\10\00`\83\D0\0F\FE0A@\F8`\82\C0\EC\C1\04\01\F1\03\00\00\003\11\88\1A\94\01)\8C\18\1C\00\08\82\81\1F\84\C1\DF\FF\FF\FF\0F\A1\FF\FF\FF?\C4\FF\FF\FF\FF0cP\00\80>\00\C0\B0\01\11\08\040bp\00 \08\06~\10\06~\FF\FF\FF?\88\FE\FF\FF\FF\10\FF\FF\FF\FF\C3\84\010b`X0\08\06\CD\1C\0C\C1\8CA\F1f\85>\00\00\05\082cP\C0Y\A1\0F\000bp\00 \08\06~ \06~\FF\FF\FF?\88\FE\FF\FF\FF \FF\FF\FF\FF\C3\8CA\01\00\FA\00\00\1B\CC\18\14q&\E8\03\00\84\03\01\00\05\00\00\00\D63H\91p\00\854\01\D1d;\C4@H\13\00\00\00\00\011\00\00\02\00\00\00[\04 \1F\00\00\00\00\00\00\00\00a \00\00c\00\00\00\13\04A<\0C\00\00\00C\00\00\00\22G\C8\90Q\1A\88[\00\00\00\00k\00\06C\83\0A\03\00/benchdata/rust/rust/src/libcore/num/mod.rsb610d63e687c1bb61890b7290628f313numunchecked_add_ZN4core3num23_$LT$impl$u20$usize$GT$13unchecked_add17he27be0fa2186d468Erhs\00\00\AB\A4\03$\F4a\1F\FC\C1\F5\85Vp}\01\E0\00\10\01\85R\00F\02\00\06\15\C0=\00\01>\0C\1B\80S\C8\87a\03\F0\0F\CC\B8D\E8\87\CB\1F\5C_X\85\00\00\C6%B?\F0\83?\B8\BE\B0\0A\02\00l\10BB$&\08\C8\1E\00\00\00#\06\07\00\82`\E0\07_\DE\FF\FF\FF\0F|\FF\FF\FF?\BC\FF\FF\FF\FF0cP\00@?\00\C0\88\C1\01\80 \18\F8\C1\07\EC\FD\FF\FF\FF\F0\FE\FF\FF\FF\C3\84\01\80\81\07\013\06E\EC\0BZ?\00\C0\063\06\85\EC\0BN?\00@8\10\00\03\00\00\00\B6CH\C4R\1C@!M@4\01\011\00\00\02\00\00\00[\04\80\1F\00\00\00\00\00\00\00\00a \00\00h\00\00\00\13\04A<\0C\00\00\003\00\00\00\22G\C8\90Q\0E\04/\00\00\00\00^\1E\04\00swap_nonoverlapping_one<usize>_ZN4core3ptr23swap_nonoverlapping_one17h1204eb3747e6079aEz\B3\8A`\1Fn\01u\9AU\D2\81\0B\F7\80\0F\B7\10:\FD\10:\00\07\80\08(\C8\02\10\12\00\B0a\00`\01\166\11\02\C0\0F\C0\B8D\D8\07\EE\16B\07\16\02\00\18\97\08\FB\D0\DDB\E8\C0\82\00\00\E3\12A\1F\F2\E1\16Pg\15\00\00\D90\F8\C3?\80\C4\04\81\D9\83\09\02\C3\07\13\04\A4\0F\00\00\00#\06\07\00\82`\E0\07`\C0\F7\FF\FF\FF\03\E8\FF\FF\FF\0F\F0\FF\FF\FF?\CC\18\14\00\B0\0F\000bp\00 \08\06~\00\06{\FF\FF\FF?\FC\FD\FF\FF\FF\00\FF\FF\FF\FF\C3\84\010bP\001\08\06\94\1B\083\06\05\EAT\FB\00\00#\06\07\00\82`\E0\07a\B0\F7\FF\FF\FF\C3\DF\FF\FF\FF\0F\F1\FF\FF\FF?\CC\18\14\00\A0\0F\000b`\001\08\06M\1D\08\C3\8CA\91:\8D>\00\C0\88\81\01\C4 \18Xn \043\06\85\EA4\FA\00\00:cP\C0\8E\B0\0F\00\10\0E\04\00\00\04\00\00\00\07PH\13\10M\B6\13\5C\D6\13d\C6\13`\00\011\00\00\02\00\00\00[\04@\1F\00\00\00\00\00\00\00\00a \00\00\B1\00\00\00\13\04A,\10\00\00\00\01\00\00\00\84(\08\00\F10\00\00i\00\00\00\22G\C8\90Q2\8Cj\00\00\00\00K\19\0C\8Cd\08E3\81\01\18\00read<usize>_ZN4core3ptr4read17hc073ae94adfeafbdEtmpmaybe_uninitMaybeUninit<usize>uninit()valuemanually_dropManuallyDrop<usize>6a8c483e5b172af9bb2ada9ac38bad13e97c16148701834d6877347a0dfd0ed2\00\00\13\04\E4\9BU\04%q\0BvU\AC\92\0E\5C\B8\07|\B8\05\BA:\09\BA\028\00D@A\16\00\9A\00\80\0D\C2*\BC\C2&B\00L\02\18\97\08%!\DD\02]\BDB\00\00\C3\06\A0\16\F4a\CF\01\90A?\00\C0\01,j\80\86\1Fr\01\90\09\95\00\10\00\00\80a\03P\0B\FF\B0\A8\01\1A\7F\C8\05\E0%V\01\14@\01\00\00`C\D0\12\93\22a\02\89\5C\00X\02\00\05P\00\00\97\00\00Y\08\09`Q\034\FE\90\0B\80L\BC\04(\80\02\00\00\C0\06a%`bR$\5C\FB\90\0B@J\00\A0\00\0A\00\10\13\00 \0B\22\01\8CK\04\92\C8\87[\B0+\99\00\00d\83\80\1231A`\F6`\82\C0\F4\C1\04\01\F9\03\003\11\88\1A\94\01)\8C\18\1C\00\08\82\81\1F\84\81\DA\FF\FF\FF\0Fw\FF\FF\FF?\C4\FF\FF\FF\FF0cP\00@I\00@\06\84\9D1(\EC*)\09\00\1810.\10\04\83:(\83!\980\00F\0C\0E\00\04\C1\C0\0F\C4\A0\EF\FF\FF\FF\87\B6\FF\FF\FF\1F\E4\FF\FF\FF\7F\981(\00\80$\00`\C4\E0\00@\10\0C\FC@\0C\D4\FE\FF\FF\7Fh\FB\FF\FF\FF\C1\FC\FF\FF\FF\87\09\03`\C4\C0\B8`\10\0C\1A; \84\19\83\C2\AF\12\92\00\00\12\10d\C6\A0\F8\AB\84$\00`\C4\E0\00@\10\0C\FC`\0C\D4\FE\FF\FF\7Fp\FB\FF\FF\FFa\FE\FF\FF\FF\87\19\83\02\00H\02\00F\0C\8C\0B\04\C1\A0\0E\CA\80\10f\0C\8A\D0\0AJ\02\006\981(BK(\09\00\08\07\02\00\00\00\05\00\00\00\D63L\CCc;\83\14\09\F6#\FC\FB\01\14\D2\04D\13\00\011\00\00\02\00\00\00[\04\80$\00\00\00\00\00\00\00\00a \00\00F\00\00\00\13\04A<\0C\00\00\00#\00\00\00\22G\C8\90Q\0A\84\1D\00\00\00\00\8C\19\00\00write<usize>_ZN4core3ptr5write17h1c414429b6173125E\00\00\AB\A4\03\17\EE\01\1Fn\E1\DF\F6\E1\DF\00\0E\00\11P\90\05\C0\1F\00`\C3\00\C0\C2*l\22\04@\1F\80q\89\90\0F\D3-\FC\1B,\04\000.\11\F2A\BA\85\7F[\05\01\006\08\FC\D0\0F\13\04f\0F&\08\08\1F\00#\06\07\00\82`\E0\07`\F0\F7\FF\FF\FF\83\E8\FF\FF\FF\0F\F0\FF\FF\FF?\CC\18\14\00\90\0F\000bp\00 \08\06~\00\06~\FF\FF\FF?\84\FE\FF\FF\FF\00\FF\FF\FF\FF\C3\84\010l@\08\01\01\CC\18\14%7\07\F9\00\00:cP\98\9C\90\0F\00\10\0E\04\00\00\04\00\00\00\C63H\91`;\C3 M\07PH\13\10M\00\011\00\00\02\00\00\00[\04\00\1F\00\00\00\00\00\00\00\00a \00\00\04\01\00\00\13\04C,\10\00\00\00\01\00\00\00\84\99\01\00\F10\00\00\AE\00\00\00\22G\C8\90Q:P\CB\00\00\00\00\0BM\18\0Da\06\C4`\06m0\80\C1\18\04\00next<usize>_ZN4core4iter5range101_$LT$impl$u20$core..iter..traits..iterator..Iterator$u20$for$u20$core..ops..range..Range$LT$A$GT$$GT$4next17h4dbca16b0a93703cEoptionOption<usize>Noneedae92f6aa2d4d3d8225245fd9f15299::NoneSome__0edae92f6aa2d4d3d8225245fd9f15299::Someedae92f6aa2d4d3d8225245fd9f15299_variant_partu64edae92f6aa2d4d3d8225245fd9f15299&mut core::ops::range::Range<usize>A\00\00\00\13\04\04\0Cf\15\C1I\98\82\FF4\AB\A4C\15\EE\01\1FL\01\7Fn\02\7F\00\0E\00\11P\E0\09@'\00`\D8\00\9CB>L\8A\84i\1Fr\01\A0\09\00$@\01\00J\01\00d\81\1F\80E\0D\D0\ECC.\002\91\12 \01\0A\00P\12\C0\A2\06h\FC!\17\80\96X\05P\00\05P\00\00`C\B0\12\93\22a\EA\87\5C\00h\02\00\09P\00\00\96\00\00Y\F8\07`Q\034\FD\90\0B\80L\B4\04H\80\02\00\F4\01\B0AP\09\97\D8s\00d\10\12\A0\00\1C\C0\A2\06h\80\5C\00P\02&@\01\14\00P\00\80I\910\07@.\00(\01\80\04(\00\C0K\00\80,\80DLl\08dbR$L\FA\90\0B\00J\00 \01\0A\000\13\00\00\88\04\B0\A8\01\9E\91\00\00@\1C@\01\14\00\00\086\084Q\13\9B\08\01\B0\09`\5C\22\9C\C4e\0A\F8S\13\01\00\8CK\04\93xL\C1\7FV\01\00\90\0D\02N\E4\C4\B2\01 \89U\D8\10\EC\C4\04!\DB\83\09\02\12\0A\00\00#\06\07\00\82`\E0\07`\10\F6\FF\FF\FF\83\D9\FF\FF\FF\0F\F0\FF\FF\FF?\CC\18\14\00p\12\00\D01\83\D0m3\06E\FE0'\01\00\1D3\0C^6cP\E4Ov\12\000b``1\08\06P\1D\08\C1\8CA\91?\CCI\00\C0,C \043\06E\FE$'\01\00#\06E\16\83`@\B9\C10cP\F8\8F\1D\9C\04\00\8C\18\14@\0C\82A\92\07\C1\8CA\E1?\DEI\00\C0\88\C1\01\80 \18\F8A\19\94\FD\FF\FF\FF\A0\F6\FF\FF\FFC\FD\FF\FF\FF\0F3\06\05\00\98\04\00\8C\18\18Z\0C\82\81d\07E0cP\FC\8Fd\12\000K \CC\18\14\F9\93\9C\04\00\0CT B\80\0A\C0@\05\C2\0A\01*\003\06\05\00\9C\04\00\CC6$\010cP\8C\90q\12\000\DB\10\0C\C1\84\01\B0\C1\84\01\10\0E\04\10\00\00\006\94\F8R\E4\00\FE\ED\D3F\94\F8R\E4\00>\ED\D3\B6CH\C4R\1C@!M@4YP\D0\D8\8F\F0\DB\D6#\FC\B7\F9\08?~\01C\10\DC'0\04\C1nB\C2\CF\1B\90\F0\EB\00\00\00\00\011\00\00\02\00\00\00[\04\C0$\00\00\00\00\00\00\00\00a \00\00`\00\00\00\13\04A<\0C\00\00\00F\00\00\00\22G\C8\90Q\12\08_\00\00\00\00i\00\06\859\00\00\00/benchdata/rust/rust/src/libcore/clone.rs98c9dc6319acf64a993b20287d880fcdclone_ZN4core5clone5impls54_$LT$impl$u20$core..clone..Clone$u20$for$u20$usize$GT$5clone17h5308b05db89f7c1fE\AB\A4\E3\1F\F2A\1F\F8\01/B\02/\00\0E\00\11P(\05`$\00`P\01\DC\03\10\E0\C3\B0\018\85|\186\00\FDP\0D\1B\00\7F`6\08\AB0\0B\9B\08\01\00\09`\5C\22\EC\C3\C5\0Fx1\0B\01\00l\08Db\82\C0\EC\01\00\00\00\00#\06\07\00\82`\E0\07_\DE\FF\FF\FF\0F{\FF\FF\FF?\BC\FF\FF\FF\FF0cP\00\C0>\00\00\05\082cP\E4E\B6\0F\00\B0\C1\8CA\A1\17\D6>\00@8\10\00\00\03\00\00\00\B6CH\C4R\1C@!M@4\01\011\00\00\02\00\00\00[\04@\1F\00\00\00\00\00\00\00\00a \00\00b\00\00\00\13\04A<\0C\00\00\00C\00\00\00\22G\C8\90Q\16\88Y\00\00\00\00m\00\06\C5Q\0A\00\00/benchdata/rust/rust/src/libcore/slice/mod.rs9fd93c8a41addff7ba15d9096da1df6cslicelen<u8>_ZN4core5slice29_$LT$impl$u20$$u5b$T$u5d$$GT$3len17h04c456e3451ef474E\00\00\13\841\C8\83U\D2\01\12\FA\B0\0F\FE\80\0A\22\81\0A\00\07\80\08(\98\04@\12\000\A8\00\EE\01\08\F0a\D8\00\9CB>\0C\1B\80\7F`6\08\AB\80\0E\9B\08\01\08\09`\5C\22\F4\C3\E5\0F\A8\80\0E\01\00l\08Fb\D9\00P\E3\B0!(\89\09\02\B2\07\00\00\00\00#\06\07\00\82`\E0\07_\E8\FF\FF\FF\0Fz\FF\FF\FF?\D0\FE\FF\FF\FF0cP\00@?\00\C0\88\C1\01\80 \18\F8\C1g\F7\FF\FF\FF\83\DE\FF\FF\FF\0F\B3\FF\FF\FF?L\18\00\1B\CC\18\14\AA`\F4\03\00\84\03\01\00\04\00\00\00\B6cH\C4R\F8\F5\01\14\D2\04D\13\00\00\00\011\00\00\02\00\00\00[\04\80\1F\00\00\00\00\00\00\00\00a \00\00\80\00\00\00\13\04A,\10\00\00\00\01\00\00\00\84\99\01\00\F10\00\00Y\00\00\00\22G\C8\90Q\1E\0C\7F\00\00\00\00w\00\06\C6\91\06\E2\10\00\00\00\00/benchdata/rust/rust/src/libcore/iter/traits/collect.rsab5d815a7d940fadbe767a6e9304aef3traitscollectinto_iter<core::ops::range::Range<usize>>_ZN63_$LT$I$u20$as$u20$core..iter..traits..collect..IntoIterator$GT$9into_iter17hef336c8a92dad622EI\AB\A4C$\F6\81\1F\FE\E1>H\E2>\00\0E\00\11P@\09\C0$\00`P\01\DC\03\10\E0\C3\B0\01@\85|\186\00 \A1\0F\C3\06 $\98\0D\828\88\C3&B\00F\02\18\97\08\FEp\FD\C3}\88C\00\00\1B\82\92X6\00\FD \0E\1B\82\93\98  {0A@\F8\00\00\00#\06\07\00\82`\E0\07a`\F7\FF\FF\FF\83\DE\FF\FF\FF\0F\B6\FF\FF\FF?\CC\18\14\00\E0\0F\000bp\00 \08\06~\10\06u\FF\FF\FF?\E8\FD\FF\FF\FFP\FB\FF\FF\FF\C3\84\010\DB\10\0C\C0\8CA\91\1F\86?\00\C0lC0\04\13\06\C0\06\13\06@8\10\00\00\05\00\00\00\B6cH\C4R\F8\B4\F1\18\12\B1\14~}\00\854\01\D1\04\011\00\00\02\00\00\00[\04\A0\1F\00\00\00\00\00\00\00\00a \00\00\F8\00\00\00\13\04F,\10\00\00\00\02\00\00\00\84(\10\D2\D9\1E\02\00\F10\00\000\00\00\00\22G\C8\90Q\06\84\05\12\00\00\00c_style_size_fixed\00\00\B3\8A@\1F\D6\A1qf\15\81>\ACC\93\CC*\82}X\87\C6\99U\04\FC\B0\0EM\B1J:\D8\E1\1E\80u`\FC\81\010\00D@\A1\14\80\92\00\80\0D\03\00\0F\F1\B0\89\10\80~\00\C6%\02?\C4\C1:0\F0\10\00\C0\B8D\E0\079X\07&\1E\04\00\18\97\08\FB\A0\ACC#\0E\00\80\8CK\04}\98\83uhV\01\00\90q\89\90\0Ft\B0\0E\CD*\00\002.\11\F0\A1\0E\D6\A1Y\05\00@6\18\FF\00\12!!\12#A\12\13\84o\0F&\08\1F\1FL\10\B2?\98  \AA\00\00\003\11\98\1A\94\01)\8C\18\1C\00\08\82\81\1F\8C\C1\DE\FF\FF\FF\0F\A2\FF\FF\FF?\CC\FF\FF\FF\FF0cP\00\00?\00\C0\88\C1\01\80 \18\F8\C1\18\E8\FD\FF\FF\FF\10\FA\FF\FF\FF\C3\FC\FF\FF\FF\0F\13\06\C0\88\81\01\84 \18pl\00\06\DF\8CA\D18\FC\00\00\A3\09\010a\00\8C&\08\C1\84\01\90\04a'\0C\80\11\03\E3\02A0\A8\0358\82\09\03\A0c\86\82\0C\C4`\C2\00\186 \02\82\00&\0C\80\8E\19\8C2\00\83\09\03`\D8\80\08\08\02\980\00F\0C\0E\00\04\C1\C0\0F\D2\E0\EF\FF\FF\FF\07\D3\FF\FF\FF\1F\DA\FF\FF\FF\7F\981(\00`\1F\00`\C4\A0\D8`\10\0C\B4:8f\0C\8A\C6\D1\07\00\18M\08\80\09\03`\B8!@\030\981(\9AD\1F\00`\96A\08\82\09\03`4a\08f\0C\8A\C6\D1\07\00\98%\18f\0C\0A\A7\C2\07\00\1810.\10\04\83:x\83\E6\981(\9E\82\1F\00@g\0C\0AH\E0\07\00\18\A8@\1EB\08F\0C\0E\00\04\C1\C0\0F\DC`\F4\FF\FF\FF\07\D5\FF\FF\FF\1F\FC\FF\FF\FF\7F\981(\00@\1F\00`\C4\E0\00@\10\0C\FC\C0\0DF\FF\FF\FF\7F@\FD\FF\FF\FF\C1\FF\FF\FF\FF\87\19\83\02\00\F0\01\00\86\1B\025 \83\19\83\C2\A9\F0\01\00f\19\88\22\980\00\BAg\88\D8@\980\00(\00\84\09\03\A0{\06\C9\0D\88\19\83\C2I\F0\01\00\86\0D\88@\08\80\09\03`\C4\E0\00@\10\0C\FC@\0EP\FF\FF\FF\7Fx\FD\FF\FF\FF\C1\FE\FF\FF\FF\87\19\83\02\00\F6\01\00F\0C\8A\0D\06\C1@\F3\03h\C6\A0h\1C}\00\80\D1\84\00\980\00F\13\84`\C2\00\18n\10\E4\00\0Cf\0C\8A&\D1\07\00\98e\10\86`\C2\00\1818\00\10\04\03?\B0\83\D5\FF\FF\FF\1Fd\FF\FF\FF\7F0f\0C\0A\00\D0\07\00\1818\00\10\04\03?\B0\83\D5\FF\FF\FF\1Fd\FF\FF\FF\7F0&\0C\80\11\83\03\00A0\F0\03;X\FD\FF\FF\FFA\F6\FF\FF\FF\07c\C2\00\1818\B8\10\04\83=\B8\83D\0E\AA\19\83\C2\A9\F0\01\00x\C2\00\08\07\02\00\00(\00\00\00WP<@\83\08\16D\FC\B7O\9B\10\F1\DF~m;\05\D2<\D4t\01M\10\EC\FE\13\11\07\01\0CDdP\8E_\08\80O\FB\C45E\800Y\12\E4\17\02\E0\D7>qM\11 L5mJ\90_\08\80_\FB\C45E\800\D5\B65\0D\7F\BD[\94\E3\17\02\E0\D7>qM\11 L\07PH\13\10M\C6c8\D4\F4P\93I\19\92\85L\C2a?\042\11\91!!\92\85L\C2Q\D7v\F4\F8\85\00\F8\B4O\5CS\04\08S\7F\02C\10\E470\04\C1~\04C\10\F4\B64\FC6\0D\00\00\011\00\00\03\00\00\00[\04`\1F\B6\0C\99\10\0F\00\00\00\00\00\00\00a \00\00&\01\00\00\13\04H,\10\00\00\00\03\00\00\00\84(\10\D2\D9\1E\04l\0F\03\00\00\F10\00\002\00\00\00\22G\C8\90Q\06\04\07\18\00\00\00c_style_input_size_fixed\B3\8A@\1F\D6\C1rf\15\81>\AC\83\95\CC*\82}X\07\CB\99U\04\FC\B0\0EV\B1J:\D8\E1\1E\80u\A8\FC\A1\020\00D@\A1\14\80\92\00\80\0D\03\00\0F\F6\B0\89\10\80~\00\C6%\02?\C4\C1:T\F0\10\00\C0\B8D\E0\079X\87\CA\1E\04\00\18\97\08\FB\A0\AC\83%\0E\00\80\8CK\04}\98\83u\B0V\01\00\90q\89\90\0Ft\B0\0E\D6*\00\002.\11\F0\A1\0E\D6\C1Z\05\00@6\18\FF\00\12!!\12#A\12\13\84o\0F&\08c\C0\07\13\04\A4\0F&\08Y(L\10\10V\00\003\11\98\1A\94\01)\8C\18\1C\00\08\82\81\1F\94A\DF\FF\FF\FF\0F\A4\FF\FF\FF?\D4\FF\FF\FF\FF0cP\00\00?\00\C0\88\C1\01\80 \18\F8A\19\F0\FD\FF\FF\FF0\FA\FF\FF\FF\83\EE\FF\FF\FF\0F\13\06\C0\88\C1\01\80 \18\F8A\19\EC\FD\FF\FF\FF0\FA\FF\FF\FFC\EE\FF\FF\FF\0F\13\06\C0\88\81\01\84 \18pn \06a0cPX\0E?\00\C0hB\00L\18\00\A3\09B0a\00$A\D8\09\03`\C4\C0\B8@\10\0C\EA\80\0D\90`\C2\00\E8\98\A10\032\980\00\86\0D\88\80 \80\09\03\A0c\06\E3\0C\C4`\C2\00\186 \02\82\00&\0C\80\11\83\03\00A0\F0\835\00\FD\FF\FF\FF\01\F5\FF\FF\FF\87\F7\FF\FF\FF\1Ff\0C\0A\00\D8\07\00\181(6\18\04\03\ED\0E\8E\19\83\C2r\F4\01\00F\13\02`\C2\00\18n\08\D4\00\0Cf\0C\0A+\D1\07\00\98e\10\82`\C2\00\18M\18\82\19\83\C2r\F4\01\00f\09\86\19\83\E2\AA\F0\01\00F\0C\8C\0B\04\C1\A0\0E\E2\C09f\0C\0A\AC\E0\07\00\D0\19\83\22\13\F8\01\00\06*\90\A8\10\82\11\83\03\00A0\F0\038 \FD\FF\FF\FF\81\F5\FF\FF\FF\07`\C6\A0\00\00}\00\80\11\83\03\00A0\F0\038 \FD\FF\FF\FFA\F5\FF\FF\FF\07`\C6\A0\00\00|\00\80\E1\86\80\0D\C8`\C6\A0\B8*|\00\80Y\06\C2\08&\0C\80\E1\06!\22\83\19\83\E2J\F0\01\00f\19\8A#\980\00\BAg\A0\DE`\981(\AE\0A\1F\00\80\02@\980\00\BAh\A8\E2\A0\981(\AE\04\1F\00`\D8\80\08\84\00\980\00F\0C\0E\00\04\C1\C0\0F\EA@\F5\FF\FF\FF\07\D9\FF\FF\FF\1F\F2\FF\FF\FF\7F\981(\00`\1F\00`\C4\A0\D8`\10\0C\B4P\88f\0C\0A\CB\D1\07\00\18M\08\80\09\03`4A\08&\0C\80\E1\06\A1\0E\C0`\C6\A0\B0\12}\00\80Y\06a\08&\0C\80\11\83\03\00A0\F0\83<h\FD\FF\FF\FF\A1\F6\FF\FF\FF\87d\C6\A0\00\00}\00\80\11\83\03\00A0\F0\83<h\FD\FF\FF\FF\A1\F6\FF\FF\FF\87d\C2\00\1818\00\10\04\03?\C8\83\D6\FF\FF\FF\1Fj\FF\FF\FF\7FH&\0C\80\11\83\83\0BA0\D8\03=P\EA\E0\9A1(\AE\0A\1F\00\80'\0C\80\11\83\03\00A0\F0\83<h\FD\FF\FF\FF\A1\F6\FF\FF\FF\87d\C6\A0\00\00}\00\80\11\83\03\00A0\F0\83<h\FD\FF\FF\FF\A1\F6\FF\FF\FF\87d\C2\00\1818\00\10\04\03?\C8\83\D6\FF\FF\FF\1Fj\FF\FF\FF\7FH&\0C\80\11\83\83\0BA0\D8\03=P2k\C6\A0\B8\12|\00\00\9E0\00\C2\81\00\00/\00\00\00gP<@\83\08\C6\838\D4\F4P\93O\DB\10\F1\DF>mD\C4\7F\FB\B5\ED\14H\F3P\D3\054A\B0\FBOD\1C\040\10\91\F5 \0E5=\D4\E4\D7w`<@\83\08\B5M9~!\00>\ED\13\D7\14\01\C2dK\90_\08\80_\FB\C45E\800\D5\B51A~!\00~\ED\13\D7\14\01\C2T\DF\065\FC\F5nT\8E_\08\80_\FB\C45E\800\1D@!M@4Y\95!Y\C8$\1C\16D \13\11\99\12\22Y\C8$\1C\B5}\02C\10\E470\04\C1~\04C\10\F0W0\04AoM\C3o\D3\E64\FC\F6mI\90_\08\80O\FB\C45E\800\D54\00\00\00\00\011\00\00\04\00\00\00[\04`\1F\B6\0C\9A\10\0F[\06N\88\07\00\00\00\00\00\00a \00\000\01\00\00\13\04H,\10\00\00\00\03\00\00\00\84(\10\D2\D9\1E\08l\0F\05\00\00\F10\00\005\00\00\00\22G\C8\90Q\06D\07\19\00\00\00c_style_output_size_fixed\00\00\00\B3\8A@\1F\D6\E1\0C\9CYE\A0\0F\EBp\06\C9\AC\22\D8\87u8\03gV\11\F0\C3:\9CA\B1J:\D8\E1\1E\80u0\03\7F0\03\00\03@\04\14J\01(\09\00\D80\00\E8\10\0F\9B\08\01\E8\07`\5C\22\F0C\1C\AC\83\19\A0C\00\00\E3\12\81\1F\E4`\1D\CC \1E\04\00\18\97\08\FB\A0\AC\C3\19\88\03\00 \E3\12A\1F\E6`\1D\CE`\15\00\00\19\97\08\F9@\07\EBp\06\AB\00\00\C8\B8D\C0\87:X\873X\05\00@6\18\FF\00\12!!\12#A\12\13\841\D8\83\09\02\C2\07\13\84\AF\0F&\08Y(L\10\90V\003\11\98\1A\94\01)\8C\18\1C\00\08\82\81\1F\94A\DF\FF\FF\FF\0F\A4\FF\FF\FF?\E8\FE\FF\FF\FF0cP\00\00?\00\C0\88\C1\01\80 \18\F8A\19\F0\FD\FF\FF\FF@\FA\FF\FF\FFC\EE\FF\FF\FF\0F\13\06\C0\88\C1\01\80 \18\F8A\19\EC\FD\FF\FF\FF0\FA\FF\FF\FFC\FD\FF\FF\FF\0F\13\06\C0\88A\01\C4 \18$o`\CC\18\14g\10\F1\03\00\8C\18\18@\08\82\01\F7\06c\10\CC\18\14g\E0\F0\03\00\8C&\04\C0\84\010\9A \04\13\06@\16\84\9D0\00F\0C\8C\0B\04\C1\A0\0E\DA \09&\0C\80\8E\19\8C3(\83\09\03`\D8\80\08\08\02\980\00:f8\D0`\0C&\0C\80a\03\22 \08`\C2\00\1818\00\10\04\03?`\83\D0\FF\FF\FF\1FR\FF\FF\FF\7F\80\FF\FF\FF\FFa\C6\A0\00\80}\00\80\11\83b\83A0\D0\F0\00\991(\CE\C0\D1\07\00\18M\08\80\09\03`\B8!X\030\981(\CE \D1\07\00\98e\10\82`\C2\00\18M\18\82\19\83\E2\0C\1C}\00\80Y\82a\C6\A0@\83\0A\1F\00`\C4\C0\B8@\10\0C\EA@\0E\9Ec\C6\A0H\83\82\1F\00@g\0C\0A5\10\F8\01\00\06*\90\A8\10\82\11\83\03\00A0\F0\838(\FD\FF\FF\FF\A1\F5\FF\FF\FF\87`\C6\A0\00\00}\00\80\11\83\03\00A0\F0\838(\FD\FF\FF\FFa\F5\FF\FF\FF\87`\C6\A0\00\00|\00\80\E1\86@\22\83\19\83\02\0D*|\00\80Y\06\C2\08&\0C\80\E1\06\C1\0D\C8`\C6\A0@\83\04\1F\00`\96\A18\82\09\03\A0\8B\86\0A\0E\86\19\83\02\0D*|\00\00\0A\00a\C2\00\E8\9E\A1\92\83b\C6\A0@\83\04\1F\00`\D8\80\08\84\00\980\00F\0C\0E\00\04\C1\C0\0F\EC`\F5\FF\FF\FF\87\D9\FF\FF\FF\1F\F4\FF\FF\FF\7F\981(\00`\1F\00`\C4\A0\D8`\10\0C4Q\90f\0C\8A3p\F4\01\00F\13\02`\C2\00\18M\10\82\09\03`\B8A\B0\030\981(\CE \D1\07\00\98e\10\86`\C2\00\1818\00\10\04\03?\D0\03\D7\FF\FF\FF\1Fl\FF\FF\FF\7FPf\0C\0A\00\D0\07\00\1818\00\10\04\03?\D0\03\D7\FF\FF\FF\1Fl\FF\FF\FF\7FP&\0C\80\11\83\03\00A0\F0\03=p\FD\FF\FF\FF\C1\F6\FF\FF\FF\07e\C2\00\1818\B8\10\04\83=\D8\03e\C3f\0C\0A4\A8\F0\01\00x\C2\00\1818\00\10\04\03?\D0\03\D7\FF\FF\FF\1Fl\FF\FF\FF\7FPf\0C\0A\00\D0\07\00\1818\00\10\04\03?\D0\03\D7\FF\FF\FF\1Fl\FF\FF\FF\7FP&\0C\80\11\83\03\00A0\F0\03=p\FD\FF\FF\FF\C1\F6\FF\FF\FF\07e\C2\00\1818\B8\10\04\83=\D8\03\C5\0E\AE\19\83\02\0D\12|\00\00\9E0\00\C2\81\00\00/\00\00\00gP<@\83\08VD\FC\B7_\1B\11\F1\DF>}\01M\10\EC\FE\13\11\07\01\0CDt\07\C6\034\88P\1B\95\E3\17\02\E0\D3>qM\11 L\C6\04\F9\85\00\F8\B5O\5CS\04\08S][\95\E3\17\02\E0\D7>qM\11 L\D6\04\F9\85\00\F8\B5O\5CS\04\08S}[\D4\F0\D7\BA9\0D\7F\DD\1F@!M@4\19\CF\814\0F5\F9\B5\ED\1CH\F3P\93O\9B\95!Y\C8$\1C\D6c8\D4\F4P\93\05\11\C8DD\B6\84H\162\09Gm\9F\C0\10\04\F9\0D\0CA\B0\1F\C1\10\04\FC\15\0CA\D0\DB\D3\F0\DB\B6)A~!\00>\ED\13\D7\14\01\C2T\D3&$\FC9\00\011\00\00\04\00\00\00[\04`\1F\B6\0C\9B\10\0F[\86N\88\07\00\00\00\00\00\00a \00\00:\01\00\00\13\04H,\10\00\00\00\03\00\00\00\84(\10\D2\D9\1E\0Cl\0F\07\00\00\F10\00\005\00\00\00\22G\C8\90Q\06\04\06\14\00\00\00c_style_unknown_size\B3\8A@\1F\D6\01\0F\9CYE\A0\0F\EB\80\07\C9\AC\22\D8\87u\C0\03gV\11\F0\C3:\E0A\B1J:\D8\E1\1E\80u\B8\03\7F\B8\03\00\03@\04\14J\01(\09\00\D80\00\E8`\0F\9B\08\01\E8\07`\5C\22\F0C\1C\AC\C3\1D\A0C\00\00\E3\12\81\1F\E4`\1D\EE\C0\1E\04\00\18\97\08\FB\A0\AC\03\1E\88\03\00 \E3\12A\1F\E6`\1D\F0`\15\00\00\19\97\08\F9@\07\EB\80\07\AB\00\00\C8\B8D\C0\87:X\07<X\05\00@6\18\FF\00\12!!\12#A\12\13\841\D8\83\09\02\C2\07\13\841\E8\83\09\02\E2\07\13\84L\14&\08\88+\00\00\00\003\11\98\1A\94\01)\8C\18\1C\00\08\82\81\1F\98\81\DF\FF\FF\FF\0F\A5\FF\FF\FF?\EC\FE\FF\FF\FF0cP\00\00?\00\C0\88\C1\01\80 \18\F8\81\19\F4\FD\FF\FF\FFP\FA\FF\FF\FF\83\EE\FF\FF\FF\0F\13\06\C0\88\C1\01\80 \18\F8\81\19\F0\FD\FF\FF\FF@\FA\FF\FF\FF\C3\EE\FF\FF\FF\0F\13\06\C0\88\C1\01\80 \18\F8\81\19\EC\FD\FF\FF\FF@\FA\FF\FF\FF\83\EE\FF\FF\FF\0F\13\06\C0\88A\01\C4 \18$pp\CC\18\14x\10\F1\03\00\8C\18\18@\08\82\01\07\07d\10\CC\18\14x\E0\F0\03\00\8C&\04\C0\84\010\9A \04\13\06@\16\84\9D0\00F\0C\8C\0B\04\C1\A0\0E\DC \09&\0C\80\8E\19\0C40\83\09\03`\D8\80\08\08\02\980\00:f8\D2\80\0C&\0C\80a\03\22 \08`\C2\00\1818\00\10\04\03?h\83\D0\FF\FF\FF\1FT\FF\FF\FF\7F\88\FF\FF\FF\FFa\C6\A0\00\80}\00\80\11\83b\83A0\D0\F2\00\991(\F0\C0\D1\07\00\18M\08\80\09\03`\B8!`\030\981(\F0 \D1\07\00\98e\10\82`\C2\00\18M\18\82\19\83\02\0F\1C}\00\80Y\82a\C6\A0\C8\83\0A\1F\00`\C4\C0\B8@\10\0C\EA`\0E\9Ec\C6\A0\D0\83\82\1F\00@g\0C\8A=\10\F8\01\00\06*\90\A8\10\82\11\83\03\00A0\F0\039(\FD\FF\FF\FF\C1\F5\FF\FF\FF\07a\C6\A0\00\00}\00\80\11\83\03\00A0\F0\039(\FD\FF\FF\FF\81\F5\FF\FF\FF\07a\C6\A0\00\00|\00\80\E1\86`\22\83\19\83\22\0F*|\00\80Y\06\C2\08&\0C\80\E1\06A\22\83\19\83\22\0F\12|\00\80Y\86\E2\08&\0C\80.\1A\AC8\18f\0C\8A<\A8\F0\01\00(\00\84\09\03\A0\8B\06k\0E\8A\19\83\22\0F\12|\00\80a\03\22\10\02`\C2\00\1818\00\10\04\03?\B8\83\D5\FF\FF\FF\1Fh\FF\FF\FF\7F\D8\FF\FF\FF\FFa\C6\A0\00\80}\00\80\11\83b\83A0\D0FA\9A1(\F0\C0\D1\07\00\18M\08\80\09\03`4A\08&\0C\80\E1\06\E1\0E\C0`\C6\A0\C0\83D\1F\00`\96A\18\82\09\03`\C4\E0\00@\10\0C\FC`\0F\5C\FF\FF\FF\7F\B8\FD\FF\FF\FFa\991(\00@\1F\00`\C4\E0\00@\10\0C\FC`\0F\5C\FF\FF\FF\7F\B8\FD\FF\FF\FFa\990\00F\0C\0E\00\04\C1\C0\0F\F6\C0\F5\FF\FF\FF\87\DB\FF\FF\FF\1F\96\09\03`\C4\E0\E0B\10\0C\F6\80\0F\14\0E\9B1(\F2\A0\C2\07\00\E0\09\03`\C4\E0\00@\10\0C\FC`\0F\5C\FF\FF\FF\7F\B8\FD\FF\FF\FFa\991(\00@\1F\00`\C4\E0\00@\10\0C\FC`\0F\5C\FF\FF\FF\7F\B8\FD\FF\FF\FFa\990\00F\0C\0E\00\04\C1\C0\0F\F6\C0\F5\FF\FF\FF\87\DB\FF\FF\FF\1F\96\09\03`\C4\E0\E0B\10\0C\F6\80\0F\14\ED\9A1(\F2 \C1\07\00\E0\09\03 \1C\08\00\00\002\00\00\00gP<@\83\08\D6\838\D4\F4P\93O[\11\F1\DF>mF\C4\7F\FB\B5\F9 \0E5=\D4\E4\D7\17\D0\04\C1\EE?\11q\10\C0@Dw`<@\83\08\B5U9~!\00>\ED\13\D7\14\01\C2dM\90_\08\80_\FB\C45E\800\D5\B5Y9~!\00~\ED\13\D7\14\01\C2dN\90_\08\80_\FB\C45E\800\D5\B7I\0D\7F\AD\DB\D3\F0\D7\FD\01\14\D2\04D\93\F1\1CH\F3P\93_\DB\CE\814\0F5\F9\B4]\19\92\85L\C2aB\042\11\911!\92\85L\C2Q\DB'0\04A~\03C\10\ECG0\04\01\7F\05C\10\F4\065\FC\B6mK\90_\08\80O\FB\C45E\800\D5\B4\0D\09\7F\0E\00\00\00\011\00\00\04\00\00\00[\04`\1F\B6\0C\9C\10\0F[\06O\88\07\00\00\00\00\00\00\A1 \00\00>\00\00\00\A3\04\C7P\01 \AA\00!2\84\88\10!B\C4\08\89\1A@\88\0C!\22D\88\101BR\0E\10\22c\84\C4\BC D\86\88\11\12\F2\80\10\19BRZ\10\22d\84\0A\E1\14\04\0A\00\82\86J8\85\01\02\00\A0\14N\81\C0\00\00\A8\85S\10\00\00\08\1C\8A\E1\14\0A \00\84\8C\85j8\05\81\02\00\A0\1CN\81\00\02\80\C8xH\80\A8\87S8\00\00\08\12\0A\E2\14\04\08\00\80\8A8\85\06\00\00BA\02\81\A1$NA\C0\00\00\A8\89S\08(\00\00\8A\02\18(\00\00\AA\02\00\81\00 \02(\228\CA\02 \01\01(\04\06(\228\EA\02(\01\010\08\0A&(\228\0A\03(\01\010\0C\0E&(\228\0C\00\15\82\01\0B@\05a\00\C0\04PA\18\00\B0\01T\10\06\00\8C\00\15\84\01\00+@\05a\00\C0\0CPA\18\00\B0\03T\10\06\00\00\00\00\00q \00\00\11\00\00\002\0E\10\22\84\08\A2\09\98P\9F\80\0A\ED\0A\B8\B0\BE\80\0C\B3\0C\D8\F0\D8\80\0E\F4\0D\F8\E0\ED\80\10\91\10\18\91\0D\81\12\DF\128\11<\81\14\A5\14XqZ\81\16\A1\17x\91\9C\81\18\FB\1B\00\00\00\00\8B\0A8\F4\D7;\17b\99wKYXA{\DC\CB@\8FE\DE\CF\07\DCV\E1\B0\0F\00\00\00\00e\0C\00\00\CD\00\00\00\12\03\94h\06\00\00\00\02\00\00\00\D0\04\00\00.\00\00\00L\00\00\00\01\00\00\00X\00\00\00\00\00\00\00X\00\00\00\1E\00\00\00(\03\00\00\00\00\00\00\FE\04\00\00\18\00\00\00\16\05\00\00\16\00\00\00\07\00\00\00\00\00\00\00(\03\00\00\00\00\00\00\00\00\00\00\1E\00\00\00\00\00\00\008\00\00\00]\00\00\008\00\00\00]\00\00\00\FF\FF\FF\FF\000\00\00\95\00\00\00=\00\00\00\95\00\00\00=\00\00\00\FF\FF\FF\FF\000\00\00\D2\00\00\00d\00\00\00\D2\00\00\00d\00\00\00\FF\FF\FF\FF\000\00\006\01\00\00%\00\00\006\01\00\00%\00\00\00\FF\FF\FF\FF\000\00\00[\01\00\00(\00\00\00[\01\00\00(\00\00\00\FF\FF\FF\FF\000\00\00\83\01\00\00H\00\00\00\83\01\00\00H\00\00\00\FF\FF\FF\FF\000\00\00\CB\01\00\009\00\00\00\CB\01\00\009\00\00\00\FF\FF\FF\FF\000\00\00\04\02\00\00%\00\00\00\04\02\00\00%\00\00\00\FF\FF\FF\FF\000\00\00)\02\00\00&\00\00\00)\02\00\00&\00\00\00\FF\FF\FF\FF\000\00\00O\02\00\00\94\00\00\00O\02\00\00\94\00\00\00\FF\FF\FF\FF\000\00\00\E3\02\00\00f\00\00\00\E3\02\00\00f\00\00\00\FF\FF\FF\FF\000\00\00I\03\00\00E\00\00\00I\03\00\00E\00\00\00\FF\FF\FF\FF\000\00\00\8E\03\00\00b\00\00\00\8E\03\00\00b\00\00\00\FF\FF\FF\FF\004\00\00\F0\03\00\00\12\00\00\00\F0\03\00\00\12\00\00\00\FF\FF\FF\FF\004\00\00\02\04\00\00\18\00\00\00\02\04\00\00\18\00\00\00\FF\FF\FF\FF\004\00\00\1A\04\00\00\19\00\00\00\1A\04\00\00\19\00\00\00\FF\FF\FF\FF\004\00\003\04\00\00\14\00\00\003\04\00\00\14\00\00\00\FF\FF\FF\FF\004\00\00G\04\00\00\13\00\00\00G\04\00\00\13\00\00\00\FF\FF\FF\FF\084\00\00Z\04\00\00\18\00\00\00Z\04\00\00\18\00\00\00\FF\FF\FF\FF\08,\00\00r\04\00\00\16\00\00\00r\04\00\00\16\00\00\00\FF\FF\FF\FF\08,\00\00\88\04\00\00:\00\00\00\88\04\00\00:\00\00\00\FF\FF\FF\FF\084\00\00\C2\04\00\00\0E\00\00\00\C2\04\00\00\0E\00\00\00\FF\FF\FF\FF\08,\00\00,\05\00\00\09\00\00\00\00\00\00\00\07\00\00\00\FF\FF\FF\FF\00\18\00\005\05\00\00\09\00\00\00\07\00\00\00\07\00\00\00\FF\FF\FF\FF\00\18\00\00>\05\00\00\09\00\00\00\0E\00\00\00\07\00\00\00\FF\FF\FF\FF\00\18\00\00G\05\00\00\09\00\00\00\15\00\00\00\07\00\00\00\FF\FF\FF\FF\00\18\00\00P\05\00\00\09\00\00\00\1C\00\00\00\07\00\00\00\FF\FF\FF\FF\00\18\00\00Y\05\00\00\09\00\00\00#\00\00\00\07\00\00\00\FF\FF\FF\FF\00\18\00\00b\05\00\00\09\00\00\00*\00\00\00\07\00\00\00\FF\FF\FF\FF\00\18\00\00k\05\00\00\09\00\00\001\00\00\00\07\00\00\00\FF\FF\FF\FF\00\18\00\00\00\00\00\00]\0C\00\00`\01\00\00\12\03\94\F4\1A\00\00\00alloc35alloc22alloc26alloc28alloc30alloc32alloc34alloc36_ZN49_$LT$usize$u20$as$u20$core..iter..range..Step$GT$17forward_unchecked17hf3e4aa5239d3229aE_ZN4core10intrinsics19copy_nonoverlapping17h7d5aa160c6764310E_ZN4core3cmp5impls57_$LT$impl$u20$core..cmp..PartialOrd$u20$for$u20$usize$GT$2lt17h697d7385366f3475E_ZN4core3mem4swap17h0019af1984fcaf22E_ZN4core3mem7replace17hb0bd2fc33dce5fd7E_ZN4core3num23_$LT$impl$u20$usize$GT$13unchecked_add17he27be0fa2186d468E_ZN4core3ptr23swap_nonoverlapping_one17h1204eb3747e6079aE_ZN4core3ptr4read17hc073ae94adfeafbdE_ZN4core3ptr5write17h1c414429b6173125E_ZN4core4iter5range101_$LT$impl$u20$core..iter..traits..iterator..Iterator$u20$for$u20$core..ops..range..Range$LT$A$GT$$GT$4next17h4dbca16b0a93703cE_ZN4core5clone5impls54_$LT$impl$u20$core..clone..Clone$u20$for$u20$usize$GT$5clone17h5308b05db89f7c1fE_ZN4core5slice29_$LT$impl$u20$$u5b$T$u5d$$GT$3len17h04c456e3451ef474E_ZN63_$LT$I$u20$as$u20$core..iter..traits..collect..IntoIterator$GT$9into_iter17hef336c8a92dad622Ec_style_size_fixedc_style_input_size_fixedc_style_output_size_fixedc_style_unknown_sizerust_eh_personalityllvm.lifetime.start.p0i8llvm.lifetime.end.p0i8_ZN4core9panicking18panic_bounds_check17h566454b12ba8f623Ellvm.dbg.value9.0.1 3a0b17654ab1f63b7ef1b49c8c3d4d01214c93a4x86_64-unknown-linux-gnuexample.ceoy6l1x-cgu.0.Lalloc35.Lalloc22.Lalloc26.Lalloc28.Lalloc30.Lalloc32.Lalloc34.Lalloc36\00\00\00\00", section ".llvmbc"
@rustc.embedded.cmdline = private global [0 x i8] zeroinitializer, section ".llvmcmd"

; <usize as core::iter::range::Step>::forward_unchecked
; Function Attrs: inlinehint norecurse nounwind nonlazybind readnone uwtable
define internal fastcc i64 @"_ZN49_$LT$usize$u20$as$u20$core..iter..range..Step$GT$17forward_unchecked17hf3e4aa5239d3229aE"(i64 %start1) unnamed_addr #0 !dbg !6 {
start:
  call void @llvm.dbg.value(metadata i64 %start1, metadata !16, metadata !DIExpression()), !dbg !18
  call void @llvm.dbg.value(metadata i64 1, metadata !17, metadata !DIExpression()), !dbg !18
; call core::num::<impl usize>::unchecked_add
  %0 = tail call fastcc i64 @"_ZN4core3num23_$LT$impl$u20$usize$GT$13unchecked_add17he27be0fa2186d468E"(i64 %start1), !dbg !19
  ret i64 %0, !dbg !20
}

; core::intrinsics::copy_nonoverlapping
; Function Attrs: inlinehint nofree norecurse nounwind nonlazybind uwtable
define internal fastcc void @_ZN4core10intrinsics19copy_nonoverlapping17h7d5aa160c6764310E(i64* nocapture readonly %src, i64* nocapture %dst) unnamed_addr #1 !dbg !21 {
start:
  call void @llvm.dbg.value(metadata i64* %src, metadata !29, metadata !DIExpression()), !dbg !34
  call void @llvm.dbg.value(metadata i64* %dst, metadata !30, metadata !DIExpression()), !dbg !34
  call void @llvm.dbg.value(metadata i64 1, metadata !31, metadata !DIExpression()), !dbg !34
  %0 = load i64, i64* %src, align 8, !dbg !35
  store i64 %0, i64* %dst, align 8, !dbg !35
  ret void, !dbg !36
}

; core::cmp::impls::<impl core::cmp::PartialOrd for usize>::lt
; Function Attrs: inlinehint norecurse nounwind nonlazybind readonly uwtable
define internal fastcc zeroext i1 @"_ZN4core3cmp5impls57_$LT$impl$u20$core..cmp..PartialOrd$u20$for$u20$usize$GT$2lt17h697d7385366f3475E"(i64* noalias nocapture readonly align 8 dereferenceable(8) %self, i64* noalias nocapture readonly align 8 dereferenceable(8) %other) unnamed_addr #2 !dbg !37 {
start:
  call void @llvm.dbg.value(metadata i64* %self, metadata !47, metadata !DIExpression()), !dbg !49
  call void @llvm.dbg.value(metadata i64* %other, metadata !48, metadata !DIExpression()), !dbg !49
  %_3 = load i64, i64* %self, align 8, !dbg !50
  %_4 = load i64, i64* %other, align 8, !dbg !51
  %0 = icmp ult i64 %_3, %_4, !dbg !50
  ret i1 %0, !dbg !52
}

; core::mem::swap
; Function Attrs: inlinehint nounwind nonlazybind uwtable
define internal fastcc void @_ZN4core3mem4swap17h0019af1984fcaf22E(i64* nocapture align 8 dereferenceable(8) %x, i64* nocapture align 8 dereferenceable(8) %y) unnamed_addr #3 !dbg !53 {
start:
  call void @llvm.dbg.value(metadata i64* %x, metadata !60, metadata !DIExpression()), !dbg !62
  call void @llvm.dbg.value(metadata i64* %y, metadata !61, metadata !DIExpression()), !dbg !62
; call core::ptr::swap_nonoverlapping_one
  tail call fastcc void @_ZN4core3ptr23swap_nonoverlapping_one17h1204eb3747e6079aE(i64* nonnull %x, i64* nonnull %y), !dbg !63
  ret void, !dbg !64
}

; core::mem::replace
; Function Attrs: inlinehint nounwind nonlazybind uwtable
define internal fastcc i64 @_ZN4core3mem7replace17hb0bd2fc33dce5fd7E(i64* nocapture align 8 dereferenceable(8) %dest, i64) unnamed_addr #3 personality i32 (i32, i32, i64, %"unwind::libunwind::_Unwind_Exception"*, %"unwind::libunwind::_Unwind_Context"*)* @rust_eh_personality !dbg !65 {
start:
  %src = alloca i64, align 8
  call void @llvm.dbg.value(metadata i64 %0, metadata !70, metadata !DIExpression()), !dbg !71
  store i64 %0, i64* %src, align 8
  call void @llvm.dbg.value(metadata i64* %dest, metadata !69, metadata !DIExpression()), !dbg !71
; call core::mem::swap
  call fastcc void @_ZN4core3mem4swap17h0019af1984fcaf22E(i64* nonnull align 8 dereferenceable(8) %dest, i64* nonnull align 8 dereferenceable(8) %src), !dbg !72
  %1 = load i64, i64* %src, align 8, !dbg !73
  call void @llvm.dbg.value(metadata i64 %1, metadata !70, metadata !DIExpression()), !dbg !71
  ret i64 %1, !dbg !74
}

; core::num::<impl usize>::unchecked_add
; Function Attrs: inlinehint norecurse nounwind nonlazybind readnone uwtable
define internal fastcc i64 @"_ZN4core3num23_$LT$impl$u20$usize$GT$13unchecked_add17he27be0fa2186d468E"(i64 %self) unnamed_addr #0 !dbg !75 {
start:
  call void @llvm.dbg.value(metadata i64 %self, metadata !80, metadata !DIExpression()), !dbg !82
  call void @llvm.dbg.value(metadata i64 1, metadata !81, metadata !DIExpression()), !dbg !82
  %0 = add nuw i64 %self, 1, !dbg !83
  ret i64 %0, !dbg !84
}

; core::ptr::swap_nonoverlapping_one
; Function Attrs: inlinehint nounwind nonlazybind uwtable
define internal fastcc void @_ZN4core3ptr23swap_nonoverlapping_one17h1204eb3747e6079aE(i64* nocapture %x, i64* nocapture %y) unnamed_addr #3 personality i32 (i32, i32, i64, %"unwind::libunwind::_Unwind_Exception"*, %"unwind::libunwind::_Unwind_Context"*)* @rust_eh_personality !dbg !85 {
start:
  call void @llvm.dbg.value(metadata i64* %x, metadata !91, metadata !DIExpression()), !dbg !95
  call void @llvm.dbg.value(metadata i64* %y, metadata !92, metadata !DIExpression()), !dbg !95
; call core::ptr::read
  %z = tail call fastcc i64 @_ZN4core3ptr4read17hc073ae94adfeafbdE(i64* %x), !dbg !96
  call void @llvm.dbg.value(metadata i64 %z, metadata !93, metadata !DIExpression()), !dbg !97
; call core::intrinsics::copy_nonoverlapping
  tail call fastcc void @_ZN4core10intrinsics19copy_nonoverlapping17h7d5aa160c6764310E(i64* %y, i64* %x), !dbg !98
; call core::ptr::write
  tail call fastcc void @_ZN4core3ptr5write17h1c414429b6173125E(i64* %y, i64 %z), !dbg !99
  ret void, !dbg !100
}

; core::ptr::read
; Function Attrs: inlinehint nounwind nonlazybind uwtable
define internal fastcc i64 @_ZN4core3ptr4read17hc073ae94adfeafbdE(i64* nocapture readonly %src) unnamed_addr #3 !dbg !101 {
start:
  %tmp = alloca i64, align 8
  call void @llvm.dbg.value(metadata i64* %src, metadata !105, metadata !DIExpression()), !dbg !119
  %0 = bitcast i64* %tmp to i8*, !dbg !120
  call void @llvm.lifetime.start.p0i8(i64 8, i8* nonnull %0), !dbg !120
  call void @llvm.dbg.value(metadata i64 undef, metadata !106, metadata !DIExpression()), !dbg !121
  call void @llvm.dbg.value(metadata i64* %tmp, metadata !106, metadata !DIExpression(DW_OP_deref)), !dbg !121
; call core::intrinsics::copy_nonoverlapping
  call fastcc void @_ZN4core10intrinsics19copy_nonoverlapping17h7d5aa160c6764310E(i64* %src, i64* nonnull %tmp), !dbg !122
  %_7 = load i64, i64* %tmp, align 8, !dbg !123
  call void @llvm.dbg.value(metadata i64 %_7, metadata !106, metadata !DIExpression()), !dbg !121
  call void @llvm.lifetime.end.p0i8(i64 8, i8* nonnull %0), !dbg !124
  ret i64 %_7, !dbg !125
}

; core::ptr::write
; Function Attrs: inlinehint nofree norecurse nounwind nonlazybind uwtable writeonly
define internal fastcc void @_ZN4core3ptr5write17h1c414429b6173125E(i64* nocapture %dst, i64 %src) unnamed_addr #4 !dbg !126 {
start:
  call void @llvm.dbg.value(metadata i64* %dst, metadata !130, metadata !DIExpression()), !dbg !132
  call void @llvm.dbg.value(metadata i64 %src, metadata !131, metadata !DIExpression()), !dbg !132
  store i64 %src, i64* %dst, align 8, !dbg !133
  ret void, !dbg !134
}

; core::iter::range::<impl core::iter::traits::iterator::Iterator for core::ops::range::Range<A>>::next
; Function Attrs: inlinehint nounwind nonlazybind uwtable
define internal fastcc { i64, i64 } @"_ZN4core4iter5range101_$LT$impl$u20$core..iter..traits..iterator..Iterator$u20$for$u20$core..ops..range..Range$LT$A$GT$$GT$4next17h4dbca16b0a93703cE"({ i64, i64 }* nocapture align 8 dereferenceable(16) %self) unnamed_addr #3 !dbg !135 {
start:
  call void @llvm.dbg.value(metadata { i64, i64 }* %self, metadata !161, metadata !DIExpression()), !dbg !166
  %_3 = getelementptr inbounds { i64, i64 }, { i64, i64 }* %self, i64 0, i32 0, !dbg !167
  %_4 = getelementptr inbounds { i64, i64 }, { i64, i64 }* %self, i64 0, i32 1, !dbg !168
; call core::cmp::impls::<impl core::cmp::PartialOrd for usize>::lt
  %_2 = tail call fastcc zeroext i1 @"_ZN4core3cmp5impls57_$LT$impl$u20$core..cmp..PartialOrd$u20$for$u20$usize$GT$2lt17h697d7385366f3475E"(i64* noalias nonnull readonly align 8 dereferenceable(8) %_3, i64* noalias nonnull readonly align 8 dereferenceable(8) %_4), !dbg !167
  br i1 %_2, label %bb3, label %bb7, !dbg !169

bb3:                                              ; preds = %start
; call core::clone::impls::<impl core::clone::Clone for usize>::clone
  %_6 = tail call fastcc i64 @"_ZN4core5clone5impls54_$LT$impl$u20$core..clone..Clone$u20$for$u20$usize$GT$5clone17h5308b05db89f7c1fE"(i64* noalias nonnull readonly align 8 dereferenceable(8) %_3), !dbg !170
; call <usize as core::iter::range::Step>::forward_unchecked
  %n = tail call fastcc i64 @"_ZN49_$LT$usize$u20$as$u20$core..iter..range..Step$GT$17forward_unchecked17hf3e4aa5239d3229aE"(i64 %_6), !dbg !171
  call void @llvm.dbg.value(metadata i64 %n, metadata !162, metadata !DIExpression()), !dbg !172
; call core::mem::replace
  %_8 = tail call fastcc i64 @_ZN4core3mem7replace17hb0bd2fc33dce5fd7E(i64* nonnull align 8 dereferenceable(8) %_3, i64 %n), !dbg !173
  br label %bb7, !dbg !169

bb7:                                              ; preds = %start, %bb3
  %.sroa.3.0 = phi i64 [ %_8, %bb3 ], [ undef, %start ]
  %.sroa.0.0 = phi i64 [ 1, %bb3 ], [ 0, %start ], !dbg !166
  %0 = insertvalue { i64, i64 } undef, i64 %.sroa.0.0, 0, !dbg !174
  %1 = insertvalue { i64, i64 } %0, i64 %.sroa.3.0, 1, !dbg !174
  ret { i64, i64 } %1, !dbg !174
}

; core::clone::impls::<impl core::clone::Clone for usize>::clone
; Function Attrs: inlinehint norecurse nounwind nonlazybind readonly uwtable
define internal fastcc i64 @"_ZN4core5clone5impls54_$LT$impl$u20$core..clone..Clone$u20$for$u20$usize$GT$5clone17h5308b05db89f7c1fE"(i64* noalias nocapture readonly align 8 dereferenceable(8) %self) unnamed_addr #2 !dbg !175 {
start:
  call void @llvm.dbg.value(metadata i64* %self, metadata !183, metadata !DIExpression()), !dbg !184
  %0 = load i64, i64* %self, align 8, !dbg !185
  ret i64 %0, !dbg !186
}

; core::slice::<impl [T]>::len
; Function Attrs: inlinehint norecurse nounwind nonlazybind readnone uwtable
define internal fastcc i64 @"_ZN4core5slice29_$LT$impl$u20$$u5b$T$u5d$$GT$3len17h04c456e3451ef474E"(i64 returned %self.1) unnamed_addr #0 !dbg !187 {
start:
  call void @llvm.dbg.value(metadata [0 x i8]* undef, metadata !200, metadata !DIExpression(DW_OP_LLVM_fragment, 0, 64)), !dbg !203
  call void @llvm.dbg.value(metadata i64 %self.1, metadata !200, metadata !DIExpression(DW_OP_LLVM_fragment, 64, 64)), !dbg !203
  ret i64 %self.1, !dbg !204
}

; <I as core::iter::traits::collect::IntoIterator>::into_iter
; Function Attrs: norecurse nounwind nonlazybind readnone uwtable
define { i64, i64 } @"_ZN63_$LT$I$u20$as$u20$core..iter..traits..collect..IntoIterator$GT$9into_iter17hef336c8a92dad622E"(i64 %self.0, i64 %self.1) unnamed_addr #5 !dbg !205 {
start:
  call void @llvm.dbg.value(metadata i64 %self.0, metadata !213, metadata !DIExpression(DW_OP_LLVM_fragment, 0, 64)), !dbg !216
  call void @llvm.dbg.value(metadata i64 %self.1, metadata !213, metadata !DIExpression(DW_OP_LLVM_fragment, 64, 64)), !dbg !216
  %0 = insertvalue { i64, i64 } undef, i64 %self.0, 0, !dbg !217
  %1 = insertvalue { i64, i64 } %0, i64 %self.1, 1, !dbg !217
  ret { i64, i64 } %1, !dbg !217
}

; Function Attrs: nonlazybind uwtable
define void @c_style_size_fixed([320000 x i8]* noalias nocapture readonly align 1 dereferenceable(320000) %input, [320000 x i8]* nocapture align 1 dereferenceable(320000) %output) unnamed_addr #6 !dbg !218 {
start:
  %iter = alloca { i64, i64 }, align 8
  call void @llvm.dbg.value(metadata [320000 x i8]* %input, metadata !229, metadata !DIExpression()), !dbg !239
  call void @llvm.dbg.value(metadata [320000 x i8]* %output, metadata !230, metadata !DIExpression()), !dbg !239
; call <I as core::iter::traits::collect::IntoIterator>::into_iter
  %0 = tail call { i64, i64 } @"_ZN63_$LT$I$u20$as$u20$core..iter..traits..collect..IntoIterator$GT$9into_iter17hef336c8a92dad622E"(i64 0, i64 320000), !dbg !240
  %_3.0 = extractvalue { i64, i64 } %0, 0, !dbg !240
  %_3.1 = extractvalue { i64, i64 } %0, 1, !dbg !240
  %1 = bitcast { i64, i64 }* %iter to i8*, !dbg !240
  call void @llvm.lifetime.start.p0i8(i64 16, i8* nonnull %1), !dbg !240
  %2 = getelementptr inbounds { i64, i64 }, { i64, i64 }* %iter, i64 0, i32 0, !dbg !240
  store i64 %_3.0, i64* %2, align 8, !dbg !240
  %3 = getelementptr inbounds { i64, i64 }, { i64, i64 }* %iter, i64 0, i32 1, !dbg !240
  store i64 %_3.1, i64* %3, align 8, !dbg !240
  call void @llvm.dbg.value(metadata { i64, i64 }* %iter, metadata !231, metadata !DIExpression(DW_OP_deref)), !dbg !241
; call core::iter::range::<impl core::iter::traits::iterator::Iterator for core::ops::range::Range<A>>::next
  %4 = call fastcc { i64, i64 } @"_ZN4core4iter5range101_$LT$impl$u20$core..iter..traits..iterator..Iterator$u20$for$u20$core..ops..range..Range$LT$A$GT$$GT$4next17h4dbca16b0a93703cE"({ i64, i64 }* nonnull align 8 dereferenceable(16) %iter), !dbg !242
  %.fca.0.extract9 = extractvalue { i64, i64 } %4, 0, !dbg !242
  %switch11 = icmp eq i64 %.fca.0.extract9, 0, !dbg !243
  br i1 %switch11, label %bb5, label %bb7.preheader, !dbg !243

bb7.preheader:                                    ; preds = %start
  %.fca.1.extract10 = extractvalue { i64, i64 } %4, 1, !dbg !242
  br label %bb7, !dbg !244

bb5:                                              ; preds = %bb9, %start
  call void @llvm.lifetime.end.p0i8(i64 16, i8* nonnull %1), !dbg !245
  ret void, !dbg !246

bb7:                                              ; preds = %bb7.preheader, %bb9
  %.fca.1.extract12 = phi i64 [ %.fca.1.extract, %bb9 ], [ %.fca.1.extract10, %bb7.preheader ]
  call void @llvm.dbg.value(metadata i64 %.fca.1.extract12, metadata !233, metadata !DIExpression()), !dbg !247
  call void @llvm.dbg.value(metadata i64 %.fca.1.extract12, metadata !237, metadata !DIExpression()), !dbg !248
  %_20 = icmp ult i64 %.fca.1.extract12, 320000, !dbg !244
  br i1 %_20, label %bb9, label %panic, !dbg !244, !prof !249

bb9:                                              ; preds = %bb7
  %5 = getelementptr inbounds [320000 x i8], [320000 x i8]* %input, i64 0, i64 %.fca.1.extract12, !dbg !244
  %_17 = load i8, i8* %5, align 1, !dbg !244
  %6 = getelementptr inbounds [320000 x i8], [320000 x i8]* %output, i64 0, i64 %.fca.1.extract12, !dbg !250
  store i8 %_17, i8* %6, align 1, !dbg !250
  call void @llvm.dbg.value(metadata { i64, i64 }* %iter, metadata !231, metadata !DIExpression(DW_OP_deref)), !dbg !241
; call core::iter::range::<impl core::iter::traits::iterator::Iterator for core::ops::range::Range<A>>::next
  %7 = call fastcc { i64, i64 } @"_ZN4core4iter5range101_$LT$impl$u20$core..iter..traits..iterator..Iterator$u20$for$u20$core..ops..range..Range$LT$A$GT$$GT$4next17h4dbca16b0a93703cE"({ i64, i64 }* nonnull align 8 dereferenceable(16) %iter), !dbg !242
  %.fca.0.extract = extractvalue { i64, i64 } %7, 0, !dbg !242
  %.fca.1.extract = extractvalue { i64, i64 } %7, 1, !dbg !242
  %switch = icmp eq i64 %.fca.0.extract, 0, !dbg !243
  br i1 %switch, label %bb5, label %bb7, !dbg !243

panic:                                            ; preds = %bb7
  call void @llvm.dbg.value(metadata i64 %.fca.1.extract12, metadata !233, metadata !DIExpression()), !dbg !247
  call void @llvm.dbg.value(metadata i64 %.fca.1.extract12, metadata !233, metadata !DIExpression()), !dbg !247
  call void @llvm.dbg.value(metadata i64 %.fca.1.extract12, metadata !233, metadata !DIExpression()), !dbg !247
; call core::panicking::panic_bounds_check
  tail call void @_ZN4core9panicking18panic_bounds_check17h566454b12ba8f623E(i64 %.fca.1.extract12, i64 320000, %"core::panic::Location"* noalias readonly align 8 dereferenceable(24) bitcast (<{ i8*, [16 x i8] }>* @alloc22 to %"core::panic::Location"*)), !dbg !244
  unreachable, !dbg !244
}

; Function Attrs: nonlazybind uwtable
define void @c_style_input_size_fixed([320000 x i8]* noalias nocapture readonly align 1 dereferenceable(320000) %input, [0 x i8]* nocapture nonnull align 1 %output.0, i64 %output.1) unnamed_addr #6 !dbg !251 {
start:
  %iter = alloca { i64, i64 }, align 8
  call void @llvm.dbg.value(metadata [320000 x i8]* %input, metadata !259, metadata !DIExpression()), !dbg !269
  call void @llvm.dbg.value(metadata [0 x i8]* %output.0, metadata !260, metadata !DIExpression(DW_OP_LLVM_fragment, 0, 64)), !dbg !269
  call void @llvm.dbg.value(metadata i64 %output.1, metadata !260, metadata !DIExpression(DW_OP_LLVM_fragment, 64, 64)), !dbg !269
; call <I as core::iter::traits::collect::IntoIterator>::into_iter
  %0 = tail call { i64, i64 } @"_ZN63_$LT$I$u20$as$u20$core..iter..traits..collect..IntoIterator$GT$9into_iter17hef336c8a92dad622E"(i64 0, i64 320000), !dbg !270
  %_3.0 = extractvalue { i64, i64 } %0, 0, !dbg !270
  %_3.1 = extractvalue { i64, i64 } %0, 1, !dbg !270
  %1 = bitcast { i64, i64 }* %iter to i8*, !dbg !270
  call void @llvm.lifetime.start.p0i8(i64 16, i8* nonnull %1), !dbg !270
  %2 = getelementptr inbounds { i64, i64 }, { i64, i64 }* %iter, i64 0, i32 0, !dbg !270
  store i64 %_3.0, i64* %2, align 8, !dbg !270
  %3 = getelementptr inbounds { i64, i64 }, { i64, i64 }* %iter, i64 0, i32 1, !dbg !270
  store i64 %_3.1, i64* %3, align 8, !dbg !270
  call void @llvm.dbg.value(metadata { i64, i64 }* %iter, metadata !261, metadata !DIExpression(DW_OP_deref)), !dbg !271
; call core::iter::range::<impl core::iter::traits::iterator::Iterator for core::ops::range::Range<A>>::next
  %4 = call fastcc { i64, i64 } @"_ZN4core4iter5range101_$LT$impl$u20$core..iter..traits..iterator..Iterator$u20$for$u20$core..ops..range..Range$LT$A$GT$$GT$4next17h4dbca16b0a93703cE"({ i64, i64 }* nonnull align 8 dereferenceable(16) %iter), !dbg !272
  %.fca.0.extract10 = extractvalue { i64, i64 } %4, 0, !dbg !272
  %switch12 = icmp eq i64 %.fca.0.extract10, 0, !dbg !273
  br i1 %switch12, label %bb5, label %bb7.preheader, !dbg !273

bb7.preheader:                                    ; preds = %start
  %.fca.1.extract11 = extractvalue { i64, i64 } %4, 1, !dbg !272
  br label %bb7, !dbg !274

bb5:                                              ; preds = %bb9, %start
  call void @llvm.lifetime.end.p0i8(i64 16, i8* nonnull %1), !dbg !275
  ret void, !dbg !276

bb7:                                              ; preds = %bb7.preheader, %bb9
  %.fca.1.extract13 = phi i64 [ %.fca.1.extract, %bb9 ], [ %.fca.1.extract11, %bb7.preheader ]
  call void @llvm.dbg.value(metadata i64 %.fca.1.extract13, metadata !263, metadata !DIExpression()), !dbg !277
  call void @llvm.dbg.value(metadata i64 %.fca.1.extract13, metadata !267, metadata !DIExpression()), !dbg !278
  %_20 = icmp ult i64 %.fca.1.extract13, 320000, !dbg !274
  br i1 %_20, label %bb8, label %panic, !dbg !274, !prof !249

bb8:                                              ; preds = %bb7
  %_23 = icmp ult i64 %.fca.1.extract13, %output.1, !dbg !279
  br i1 %_23, label %bb9, label %panic1, !dbg !279, !prof !249

bb9:                                              ; preds = %bb8
  %5 = getelementptr inbounds [320000 x i8], [320000 x i8]* %input, i64 0, i64 %.fca.1.extract13, !dbg !274
  %_17 = load i8, i8* %5, align 1, !dbg !274
  %6 = getelementptr inbounds [0 x i8], [0 x i8]* %output.0, i64 0, i64 %.fca.1.extract13, !dbg !279
  store i8 %_17, i8* %6, align 1, !dbg !279
  call void @llvm.dbg.value(metadata { i64, i64 }* %iter, metadata !261, metadata !DIExpression(DW_OP_deref)), !dbg !271
; call core::iter::range::<impl core::iter::traits::iterator::Iterator for core::ops::range::Range<A>>::next
  %7 = call fastcc { i64, i64 } @"_ZN4core4iter5range101_$LT$impl$u20$core..iter..traits..iterator..Iterator$u20$for$u20$core..ops..range..Range$LT$A$GT$$GT$4next17h4dbca16b0a93703cE"({ i64, i64 }* nonnull align 8 dereferenceable(16) %iter), !dbg !272
  %.fca.0.extract = extractvalue { i64, i64 } %7, 0, !dbg !272
  %.fca.1.extract = extractvalue { i64, i64 } %7, 1, !dbg !272
  %switch = icmp eq i64 %.fca.0.extract, 0, !dbg !273
  br i1 %switch, label %bb5, label %bb7, !dbg !273

panic:                                            ; preds = %bb7
  call void @llvm.dbg.value(metadata i64 %.fca.1.extract13, metadata !263, metadata !DIExpression()), !dbg !277
  call void @llvm.dbg.value(metadata i64 %.fca.1.extract13, metadata !263, metadata !DIExpression()), !dbg !277
  call void @llvm.dbg.value(metadata i64 %.fca.1.extract13, metadata !263, metadata !DIExpression()), !dbg !277
; call core::panicking::panic_bounds_check
  tail call void @_ZN4core9panicking18panic_bounds_check17h566454b12ba8f623E(i64 %.fca.1.extract13, i64 320000, %"core::panic::Location"* noalias readonly align 8 dereferenceable(24) bitcast (<{ i8*, [16 x i8] }>* @alloc26 to %"core::panic::Location"*)), !dbg !274
  unreachable, !dbg !274

panic1:                                           ; preds = %bb8
  call void @llvm.dbg.value(metadata i64 %.fca.1.extract13, metadata !263, metadata !DIExpression()), !dbg !277
  call void @llvm.dbg.value(metadata i64 %.fca.1.extract13, metadata !263, metadata !DIExpression()), !dbg !277
  call void @llvm.dbg.value(metadata i64 %.fca.1.extract13, metadata !263, metadata !DIExpression()), !dbg !277
; call core::panicking::panic_bounds_check
  tail call void @_ZN4core9panicking18panic_bounds_check17h566454b12ba8f623E(i64 %.fca.1.extract13, i64 %output.1, %"core::panic::Location"* noalias readonly align 8 dereferenceable(24) bitcast (<{ i8*, [16 x i8] }>* @alloc28 to %"core::panic::Location"*)), !dbg !279
  unreachable, !dbg !279
}

; Function Attrs: nonlazybind uwtable
define void @c_style_output_size_fixed([0 x i8]* noalias nocapture nonnull readonly align 1 %input.0, i64 %input.1, [320000 x i8]* nocapture align 1 dereferenceable(320000) %output) unnamed_addr #6 !dbg !280 {
start:
  %iter = alloca { i64, i64 }, align 8
  call void @llvm.dbg.value(metadata [0 x i8]* %input.0, metadata !284, metadata !DIExpression(DW_OP_LLVM_fragment, 0, 64)), !dbg !294
  call void @llvm.dbg.value(metadata i64 %input.1, metadata !284, metadata !DIExpression(DW_OP_LLVM_fragment, 64, 64)), !dbg !294
  call void @llvm.dbg.value(metadata [320000 x i8]* %output, metadata !285, metadata !DIExpression()), !dbg !294
; call core::slice::<impl [T]>::len
  %_5 = tail call fastcc i64 @"_ZN4core5slice29_$LT$impl$u20$$u5b$T$u5d$$GT$3len17h04c456e3451ef474E"(i64 %input.1), !dbg !295
; call <I as core::iter::traits::collect::IntoIterator>::into_iter
  %0 = tail call { i64, i64 } @"_ZN63_$LT$I$u20$as$u20$core..iter..traits..collect..IntoIterator$GT$9into_iter17hef336c8a92dad622E"(i64 0, i64 %_5), !dbg !296
  %_3.0 = extractvalue { i64, i64 } %0, 0, !dbg !296
  %_3.1 = extractvalue { i64, i64 } %0, 1, !dbg !296
  %1 = bitcast { i64, i64 }* %iter to i8*, !dbg !296
  call void @llvm.lifetime.start.p0i8(i64 16, i8* nonnull %1), !dbg !296
  %2 = getelementptr inbounds { i64, i64 }, { i64, i64 }* %iter, i64 0, i32 0, !dbg !296
  store i64 %_3.0, i64* %2, align 8, !dbg !296
  %3 = getelementptr inbounds { i64, i64 }, { i64, i64 }* %iter, i64 0, i32 1, !dbg !296
  store i64 %_3.1, i64* %3, align 8, !dbg !296
  call void @llvm.dbg.value(metadata { i64, i64 }* %iter, metadata !286, metadata !DIExpression(DW_OP_deref)), !dbg !297
; call core::iter::range::<impl core::iter::traits::iterator::Iterator for core::ops::range::Range<A>>::next
  %4 = call fastcc { i64, i64 } @"_ZN4core4iter5range101_$LT$impl$u20$core..iter..traits..iterator..Iterator$u20$for$u20$core..ops..range..Range$LT$A$GT$$GT$4next17h4dbca16b0a93703cE"({ i64, i64 }* nonnull align 8 dereferenceable(16) %iter), !dbg !298
  %.fca.0.extract10 = extractvalue { i64, i64 } %4, 0, !dbg !298
  %switch12 = icmp eq i64 %.fca.0.extract10, 0, !dbg !299
  br i1 %switch12, label %bb5, label %bb7.preheader, !dbg !299

bb7.preheader:                                    ; preds = %start
  %.fca.1.extract11 = extractvalue { i64, i64 } %4, 1, !dbg !298
  br label %bb7, !dbg !300

bb5:                                              ; preds = %bb9, %start
  call void @llvm.lifetime.end.p0i8(i64 16, i8* nonnull %1), !dbg !301
  ret void, !dbg !302

bb7:                                              ; preds = %bb7.preheader, %bb9
  %.fca.1.extract13 = phi i64 [ %.fca.1.extract, %bb9 ], [ %.fca.1.extract11, %bb7.preheader ]
  call void @llvm.dbg.value(metadata i64 %.fca.1.extract13, metadata !288, metadata !DIExpression()), !dbg !303
  call void @llvm.dbg.value(metadata i64 %.fca.1.extract13, metadata !292, metadata !DIExpression()), !dbg !304
  %_19 = icmp ult i64 %.fca.1.extract13, %input.1, !dbg !300
  br i1 %_19, label %bb8, label %panic, !dbg !300, !prof !249

bb8:                                              ; preds = %bb7
  %_22 = icmp ult i64 %.fca.1.extract13, 320000, !dbg !305
  br i1 %_22, label %bb9, label %panic1, !dbg !305, !prof !249

bb9:                                              ; preds = %bb8
  %5 = getelementptr inbounds [0 x i8], [0 x i8]* %input.0, i64 0, i64 %.fca.1.extract13, !dbg !300
  %_16 = load i8, i8* %5, align 1, !dbg !300
  %6 = getelementptr inbounds [320000 x i8], [320000 x i8]* %output, i64 0, i64 %.fca.1.extract13, !dbg !305
  store i8 %_16, i8* %6, align 1, !dbg !305
  call void @llvm.dbg.value(metadata { i64, i64 }* %iter, metadata !286, metadata !DIExpression(DW_OP_deref)), !dbg !297
; call core::iter::range::<impl core::iter::traits::iterator::Iterator for core::ops::range::Range<A>>::next
  %7 = call fastcc { i64, i64 } @"_ZN4core4iter5range101_$LT$impl$u20$core..iter..traits..iterator..Iterator$u20$for$u20$core..ops..range..Range$LT$A$GT$$GT$4next17h4dbca16b0a93703cE"({ i64, i64 }* nonnull align 8 dereferenceable(16) %iter), !dbg !298
  %.fca.0.extract = extractvalue { i64, i64 } %7, 0, !dbg !298
  %.fca.1.extract = extractvalue { i64, i64 } %7, 1, !dbg !298
  %switch = icmp eq i64 %.fca.0.extract, 0, !dbg !299
  br i1 %switch, label %bb5, label %bb7, !dbg !299

panic:                                            ; preds = %bb7
  call void @llvm.dbg.value(metadata i64 %.fca.1.extract13, metadata !288, metadata !DIExpression()), !dbg !303
  call void @llvm.dbg.value(metadata i64 %.fca.1.extract13, metadata !288, metadata !DIExpression()), !dbg !303
  call void @llvm.dbg.value(metadata i64 %.fca.1.extract13, metadata !288, metadata !DIExpression()), !dbg !303
; call core::panicking::panic_bounds_check
  tail call void @_ZN4core9panicking18panic_bounds_check17h566454b12ba8f623E(i64 %.fca.1.extract13, i64 %input.1, %"core::panic::Location"* noalias readonly align 8 dereferenceable(24) bitcast (<{ i8*, [16 x i8] }>* @alloc30 to %"core::panic::Location"*)), !dbg !300
  unreachable, !dbg !300

panic1:                                           ; preds = %bb8
  call void @llvm.dbg.value(metadata i64 %.fca.1.extract13, metadata !288, metadata !DIExpression()), !dbg !303
  call void @llvm.dbg.value(metadata i64 %.fca.1.extract13, metadata !288, metadata !DIExpression()), !dbg !303
  call void @llvm.dbg.value(metadata i64 %.fca.1.extract13, metadata !288, metadata !DIExpression()), !dbg !303
; call core::panicking::panic_bounds_check
  tail call void @_ZN4core9panicking18panic_bounds_check17h566454b12ba8f623E(i64 %.fca.1.extract13, i64 320000, %"core::panic::Location"* noalias readonly align 8 dereferenceable(24) bitcast (<{ i8*, [16 x i8] }>* @alloc32 to %"core::panic::Location"*)), !dbg !305
  unreachable, !dbg !305
}

; Function Attrs: nonlazybind uwtable
define void @c_style_unknown_size([0 x i8]* noalias nocapture nonnull readonly align 1 %input.0, i64 %input.1, [0 x i8]* nocapture nonnull align 1 %output.0, i64 %output.1) unnamed_addr #6 !dbg !306 {
start:
  %iter = alloca { i64, i64 }, align 8
  call void @llvm.dbg.value(metadata [0 x i8]* %input.0, metadata !310, metadata !DIExpression(DW_OP_LLVM_fragment, 0, 64)), !dbg !320
  call void @llvm.dbg.value(metadata i64 %input.1, metadata !310, metadata !DIExpression(DW_OP_LLVM_fragment, 64, 64)), !dbg !320
  call void @llvm.dbg.value(metadata [0 x i8]* %output.0, metadata !311, metadata !DIExpression(DW_OP_LLVM_fragment, 0, 64)), !dbg !320
  call void @llvm.dbg.value(metadata i64 %output.1, metadata !311, metadata !DIExpression(DW_OP_LLVM_fragment, 64, 64)), !dbg !320
; call core::slice::<impl [T]>::len
  %_5 = tail call fastcc i64 @"_ZN4core5slice29_$LT$impl$u20$$u5b$T$u5d$$GT$3len17h04c456e3451ef474E"(i64 %input.1), !dbg !321
; call <I as core::iter::traits::collect::IntoIterator>::into_iter
  %0 = tail call { i64, i64 } @"_ZN63_$LT$I$u20$as$u20$core..iter..traits..collect..IntoIterator$GT$9into_iter17hef336c8a92dad622E"(i64 0, i64 %_5), !dbg !322
  %_3.0 = extractvalue { i64, i64 } %0, 0, !dbg !322
  %_3.1 = extractvalue { i64, i64 } %0, 1, !dbg !322
  %1 = bitcast { i64, i64 }* %iter to i8*, !dbg !322
  call void @llvm.lifetime.start.p0i8(i64 16, i8* nonnull %1), !dbg !322
  %2 = getelementptr inbounds { i64, i64 }, { i64, i64 }* %iter, i64 0, i32 0, !dbg !322
  store i64 %_3.0, i64* %2, align 8, !dbg !322
  %3 = getelementptr inbounds { i64, i64 }, { i64, i64 }* %iter, i64 0, i32 1, !dbg !322
  store i64 %_3.1, i64* %3, align 8, !dbg !322
  call void @llvm.dbg.value(metadata { i64, i64 }* %iter, metadata !312, metadata !DIExpression(DW_OP_deref)), !dbg !323
; call core::iter::range::<impl core::iter::traits::iterator::Iterator for core::ops::range::Range<A>>::next
  %4 = call fastcc { i64, i64 } @"_ZN4core4iter5range101_$LT$impl$u20$core..iter..traits..iterator..Iterator$u20$for$u20$core..ops..range..Range$LT$A$GT$$GT$4next17h4dbca16b0a93703cE"({ i64, i64 }* nonnull align 8 dereferenceable(16) %iter), !dbg !324
  %.fca.0.extract10 = extractvalue { i64, i64 } %4, 0, !dbg !324
  %switch12 = icmp eq i64 %.fca.0.extract10, 0, !dbg !325
  br i1 %switch12, label %bb5, label %bb7.preheader, !dbg !325

bb7.preheader:                                    ; preds = %start
  %.fca.1.extract11 = extractvalue { i64, i64 } %4, 1, !dbg !324
  br label %bb7, !dbg !326

bb5:                                              ; preds = %bb9, %start
  call void @llvm.lifetime.end.p0i8(i64 16, i8* nonnull %1), !dbg !327
  ret void, !dbg !328

bb7:                                              ; preds = %bb7.preheader, %bb9
  %.fca.1.extract13 = phi i64 [ %.fca.1.extract, %bb9 ], [ %.fca.1.extract11, %bb7.preheader ]
  call void @llvm.dbg.value(metadata i64 %.fca.1.extract13, metadata !314, metadata !DIExpression()), !dbg !329
  call void @llvm.dbg.value(metadata i64 %.fca.1.extract13, metadata !318, metadata !DIExpression()), !dbg !330
  %_19 = icmp ult i64 %.fca.1.extract13, %input.1, !dbg !326
  br i1 %_19, label %bb8, label %panic, !dbg !326, !prof !249

bb8:                                              ; preds = %bb7
  %_22 = icmp ult i64 %.fca.1.extract13, %output.1, !dbg !331
  br i1 %_22, label %bb9, label %panic1, !dbg !331, !prof !249

bb9:                                              ; preds = %bb8
  %5 = getelementptr inbounds [0 x i8], [0 x i8]* %input.0, i64 0, i64 %.fca.1.extract13, !dbg !326
  %_16 = load i8, i8* %5, align 1, !dbg !326
  %6 = getelementptr inbounds [0 x i8], [0 x i8]* %output.0, i64 0, i64 %.fca.1.extract13, !dbg !331
  store i8 %_16, i8* %6, align 1, !dbg !331
  call void @llvm.dbg.value(metadata { i64, i64 }* %iter, metadata !312, metadata !DIExpression(DW_OP_deref)), !dbg !323
; call core::iter::range::<impl core::iter::traits::iterator::Iterator for core::ops::range::Range<A>>::next
  %7 = call fastcc { i64, i64 } @"_ZN4core4iter5range101_$LT$impl$u20$core..iter..traits..iterator..Iterator$u20$for$u20$core..ops..range..Range$LT$A$GT$$GT$4next17h4dbca16b0a93703cE"({ i64, i64 }* nonnull align 8 dereferenceable(16) %iter), !dbg !324
  %.fca.0.extract = extractvalue { i64, i64 } %7, 0, !dbg !324
  %.fca.1.extract = extractvalue { i64, i64 } %7, 1, !dbg !324
  %switch = icmp eq i64 %.fca.0.extract, 0, !dbg !325
  br i1 %switch, label %bb5, label %bb7, !dbg !325

panic:                                            ; preds = %bb7
  call void @llvm.dbg.value(metadata i64 %.fca.1.extract13, metadata !314, metadata !DIExpression()), !dbg !329
  call void @llvm.dbg.value(metadata i64 %.fca.1.extract13, metadata !314, metadata !DIExpression()), !dbg !329
  call void @llvm.dbg.value(metadata i64 %.fca.1.extract13, metadata !314, metadata !DIExpression()), !dbg !329
; call core::panicking::panic_bounds_check
  tail call void @_ZN4core9panicking18panic_bounds_check17h566454b12ba8f623E(i64 %.fca.1.extract13, i64 %input.1, %"core::panic::Location"* noalias readonly align 8 dereferenceable(24) bitcast (<{ i8*, [16 x i8] }>* @alloc34 to %"core::panic::Location"*)), !dbg !326
  unreachable, !dbg !326

panic1:                                           ; preds = %bb8
  call void @llvm.dbg.value(metadata i64 %.fca.1.extract13, metadata !314, metadata !DIExpression()), !dbg !329
  call void @llvm.dbg.value(metadata i64 %.fca.1.extract13, metadata !314, metadata !DIExpression()), !dbg !329
  call void @llvm.dbg.value(metadata i64 %.fca.1.extract13, metadata !314, metadata !DIExpression()), !dbg !329
; call core::panicking::panic_bounds_check
  tail call void @_ZN4core9panicking18panic_bounds_check17h566454b12ba8f623E(i64 %.fca.1.extract13, i64 %output.1, %"core::panic::Location"* noalias readonly align 8 dereferenceable(24) bitcast (<{ i8*, [16 x i8] }>* @alloc36 to %"core::panic::Location"*)), !dbg !331
  unreachable, !dbg !331
}

; Function Attrs: nounwind nonlazybind uwtable
declare i32 @rust_eh_personality(i32, i32, i64, %"unwind::libunwind::_Unwind_Exception"*, %"unwind::libunwind::_Unwind_Context"*) unnamed_addr #7

; Function Attrs: argmemonly nounwind
declare void @llvm.lifetime.start.p0i8(i64 immarg, i8* nocapture) #8

; Function Attrs: argmemonly nounwind
declare void @llvm.lifetime.end.p0i8(i64 immarg, i8* nocapture) #8

; core::panicking::panic_bounds_check
; Function Attrs: cold noinline noreturn nonlazybind uwtable
declare void @_ZN4core9panicking18panic_bounds_check17h566454b12ba8f623E(i64, i64, %"core::panic::Location"* noalias readonly align 8 dereferenceable(24)) unnamed_addr #9

; Function Attrs: nounwind readnone speculatable
declare void @llvm.dbg.value(metadata, metadata, metadata) #10

attributes #0 = { inlinehint norecurse nounwind nonlazybind readnone uwtable "probe-stack"="__rust_probestack" "target-cpu"="x86-64" }
attributes #1 = { inlinehint nofree norecurse nounwind nonlazybind uwtable "probe-stack"="__rust_probestack" "target-cpu"="x86-64" }
attributes #2 = { inlinehint norecurse nounwind nonlazybind readonly uwtable "probe-stack"="__rust_probestack" "target-cpu"="x86-64" }
attributes #3 = { inlinehint nounwind nonlazybind uwtable "probe-stack"="__rust_probestack" "target-cpu"="x86-64" }
attributes #4 = { inlinehint nofree norecurse nounwind nonlazybind uwtable writeonly "probe-stack"="__rust_probestack" "target-cpu"="x86-64" }
attributes #5 = { norecurse nounwind nonlazybind readnone uwtable "probe-stack"="__rust_probestack" "target-cpu"="x86-64" }
attributes #6 = { nonlazybind uwtable "probe-stack"="__rust_probestack" "target-cpu"="x86-64" }
attributes #7 = { nounwind nonlazybind uwtable "probe-stack"="__rust_probestack" "target-cpu"="x86-64" }
attributes #8 = { argmemonly nounwind }
attributes #9 = { cold noinline noreturn nonlazybind uwtable "probe-stack"="__rust_probestack" "target-cpu"="x86-64" }
attributes #10 = { nounwind readnone speculatable }

!llvm.module.flags = !{!0, !1, !2}
!llvm.dbg.cu = !{!3}

!0 = !{i32 7, !"PIC Level", i32 2}
!1 = !{i32 2, !"RtLibUseGOT", i32 1}
!2 = !{i32 2, !"Debug Info Version", i32 3}
!3 = distinct !DICompileUnit(language: DW_LANG_Rust, file: !4, producer: "clang LLVM (rustc version 1.46.0-dev)", isOptimized: true, runtimeVersion: 0, emissionKind: FullDebug, enums: !5)
!4 = !DIFile(filename: "src/lib.rs", directory: "/benchdata/rust/assume_true/example")
!5 = !{}
!6 = distinct !DISubprogram(name: "forward_unchecked", linkageName: "_ZN49_$LT$usize$u20$as$u20$core..iter..range..Step$GT$17forward_unchecked17hf3e4aa5239d3229aE", scope: !8, file: !7, line: 191, type: !12, scopeLine: 191, flags: DIFlagPrototyped, spFlags: DISPFlagLocalToUnit | DISPFlagDefinition | DISPFlagOptimized, unit: !3, templateParams: !5, retainedNodes: !15)
!7 = !DIFile(filename: "/benchdata/rust/rust/src/libcore/iter/range.rs", directory: "", checksumkind: CSK_MD5, checksum: "cccabf57d1b2ffaf9873830757e526c9")
!8 = !DINamespace(name: "{{impl}}", scope: !9)
!9 = !DINamespace(name: "range", scope: !10)
!10 = !DINamespace(name: "iter", scope: !11)
!11 = !DINamespace(name: "core", scope: null)
!12 = !DISubroutineType(types: !13)
!13 = !{!14, !14, !14}
!14 = !DIBasicType(name: "usize", size: 64, encoding: DW_ATE_unsigned)
!15 = !{!16, !17}
!16 = !DILocalVariable(name: "start", arg: 1, scope: !6, file: !7, line: 191, type: !14)
!17 = !DILocalVariable(name: "n", arg: 2, scope: !6, file: !7, line: 191, type: !14)
!18 = !DILocation(line: 0, scope: !6)
!19 = !DILocation(line: 193, column: 22, scope: !6)
!20 = !DILocation(line: 194, column: 10, scope: !6)
!21 = distinct !DISubprogram(name: "copy_nonoverlapping<usize>", linkageName: "_ZN4core10intrinsics19copy_nonoverlapping17h7d5aa160c6764310E", scope: !23, file: !22, line: 2116, type: !24, scopeLine: 2116, flags: DIFlagPrototyped, spFlags: DISPFlagLocalToUnit | DISPFlagDefinition | DISPFlagOptimized, unit: !3, templateParams: !32, retainedNodes: !28)
!22 = !DIFile(filename: "/benchdata/rust/rust/src/libcore/intrinsics.rs", directory: "", checksumkind: CSK_MD5, checksum: "8711e10a7510f3464d77c4ff3fc6cb16")
!23 = !DINamespace(name: "intrinsics", scope: !11)
!24 = !DISubroutineType(types: !25)
!25 = !{null, !26, !27, !14}
!26 = !DIDerivedType(tag: DW_TAG_pointer_type, name: "*const usize", baseType: !14, size: 64, align: 64, dwarfAddressSpace: 0)
!27 = !DIDerivedType(tag: DW_TAG_pointer_type, name: "*mut usize", baseType: !14, size: 64, align: 64, dwarfAddressSpace: 0)
!28 = !{!29, !30, !31}
!29 = !DILocalVariable(name: "src", arg: 1, scope: !21, file: !22, line: 2116, type: !26)
!30 = !DILocalVariable(name: "dst", arg: 2, scope: !21, file: !22, line: 2116, type: !27)
!31 = !DILocalVariable(name: "count", arg: 3, scope: !21, file: !22, line: 2116, type: !14)
!32 = !{!33}
!33 = !DITemplateTypeParameter(name: "T", type: !14)
!34 = !DILocation(line: 0, scope: !21)
!35 = !DILocation(line: 2132, column: 14, scope: !21)
!36 = !DILocation(line: 2133, column: 2, scope: !21)
!37 = distinct !DISubprogram(name: "lt", linkageName: "_ZN4core3cmp5impls57_$LT$impl$u20$core..cmp..PartialOrd$u20$for$u20$usize$GT$2lt17h697d7385366f3475E", scope: !39, file: !38, line: 1137, type: !42, scopeLine: 1137, flags: DIFlagPrototyped, spFlags: DISPFlagLocalToUnit | DISPFlagDefinition | DISPFlagOptimized, unit: !3, templateParams: !5, retainedNodes: !46)
!38 = !DIFile(filename: "/benchdata/rust/rust/src/libcore/cmp.rs", directory: "", checksumkind: CSK_MD5, checksum: "a4329b033234040c2caa81654f112278")
!39 = !DINamespace(name: "{{impl}}", scope: !40)
!40 = !DINamespace(name: "impls", scope: !41)
!41 = !DINamespace(name: "cmp", scope: !11)
!42 = !DISubroutineType(types: !43)
!43 = !{!44, !45, !45}
!44 = !DIBasicType(name: "bool", size: 8, encoding: DW_ATE_boolean)
!45 = !DIDerivedType(tag: DW_TAG_pointer_type, name: "&usize", baseType: !14, size: 64, align: 64, dwarfAddressSpace: 0)
!46 = !{!47, !48}
!47 = !DILocalVariable(name: "self", arg: 1, scope: !37, file: !38, line: 1137, type: !45)
!48 = !DILocalVariable(name: "other", arg: 2, scope: !37, file: !38, line: 1137, type: !45)
!49 = !DILocation(line: 0, scope: !37)
!50 = !DILocation(line: 1137, column: 52, scope: !37)
!51 = !DILocation(line: 1137, column: 62, scope: !37)
!52 = !DILocation(line: 1137, column: 72, scope: !37)
!53 = distinct !DISubprogram(name: "swap<usize>", linkageName: "_ZN4core3mem4swap17h0019af1984fcaf22E", scope: !55, file: !54, line: 686, type: !56, scopeLine: 686, flags: DIFlagPrototyped, spFlags: DISPFlagLocalToUnit | DISPFlagDefinition | DISPFlagOptimized, unit: !3, templateParams: !32, retainedNodes: !59)
!54 = !DIFile(filename: "/benchdata/rust/rust/src/libcore/mem/mod.rs", directory: "", checksumkind: CSK_MD5, checksum: "e0ab83ac79f7d21fce3cfde639f326ac")
!55 = !DINamespace(name: "mem", scope: !11)
!56 = !DISubroutineType(types: !57)
!57 = !{null, !58, !58}
!58 = !DIDerivedType(tag: DW_TAG_pointer_type, name: "&mut usize", baseType: !14, size: 64, align: 64, dwarfAddressSpace: 0)
!59 = !{!60, !61}
!60 = !DILocalVariable(name: "x", arg: 1, scope: !53, file: !54, line: 686, type: !58)
!61 = !DILocalVariable(name: "y", arg: 2, scope: !53, file: !54, line: 686, type: !58)
!62 = !DILocation(line: 0, scope: !53)
!63 = !DILocation(line: 690, column: 9, scope: !53)
!64 = !DILocation(line: 692, column: 2, scope: !53)
!65 = distinct !DISubprogram(name: "replace<usize>", linkageName: "_ZN4core3mem7replace17hb0bd2fc33dce5fd7E", scope: !55, file: !54, line: 814, type: !66, scopeLine: 814, flags: DIFlagPrototyped, spFlags: DISPFlagLocalToUnit | DISPFlagDefinition | DISPFlagOptimized, unit: !3, templateParams: !32, retainedNodes: !68)
!66 = !DISubroutineType(types: !67)
!67 = !{!14, !58, !14}
!68 = !{!69, !70}
!69 = !DILocalVariable(name: "dest", arg: 1, scope: !65, file: !54, line: 814, type: !58)
!70 = !DILocalVariable(name: "src", arg: 2, scope: !65, file: !54, line: 814, type: !14)
!71 = !DILocation(line: 0, scope: !65)
!72 = !DILocation(line: 815, column: 5, scope: !65)
!73 = !DILocation(line: 816, column: 5, scope: !65)
!74 = !DILocation(line: 817, column: 2, scope: !65)
!75 = distinct !DISubprogram(name: "unchecked_add", linkageName: "_ZN4core3num23_$LT$impl$u20$usize$GT$13unchecked_add17he27be0fa2186d468E", scope: !77, file: !76, line: 3022, type: !12, scopeLine: 3022, flags: DIFlagPrototyped, spFlags: DISPFlagLocalToUnit | DISPFlagDefinition | DISPFlagOptimized, unit: !3, templateParams: !5, retainedNodes: !79)
!76 = !DIFile(filename: "/benchdata/rust/rust/src/libcore/num/mod.rs", directory: "", checksumkind: CSK_MD5, checksum: "b610d63e687c1bb61890b7290628f313")
!77 = !DINamespace(name: "{{impl}}", scope: !78)
!78 = !DINamespace(name: "num", scope: !11)
!79 = !{!80, !81}
!80 = !DILocalVariable(name: "self", arg: 1, scope: !75, file: !76, line: 3022, type: !14)
!81 = !DILocalVariable(name: "rhs", arg: 2, scope: !75, file: !76, line: 3022, type: !14)
!82 = !DILocation(line: 0, scope: !75)
!83 = !DILocation(line: 3025, column: 26, scope: !75)
!84 = !DILocation(line: 3026, column: 14, scope: !75)
!85 = distinct !DISubprogram(name: "swap_nonoverlapping_one<usize>", linkageName: "_ZN4core3ptr23swap_nonoverlapping_one17h1204eb3747e6079aE", scope: !87, file: !86, line: 449, type: !88, scopeLine: 449, flags: DIFlagPrototyped, spFlags: DISPFlagLocalToUnit | DISPFlagDefinition | DISPFlagOptimized, unit: !3, templateParams: !32, retainedNodes: !90)
!86 = !DIFile(filename: "/benchdata/rust/rust/src/libcore/ptr/mod.rs", directory: "", checksumkind: CSK_MD5, checksum: "b0ff59056d9429f270152364d6f9dea4")
!87 = !DINamespace(name: "ptr", scope: !11)
!88 = !DISubroutineType(types: !89)
!89 = !{null, !27, !27}
!90 = !{!91, !92, !93}
!91 = !DILocalVariable(name: "x", arg: 1, scope: !85, file: !86, line: 449, type: !27)
!92 = !DILocalVariable(name: "y", arg: 2, scope: !85, file: !86, line: 449, type: !27)
!93 = !DILocalVariable(name: "z", scope: !94, file: !86, line: 456, type: !14, align: 8)
!94 = distinct !DILexicalBlock(scope: !85, file: !86, line: 456, column: 13)
!95 = !DILocation(line: 0, scope: !85)
!96 = !DILocation(line: 456, column: 21, scope: !85)
!97 = !DILocation(line: 0, scope: !94)
!98 = !DILocation(line: 457, column: 13, scope: !94)
!99 = !DILocation(line: 458, column: 13, scope: !94)
!100 = !DILocation(line: 464, column: 2, scope: !85)
!101 = distinct !DISubprogram(name: "read<usize>", linkageName: "_ZN4core3ptr4read17hc073ae94adfeafbdE", scope: !87, file: !86, line: 692, type: !102, scopeLine: 692, flags: DIFlagPrototyped, spFlags: DISPFlagLocalToUnit | DISPFlagDefinition | DISPFlagOptimized, unit: !3, templateParams: !32, retainedNodes: !104)
!102 = !DISubroutineType(types: !103)
!103 = !{!14, !26}
!104 = !{!105, !106}
!105 = !DILocalVariable(name: "src", arg: 1, scope: !101, file: !86, line: 692, type: !26)
!106 = !DILocalVariable(name: "tmp", scope: !107, file: !86, line: 694, type: !108, align: 8)
!107 = distinct !DILexicalBlock(scope: !101, file: !86, line: 694, column: 5)
!108 = !DICompositeType(tag: DW_TAG_union_type, name: "MaybeUninit<usize>", scope: !110, file: !109, size: 64, align: 64, elements: !111, templateParams: !32, identifier: "e97c16148701834d6877347a0dfd0ed2")
!109 = !DIFile(filename: "<unknown>", directory: "")
!110 = !DINamespace(name: "maybe_uninit", scope: !55)
!111 = !{!112, !114}
!112 = !DIDerivedType(tag: DW_TAG_member, name: "uninit", scope: !108, file: !109, baseType: !113, align: 8)
!113 = !DIBasicType(name: "()", encoding: DW_ATE_unsigned)
!114 = !DIDerivedType(tag: DW_TAG_member, name: "value", scope: !108, file: !109, baseType: !115, size: 64, align: 64)
!115 = !DICompositeType(tag: DW_TAG_structure_type, name: "ManuallyDrop<usize>", scope: !116, file: !109, size: 64, align: 64, elements: !117, templateParams: !32, identifier: "6a8c483e5b172af9bb2ada9ac38bad13")
!116 = !DINamespace(name: "manually_drop", scope: !55)
!117 = !{!118}
!118 = !DIDerivedType(tag: DW_TAG_member, name: "value", scope: !115, file: !109, baseType: !14, size: 64, align: 64)
!119 = !DILocation(line: 0, scope: !101)
!120 = !DILocation(line: 694, column: 9, scope: !101)
!121 = !DILocation(line: 0, scope: !107)
!122 = !DILocation(line: 702, column: 9, scope: !107)
!123 = !DILocation(line: 703, column: 9, scope: !107)
!124 = !DILocation(line: 705, column: 1, scope: !101)
!125 = !DILocation(line: 705, column: 2, scope: !101)
!126 = distinct !DISubprogram(name: "write<usize>", linkageName: "_ZN4core3ptr5write17h1c414429b6173125E", scope: !87, file: !86, line: 895, type: !127, scopeLine: 895, flags: DIFlagPrototyped, spFlags: DISPFlagLocalToUnit | DISPFlagDefinition | DISPFlagOptimized, unit: !3, templateParams: !32, retainedNodes: !129)
!127 = !DISubroutineType(types: !128)
!128 = !{null, !27, !14}
!129 = !{!130, !131}
!130 = !DILocalVariable(name: "dst", arg: 1, scope: !126, file: !86, line: 895, type: !27)
!131 = !DILocalVariable(name: "src", arg: 2, scope: !126, file: !86, line: 895, type: !14)
!132 = !DILocation(line: 0, scope: !126)
!133 = !DILocation(line: 901, column: 51, scope: !126)
!134 = !DILocation(line: 902, column: 2, scope: !126)
!135 = distinct !DISubprogram(name: "next<usize>", linkageName: "_ZN4core4iter5range101_$LT$impl$u20$core..iter..traits..iterator..Iterator$u20$for$u20$core..ops..range..Range$LT$A$GT$$GT$4next17h4dbca16b0a93703cE", scope: !8, file: !7, line: 504, type: !136, scopeLine: 504, flags: DIFlagPrototyped, spFlags: DISPFlagLocalToUnit | DISPFlagDefinition | DISPFlagOptimized, unit: !3, templateParams: !164, retainedNodes: !160)
!136 = !DISubroutineType(types: !137)
!137 = !{!138, !151}
!138 = !DICompositeType(tag: DW_TAG_structure_type, name: "Option<usize>", scope: !139, file: !109, size: 128, align: 64, elements: !140, identifier: "edae92f6aa2d4d3d8225245fd9f15299")
!139 = !DINamespace(name: "option", scope: !11)
!140 = !{!141}
!141 = !DICompositeType(tag: DW_TAG_variant_part, scope: !139, file: !109, size: 128, align: 64, elements: !142, templateParams: !32, identifier: "edae92f6aa2d4d3d8225245fd9f15299_variant_part", discriminator: !149)
!142 = !{!143, !145}
!143 = !DIDerivedType(tag: DW_TAG_member, name: "None", scope: !141, file: !109, baseType: !144, size: 128, align: 64, extraData: i64 0)
!144 = !DICompositeType(tag: DW_TAG_structure_type, name: "None", scope: !138, file: !109, size: 128, align: 64, elements: !5, templateParams: !32, identifier: "edae92f6aa2d4d3d8225245fd9f15299::None")
!145 = !DIDerivedType(tag: DW_TAG_member, name: "Some", scope: !141, file: !109, baseType: !146, size: 128, align: 64, extraData: i64 1)
!146 = !DICompositeType(tag: DW_TAG_structure_type, name: "Some", scope: !138, file: !109, size: 128, align: 64, elements: !147, templateParams: !32, identifier: "edae92f6aa2d4d3d8225245fd9f15299::Some")
!147 = !{!148}
!148 = !DIDerivedType(tag: DW_TAG_member, name: "__0", scope: !146, file: !109, baseType: !14, size: 64, align: 64, offset: 64)
!149 = !DIDerivedType(tag: DW_TAG_member, scope: !139, file: !109, baseType: !150, size: 64, align: 64, flags: DIFlagArtificial)
!150 = !DIBasicType(name: "u64", size: 64, encoding: DW_ATE_unsigned)
!151 = !DIDerivedType(tag: DW_TAG_pointer_type, name: "&mut core::ops::range::Range<usize>", baseType: !152, size: 64, align: 64, dwarfAddressSpace: 0)
!152 = !DICompositeType(tag: DW_TAG_structure_type, name: "Range<usize>", scope: !153, file: !109, size: 128, align: 64, elements: !155, templateParams: !158, identifier: "4be1f8843c4abc6e6b0755e50f9e3873")
!153 = !DINamespace(name: "range", scope: !154)
!154 = !DINamespace(name: "ops", scope: !11)
!155 = !{!156, !157}
!156 = !DIDerivedType(tag: DW_TAG_member, name: "start", scope: !152, file: !109, baseType: !14, size: 64, align: 64)
!157 = !DIDerivedType(tag: DW_TAG_member, name: "end", scope: !152, file: !109, baseType: !14, size: 64, align: 64, offset: 64)
!158 = !{!159}
!159 = !DITemplateTypeParameter(name: "Idx", type: !14)
!160 = !{!161, !162}
!161 = !DILocalVariable(name: "self", arg: 1, scope: !135, file: !7, line: 504, type: !151)
!162 = !DILocalVariable(name: "n", scope: !163, file: !7, line: 510, type: !14, align: 8)
!163 = distinct !DILexicalBlock(scope: !135, file: !7, line: 510, column: 13)
!164 = !{!165}
!165 = !DITemplateTypeParameter(name: "A", type: !14)
!166 = !DILocation(line: 0, scope: !135)
!167 = !DILocation(line: 505, column: 12, scope: !135)
!168 = !DILocation(line: 505, column: 25, scope: !135)
!169 = !DILocation(line: 505, column: 9, scope: !135)
!170 = !DILocation(line: 510, column: 54, scope: !135)
!171 = !DILocation(line: 510, column: 30, scope: !135)
!172 = !DILocation(line: 0, scope: !163)
!173 = !DILocation(line: 511, column: 18, scope: !163)
!174 = !DILocation(line: 515, column: 6, scope: !135)
!175 = distinct !DISubprogram(name: "clone", linkageName: "_ZN4core5clone5impls54_$LT$impl$u20$core..clone..Clone$u20$for$u20$usize$GT$5clone17h5308b05db89f7c1fE", scope: !177, file: !176, line: 184, type: !180, scopeLine: 184, flags: DIFlagPrototyped, spFlags: DISPFlagLocalToUnit | DISPFlagDefinition | DISPFlagOptimized, unit: !3, templateParams: !5, retainedNodes: !182)
!176 = !DIFile(filename: "/benchdata/rust/rust/src/libcore/clone.rs", directory: "", checksumkind: CSK_MD5, checksum: "98c9dc6319acf64a993b20287d880fcd")
!177 = !DINamespace(name: "{{impl}}", scope: !178)
!178 = !DINamespace(name: "impls", scope: !179)
!179 = !DINamespace(name: "clone", scope: !11)
!180 = !DISubroutineType(types: !181)
!181 = !{!14, !45}
!182 = !{!183}
!183 = !DILocalVariable(name: "self", arg: 1, scope: !175, file: !176, line: 184, type: !45)
!184 = !DILocation(line: 0, scope: !175)
!185 = !DILocation(line: 185, column: 25, scope: !175)
!186 = !DILocation(line: 186, column: 22, scope: !175)
!187 = distinct !DISubprogram(name: "len<u8>", linkageName: "_ZN4core5slice29_$LT$impl$u20$$u5b$T$u5d$$GT$3len17h04c456e3451ef474E", scope: !189, file: !188, line: 72, type: !191, scopeLine: 72, flags: DIFlagPrototyped, spFlags: DISPFlagLocalToUnit | DISPFlagDefinition | DISPFlagOptimized, unit: !3, templateParams: !201, retainedNodes: !199)
!188 = !DIFile(filename: "/benchdata/rust/rust/src/libcore/slice/mod.rs", directory: "", checksumkind: CSK_MD5, checksum: "9fd93c8a41addff7ba15d9096da1df6c")
!189 = !DINamespace(name: "{{impl}}", scope: !190)
!190 = !DINamespace(name: "slice", scope: !11)
!191 = !DISubroutineType(types: !192)
!192 = !{!14, !193}
!193 = !DICompositeType(tag: DW_TAG_structure_type, name: "&[u8]", file: !109, size: 128, align: 64, elements: !194, templateParams: !5, identifier: "585202bcfc7dfd1dd72e8befe2491ee4")
!194 = !{!195, !198}
!195 = !DIDerivedType(tag: DW_TAG_member, name: "data_ptr", scope: !193, file: !109, baseType: !196, size: 64, align: 64)
!196 = !DIDerivedType(tag: DW_TAG_pointer_type, name: "*const u8", baseType: !197, size: 64, align: 64, dwarfAddressSpace: 0)
!197 = !DIBasicType(name: "u8", size: 8, encoding: DW_ATE_unsigned)
!198 = !DIDerivedType(tag: DW_TAG_member, name: "length", scope: !193, file: !109, baseType: !14, size: 64, align: 64, offset: 64)
!199 = !{!200}
!200 = !DILocalVariable(name: "self", arg: 1, scope: !187, file: !188, line: 72, type: !193)
!201 = !{!202}
!202 = !DITemplateTypeParameter(name: "T", type: !197)
!203 = !DILocation(line: 0, scope: !187)
!204 = !DILocation(line: 74, column: 6, scope: !187)
!205 = distinct !DISubprogram(name: "into_iter<core::ops::range::Range<usize>>", linkageName: "_ZN63_$LT$I$u20$as$u20$core..iter..traits..collect..IntoIterator$GT$9into_iter17hef336c8a92dad622E", scope: !207, file: !206, line: 247, type: !210, scopeLine: 247, flags: DIFlagPrototyped, spFlags: DISPFlagLocalToUnit | DISPFlagDefinition | DISPFlagOptimized, unit: !3, templateParams: !214, retainedNodes: !212)
!206 = !DIFile(filename: "/benchdata/rust/rust/src/libcore/iter/traits/collect.rs", directory: "", checksumkind: CSK_MD5, checksum: "ab5d815a7d940fadbe767a6e9304aef3")
!207 = !DINamespace(name: "{{impl}}", scope: !208)
!208 = !DINamespace(name: "collect", scope: !209)
!209 = !DINamespace(name: "traits", scope: !10)
!210 = !DISubroutineType(types: !211)
!211 = !{!152, !152}
!212 = !{!213}
!213 = !DILocalVariable(name: "self", arg: 1, scope: !205, file: !206, line: 247, type: !152)
!214 = !{!215}
!215 = !DITemplateTypeParameter(name: "I", type: !152)
!216 = !DILocation(line: 0, scope: !205)
!217 = !DILocation(line: 249, column: 6, scope: !205)
!218 = distinct !DISubprogram(name: "c_style_size_fixed", scope: !220, file: !219, line: 12, type: !221, scopeLine: 12, flags: DIFlagPrototyped, spFlags: DISPFlagDefinition | DISPFlagOptimized, unit: !3, templateParams: !5, retainedNodes: !228)
!219 = !DIFile(filename: "src/lib.rs", directory: "/benchdata/rust/assume_true/example", checksumkind: CSK_MD5, checksum: "e7ee8382cedb74b3e032db1a041f7292")
!220 = !DINamespace(name: "example", scope: null)
!221 = !DISubroutineType(types: !222)
!222 = !{null, !223, !227}
!223 = !DIDerivedType(tag: DW_TAG_pointer_type, name: "&[u8; 320000]", baseType: !224, size: 64, align: 64, dwarfAddressSpace: 0)
!224 = !DICompositeType(tag: DW_TAG_array_type, baseType: !197, size: 2560000, align: 8, elements: !225)
!225 = !{!226}
!226 = !DISubrange(count: 320000)
!227 = !DIDerivedType(tag: DW_TAG_pointer_type, name: "&mut [u8; 320000]", baseType: !224, size: 64, align: 64, dwarfAddressSpace: 0)
!228 = !{!229, !230, !231, !233, !235, !237}
!229 = !DILocalVariable(name: "input", arg: 1, scope: !218, file: !219, line: 12, type: !223)
!230 = !DILocalVariable(name: "output", arg: 2, scope: !218, file: !219, line: 12, type: !227)
!231 = !DILocalVariable(name: "iter", scope: !232, file: !219, line: 13, type: !152, align: 8)
!232 = distinct !DILexicalBlock(scope: !218, file: !219, line: 13, column: 5)
!233 = !DILocalVariable(name: "__next", scope: !234, file: !219, line: 13, type: !14, align: 8)
!234 = distinct !DILexicalBlock(scope: !232, file: !219, line: 13, column: 14)
!235 = !DILocalVariable(name: "val", scope: !236, file: !219, line: 13, type: !14, align: 8)
!236 = distinct !DILexicalBlock(scope: !234, file: !219, line: 13, column: 9)
!237 = !DILocalVariable(name: "i", scope: !238, file: !219, line: 13, type: !14, align: 8)
!238 = distinct !DILexicalBlock(scope: !234, file: !219, line: 13, column: 14)
!239 = !DILocation(line: 0, scope: !218)
!240 = !DILocation(line: 13, column: 14, scope: !218)
!241 = !DILocation(line: 0, scope: !232)
!242 = !DILocation(line: 13, column: 14, scope: !234)
!243 = !DILocation(line: 13, column: 9, scope: !234)
!244 = !DILocation(line: 14, column: 21, scope: !238)
!245 = !DILocation(line: 15, column: 5, scope: !218)
!246 = !DILocation(line: 16, column: 2, scope: !218)
!247 = !DILocation(line: 0, scope: !234)
!248 = !DILocation(line: 0, scope: !238)
!249 = !{!"branch_weights", i32 2000, i32 1}
!250 = !DILocation(line: 14, column: 9, scope: !238)
!251 = distinct !DISubprogram(name: "c_style_input_size_fixed", scope: !220, file: !219, line: 21, type: !252, scopeLine: 21, flags: DIFlagPrototyped, spFlags: DISPFlagDefinition | DISPFlagOptimized, unit: !3, templateParams: !5, retainedNodes: !258)
!252 = !DISubroutineType(types: !253)
!253 = !{null, !223, !254}
!254 = !DICompositeType(tag: DW_TAG_structure_type, name: "&mut [u8]", file: !109, size: 128, align: 64, elements: !255, templateParams: !5, identifier: "7596319ecf86f60af9b48d8c05ebf9f7")
!255 = !{!256, !257}
!256 = !DIDerivedType(tag: DW_TAG_member, name: "data_ptr", scope: !254, file: !109, baseType: !196, size: 64, align: 64)
!257 = !DIDerivedType(tag: DW_TAG_member, name: "length", scope: !254, file: !109, baseType: !14, size: 64, align: 64, offset: 64)
!258 = !{!259, !260, !261, !263, !265, !267}
!259 = !DILocalVariable(name: "input", arg: 1, scope: !251, file: !219, line: 21, type: !223)
!260 = !DILocalVariable(name: "output", arg: 2, scope: !251, file: !219, line: 21, type: !254)
!261 = !DILocalVariable(name: "iter", scope: !262, file: !219, line: 22, type: !152, align: 8)
!262 = distinct !DILexicalBlock(scope: !251, file: !219, line: 22, column: 5)
!263 = !DILocalVariable(name: "__next", scope: !264, file: !219, line: 22, type: !14, align: 8)
!264 = distinct !DILexicalBlock(scope: !262, file: !219, line: 22, column: 14)
!265 = !DILocalVariable(name: "val", scope: !266, file: !219, line: 22, type: !14, align: 8)
!266 = distinct !DILexicalBlock(scope: !264, file: !219, line: 22, column: 9)
!267 = !DILocalVariable(name: "i", scope: !268, file: !219, line: 22, type: !14, align: 8)
!268 = distinct !DILexicalBlock(scope: !264, file: !219, line: 22, column: 14)
!269 = !DILocation(line: 0, scope: !251)
!270 = !DILocation(line: 22, column: 14, scope: !251)
!271 = !DILocation(line: 0, scope: !262)
!272 = !DILocation(line: 22, column: 14, scope: !264)
!273 = !DILocation(line: 22, column: 9, scope: !264)
!274 = !DILocation(line: 23, column: 21, scope: !268)
!275 = !DILocation(line: 24, column: 5, scope: !251)
!276 = !DILocation(line: 25, column: 2, scope: !251)
!277 = !DILocation(line: 0, scope: !264)
!278 = !DILocation(line: 0, scope: !268)
!279 = !DILocation(line: 23, column: 9, scope: !268)
!280 = distinct !DISubprogram(name: "c_style_output_size_fixed", scope: !220, file: !219, line: 38, type: !281, scopeLine: 38, flags: DIFlagPrototyped, spFlags: DISPFlagDefinition | DISPFlagOptimized, unit: !3, templateParams: !5, retainedNodes: !283)
!281 = !DISubroutineType(types: !282)
!282 = !{null, !193, !227}
!283 = !{!284, !285, !286, !288, !290, !292}
!284 = !DILocalVariable(name: "input", arg: 1, scope: !280, file: !219, line: 38, type: !193)
!285 = !DILocalVariable(name: "output", arg: 2, scope: !280, file: !219, line: 38, type: !227)
!286 = !DILocalVariable(name: "iter", scope: !287, file: !219, line: 39, type: !152, align: 8)
!287 = distinct !DILexicalBlock(scope: !280, file: !219, line: 39, column: 5)
!288 = !DILocalVariable(name: "__next", scope: !289, file: !219, line: 39, type: !14, align: 8)
!289 = distinct !DILexicalBlock(scope: !287, file: !219, line: 39, column: 14)
!290 = !DILocalVariable(name: "val", scope: !291, file: !219, line: 39, type: !14, align: 8)
!291 = distinct !DILexicalBlock(scope: !289, file: !219, line: 39, column: 9)
!292 = !DILocalVariable(name: "i", scope: !293, file: !219, line: 39, type: !14, align: 8)
!293 = distinct !DILexicalBlock(scope: !289, file: !219, line: 39, column: 14)
!294 = !DILocation(line: 0, scope: !280)
!295 = !DILocation(line: 39, column: 17, scope: !280)
!296 = !DILocation(line: 39, column: 14, scope: !280)
!297 = !DILocation(line: 0, scope: !287)
!298 = !DILocation(line: 39, column: 14, scope: !289)
!299 = !DILocation(line: 39, column: 9, scope: !289)
!300 = !DILocation(line: 40, column: 21, scope: !293)
!301 = !DILocation(line: 41, column: 5, scope: !280)
!302 = !DILocation(line: 42, column: 2, scope: !280)
!303 = !DILocation(line: 0, scope: !289)
!304 = !DILocation(line: 0, scope: !293)
!305 = !DILocation(line: 40, column: 9, scope: !293)
!306 = distinct !DISubprogram(name: "c_style_unknown_size", scope: !220, file: !219, line: 55, type: !307, scopeLine: 55, flags: DIFlagPrototyped, spFlags: DISPFlagDefinition | DISPFlagOptimized, unit: !3, templateParams: !5, retainedNodes: !309)
!307 = !DISubroutineType(types: !308)
!308 = !{null, !193, !254}
!309 = !{!310, !311, !312, !314, !316, !318}
!310 = !DILocalVariable(name: "input", arg: 1, scope: !306, file: !219, line: 55, type: !193)
!311 = !DILocalVariable(name: "output", arg: 2, scope: !306, file: !219, line: 55, type: !254)
!312 = !DILocalVariable(name: "iter", scope: !313, file: !219, line: 56, type: !152, align: 8)
!313 = distinct !DILexicalBlock(scope: !306, file: !219, line: 56, column: 5)
!314 = !DILocalVariable(name: "__next", scope: !315, file: !219, line: 56, type: !14, align: 8)
!315 = distinct !DILexicalBlock(scope: !313, file: !219, line: 56, column: 14)
!316 = !DILocalVariable(name: "val", scope: !317, file: !219, line: 56, type: !14, align: 8)
!317 = distinct !DILexicalBlock(scope: !315, file: !219, line: 56, column: 9)
!318 = !DILocalVariable(name: "i", scope: !319, file: !219, line: 56, type: !14, align: 8)
!319 = distinct !DILexicalBlock(scope: !315, file: !219, line: 56, column: 14)
!320 = !DILocation(line: 0, scope: !306)
!321 = !DILocation(line: 56, column: 17, scope: !306)
!322 = !DILocation(line: 56, column: 14, scope: !306)
!323 = !DILocation(line: 0, scope: !313)
!324 = !DILocation(line: 56, column: 14, scope: !315)
!325 = !DILocation(line: 56, column: 9, scope: !315)
!326 = !DILocation(line: 57, column: 21, scope: !319)
!327 = !DILocation(line: 58, column: 5, scope: !306)
!328 = !DILocation(line: 59, column: 2, scope: !306)
!329 = !DILocation(line: 0, scope: !315)
!330 = !DILocation(line: 0, scope: !319)
!331 = !DILocation(line: 57, column: 9, scope: !319)
