; ModuleID = 'iterator_bench.5f6e6zhf-cgu.0'
source_filename = "iterator_bench.5f6e6zhf-cgu.0"
target datalayout = "e-m:e-i64:64-f80:128-n8:16:32:64-S128"
target triple = "x86_64-unknown-linux-gnu"

%"core::iter::adapters::zip::Zip<core::slice::Iter<u16>, core::slice::ChunksMut<u8>>" = type { [0 x i64], { i16*, i16* }, [0 x i64], %"core::slice::ChunksMut<u8>", [0 x i64], i64, [0 x i64], i64, [0 x i64] }
%"core::slice::ChunksMut<u8>" = type { [0 x i64], { [0 x i8]*, i64 }, [0 x i64], i64, [0 x i64] }
%"core::iter::adapters::Take<core::iter::adapters::zip::Zip<core::slice::Iter<u16>, core::slice::ChunksMut<u8>>>" = type { [0 x i64], %"core::iter::adapters::zip::Zip<core::slice::Iter<u16>, core::slice::ChunksMut<u8>>", [0 x i64], i64, [0 x i64] }
%"core::iter::adapters::zip::Zip<core::slice::Iter<u16>, core::slice::ChunksExactMut<u8>>" = type { [0 x i64], { i16*, i16* }, [0 x i64], %"core::slice::ChunksExactMut<u8>", [0 x i64], i64, [0 x i64], i64, [0 x i64] }
%"core::slice::ChunksExactMut<u8>" = type { [0 x i64], { [0 x i8]*, i64 }, [0 x i64], { [0 x i8]*, i64 }, [0 x i64], i64, [0 x i64] }
%"core::iter::adapters::Take<core::iter::adapters::zip::Zip<core::slice::Iter<u16>, core::slice::ChunksExactMut<u8>>>" = type { [0 x i64], %"core::iter::adapters::zip::Zip<core::slice::Iter<u16>, core::slice::ChunksExactMut<u8>>", [0 x i64], i64, [0 x i64] }
%"unwind::libunwind::_Unwind_Exception" = type { [0 x i64], i64, [0 x i64], void (i32, %"unwind::libunwind::_Unwind_Exception"*)*, [0 x i64], [6 x i64], [0 x i64] }
%"unwind::libunwind::_Unwind_Context" = type { [0 x i8] }

@_ZN14iterator_bench23c_style_fixed_size_impl17h342585e2e19b3e4eE = unnamed_addr alias void ([640000 x i8]*, [320000 x i16]*), void ([640000 x i8]*, [320000 x i16]*)* @_ZN14iterator_bench19optimal_unsafe_impl17h43d230ec30bc4b7bE

; iterator_bench::optimal_unsafe_impl
; Function Attrs: noinline nounwind nonlazybind uwtable
define void @_ZN14iterator_bench19optimal_unsafe_impl17h43d230ec30bc4b7bE([640000 x i8]* nocapture align 1 dereferenceable(640000) %output, [320000 x i16]* noalias nocapture readonly align 2 dereferenceable(640000) %input) unnamed_addr #0 personality i32 (i32, i32, i64, %"unwind::libunwind::_Unwind_Exception"*, %"unwind::libunwind::_Unwind_Context"*)* @rust_eh_personality !dbg !37 {
start:
  call void @llvm.dbg.value(metadata [640000 x i8]* %output, metadata !52, metadata !DIExpression()), !dbg !72
  call void @llvm.dbg.value(metadata [320000 x i16]* %input, metadata !53, metadata !DIExpression()), !dbg !72
  call void @llvm.dbg.value(metadata { i64, i64 }* undef, metadata !54, metadata !DIExpression(DW_OP_deref)), !dbg !73
  call void @llvm.dbg.value(metadata { i64, i64 }* undef, metadata !74, metadata !DIExpression()), !dbg !103
  br label %vector.body, !dbg !105

vector.body:                                      ; preds = %vector.body, %start
  %index = phi i64 [ 0, %start ], [ %index.next.1, %vector.body ], !dbg !106
  %0 = getelementptr inbounds [320000 x i16], [320000 x i16]* %input, i64 0, i64 %index, !dbg !122
  %1 = bitcast i16* %0 to <8 x i16>*, !dbg !169
  %wide.load = load <8 x i16>, <8 x i16>* %1, align 2, !dbg !169
  %2 = shl nuw i64 %index, 1, !dbg !170
  %3 = trunc <8 x i16> %wide.load to <8 x i8>, !dbg !171
  %4 = lshr <8 x i16> %wide.load, <i16 8, i16 8, i16 8, i16 8, i16 8, i16 8, i16 8, i16 8>, !dbg !172
  %5 = or i64 %2, 1, !dbg !173
  %6 = getelementptr inbounds [640000 x i8], [640000 x i8]* %output, i64 0, i64 %5, !dbg !174
  %7 = trunc <8 x i16> %4 to <8 x i8>, !dbg !216
  %8 = getelementptr inbounds i8, i8* %6, i64 -1, !dbg !174
  %9 = bitcast i8* %8 to <16 x i8>*, !dbg !174
  %interleaved.vec = shufflevector <8 x i8> %3, <8 x i8> %7, <16 x i32> <i32 0, i32 8, i32 1, i32 9, i32 2, i32 10, i32 3, i32 11, i32 4, i32 12, i32 5, i32 13, i32 6, i32 14, i32 7, i32 15>, !dbg !216
  store <16 x i8> %interleaved.vec, <16 x i8>* %9, align 1, !dbg !216
  %index.next = or i64 %index, 8, !dbg !106
  %10 = getelementptr inbounds [320000 x i16], [320000 x i16]* %input, i64 0, i64 %index.next, !dbg !122
  %11 = bitcast i16* %10 to <8 x i16>*, !dbg !169
  %wide.load.1 = load <8 x i16>, <8 x i16>* %11, align 2, !dbg !169
  %12 = shl nuw i64 %index.next, 1, !dbg !170
  %13 = trunc <8 x i16> %wide.load.1 to <8 x i8>, !dbg !171
  %14 = lshr <8 x i16> %wide.load.1, <i16 8, i16 8, i16 8, i16 8, i16 8, i16 8, i16 8, i16 8>, !dbg !172
  %15 = or i64 %12, 1, !dbg !173
  %16 = getelementptr inbounds [640000 x i8], [640000 x i8]* %output, i64 0, i64 %15, !dbg !174
  %17 = trunc <8 x i16> %14 to <8 x i8>, !dbg !216
  %18 = getelementptr inbounds i8, i8* %16, i64 -1, !dbg !174
  %19 = bitcast i8* %18 to <16 x i8>*, !dbg !174
  %interleaved.vec.1 = shufflevector <8 x i8> %13, <8 x i8> %17, <16 x i32> <i32 0, i32 8, i32 1, i32 9, i32 2, i32 10, i32 3, i32 11, i32 4, i32 12, i32 5, i32 13, i32 6, i32 14, i32 7, i32 15>, !dbg !216
  store <16 x i8> %interleaved.vec.1, <16 x i8>* %19, align 1, !dbg !216
  %index.next.1 = add nuw nsw i64 %index, 16, !dbg !106
  %20 = icmp eq i64 %index.next.1, 320000, !dbg !106
  br i1 %20, label %bb5, label %vector.body, !dbg !106, !llvm.loop !217

bb5:                                              ; preds = %vector.body
  ret void, !dbg !219
}

; iterator_bench::c_style_input_size_fixed_impl
; Function Attrs: noinline nounwind nonlazybind uwtable
define void @_ZN14iterator_bench29c_style_input_size_fixed_impl17hcfe426a147d1500bE([0 x i8]* nocapture nonnull align 1 %output.0, i64 %output.1, [320000 x i16]* noalias nocapture readonly align 2 dereferenceable(640000) %input) unnamed_addr #0 personality i32 (i32, i32, i64, %"unwind::libunwind::_Unwind_Exception"*, %"unwind::libunwind::_Unwind_Context"*)* @rust_eh_personality !dbg !220 {
start:
  call void @llvm.dbg.value(metadata [0 x i8]* %output.0, metadata !224, metadata !DIExpression(DW_OP_LLVM_fragment, 0, 64)), !dbg !236
  call void @llvm.dbg.value(metadata i64 %output.1, metadata !224, metadata !DIExpression(DW_OP_LLVM_fragment, 64, 64)), !dbg !236
  call void @llvm.dbg.value(metadata [320000 x i16]* %input, metadata !225, metadata !DIExpression()), !dbg !236
  call void @llvm.dbg.value(metadata { i64, i64 }* undef, metadata !226, metadata !DIExpression(DW_OP_deref)), !dbg !237
  call void @llvm.dbg.value(metadata { i64, i64 }* undef, metadata !74, metadata !DIExpression()), !dbg !238
  br label %vector.body, !dbg !240

vector.body:                                      ; preds = %vector.body, %start
  %index = phi i64 [ 0, %start ], [ %index.next.1, %vector.body ], !dbg !241
  %0 = getelementptr inbounds [320000 x i16], [320000 x i16]* %input, i64 0, i64 %index, !dbg !244
  %1 = bitcast i16* %0 to <8 x i16>*, !dbg !244
  %wide.load = load <8 x i16>, <8 x i16>* %1, align 2, !dbg !244
  %2 = shl nuw i64 %index, 1, !dbg !245
  %3 = trunc <8 x i16> %wide.load to <8 x i8>, !dbg !246
  %4 = lshr <8 x i16> %wide.load, <i16 8, i16 8, i16 8, i16 8, i16 8, i16 8, i16 8, i16 8>, !dbg !247
  %5 = or i64 %2, 1, !dbg !248
  %6 = getelementptr inbounds [0 x i8], [0 x i8]* %output.0, i64 0, i64 %5, !dbg !249
  %7 = trunc <8 x i16> %4 to <8 x i8>, !dbg !249
  %8 = getelementptr inbounds i8, i8* %6, i64 -1, !dbg !249
  %9 = bitcast i8* %8 to <16 x i8>*, !dbg !249
  %interleaved.vec = shufflevector <8 x i8> %3, <8 x i8> %7, <16 x i32> <i32 0, i32 8, i32 1, i32 9, i32 2, i32 10, i32 3, i32 11, i32 4, i32 12, i32 5, i32 13, i32 6, i32 14, i32 7, i32 15>, !dbg !249
  store <16 x i8> %interleaved.vec, <16 x i8>* %9, align 1, !dbg !249
  %index.next = or i64 %index, 8, !dbg !241
  %10 = getelementptr inbounds [320000 x i16], [320000 x i16]* %input, i64 0, i64 %index.next, !dbg !244
  %11 = bitcast i16* %10 to <8 x i16>*, !dbg !244
  %wide.load.1 = load <8 x i16>, <8 x i16>* %11, align 2, !dbg !244
  %12 = shl nuw i64 %index.next, 1, !dbg !245
  %13 = trunc <8 x i16> %wide.load.1 to <8 x i8>, !dbg !246
  %14 = lshr <8 x i16> %wide.load.1, <i16 8, i16 8, i16 8, i16 8, i16 8, i16 8, i16 8, i16 8>, !dbg !247
  %15 = or i64 %12, 1, !dbg !248
  %16 = getelementptr inbounds [0 x i8], [0 x i8]* %output.0, i64 0, i64 %15, !dbg !249
  %17 = trunc <8 x i16> %14 to <8 x i8>, !dbg !249
  %18 = getelementptr inbounds i8, i8* %16, i64 -1, !dbg !249
  %19 = bitcast i8* %18 to <16 x i8>*, !dbg !249
  %interleaved.vec.1 = shufflevector <8 x i8> %13, <8 x i8> %17, <16 x i32> <i32 0, i32 8, i32 1, i32 9, i32 2, i32 10, i32 3, i32 11, i32 4, i32 12, i32 5, i32 13, i32 6, i32 14, i32 7, i32 15>, !dbg !249
  store <16 x i8> %interleaved.vec.1, <16 x i8>* %19, align 1, !dbg !249
  %index.next.1 = add nuw nsw i64 %index, 16, !dbg !241
  %20 = icmp eq i64 %index.next.1, 320000, !dbg !241
  br i1 %20, label %bb5, label %vector.body, !dbg !241, !llvm.loop !250

bb5:                                              ; preds = %vector.body
  ret void, !dbg !251
}

; iterator_bench::c_style_output_size_fixed_impl
; Function Attrs: noinline nounwind nonlazybind uwtable
define void @_ZN14iterator_bench30c_style_output_size_fixed_impl17hf1905e2e3293ab9bE([640000 x i8]* nocapture align 1 dereferenceable(640000) %output, [0 x i16]* noalias nocapture nonnull readonly align 2 %input.0, i64 %input.1) unnamed_addr #0 personality i32 (i32, i32, i64, %"unwind::libunwind::_Unwind_Exception"*, %"unwind::libunwind::_Unwind_Context"*)* @rust_eh_personality !dbg !252 {
start:
  call void @llvm.dbg.value(metadata [640000 x i8]* %output, metadata !256, metadata !DIExpression()), !dbg !268
  call void @llvm.dbg.value(metadata [0 x i16]* %input.0, metadata !257, metadata !DIExpression(DW_OP_LLVM_fragment, 0, 64)), !dbg !268
  call void @llvm.dbg.value(metadata i64 %input.1, metadata !257, metadata !DIExpression(DW_OP_LLVM_fragment, 64, 64)), !dbg !268
  call void @llvm.dbg.value(metadata { i64, i64 }* undef, metadata !258, metadata !DIExpression(DW_OP_deref)), !dbg !269
  call void @llvm.dbg.value(metadata { i64, i64 }* undef, metadata !74, metadata !DIExpression()), !dbg !270
  %output15 = ptrtoint [640000 x i8]* %output to i64
  %0 = icmp eq i64 %input.1, 0, !dbg !272
  br i1 %0, label %bb5, label %bb7.preheader, !dbg !284

bb7.preheader:                                    ; preds = %start
  %min.iters.check = icmp ult i64 %input.1, 8, !dbg !284
  br i1 %min.iters.check, label %bb7.preheader20, label %vector.scevcheck, !dbg !284

bb7.preheader20:                                  ; preds = %middle.block, %vector.scevcheck, %bb7.preheader
  %iter.sroa.0.014.ph = phi i64 [ 0, %vector.scevcheck ], [ 0, %bb7.preheader ], [ %n.vec, %middle.block ]
  %1 = xor i64 %iter.sroa.0.014.ph, -1, !dbg !284
  %xtraiter = and i64 %input.1, 1, !dbg !284
  %lcmp.mod = icmp eq i64 %xtraiter, 0, !dbg !284
  br i1 %lcmp.mod, label %bb7.prol.loopexit, label %bb7.prol, !dbg !284

bb7.prol:                                         ; preds = %bb7.preheader20
  call void @llvm.dbg.value(metadata i64 %iter.sroa.0.014.ph, metadata !119, metadata !DIExpression()), !dbg !285
  call void @llvm.dbg.value(metadata i64 1, metadata !120, metadata !DIExpression()), !dbg !285
  call void @llvm.dbg.value(metadata i64 %iter.sroa.0.014.ph, metadata !114, metadata !DIExpression()), !dbg !287
  call void @llvm.dbg.value(metadata i64 1, metadata !115, metadata !DIExpression()), !dbg !287
  %2 = or i64 %iter.sroa.0.014.ph, 1, !dbg !289
  call void @llvm.dbg.value(metadata i64 %iter.sroa.0.014.ph, metadata !260, metadata !DIExpression()), !dbg !290
  call void @llvm.dbg.value(metadata i64 %iter.sroa.0.014.ph, metadata !264, metadata !DIExpression()), !dbg !291
  %3 = getelementptr inbounds [0 x i16], [0 x i16]* %input.0, i64 0, i64 %iter.sroa.0.014.ph, !dbg !292
  %b.prol = load i16, i16* %3, align 2, !dbg !292
  call void @llvm.dbg.value(metadata i16 %b.prol, metadata !266, metadata !DIExpression()), !dbg !293
  %_22.prol = shl i64 %iter.sroa.0.014.ph, 1, !dbg !294
  %4 = getelementptr inbounds [640000 x i8], [640000 x i8]* %output, i64 0, i64 %_22.prol, !dbg !295
  %5 = trunc i16 %b.prol to i8, !dbg !295
  store i8 %5, i8* %4, align 1, !dbg !295
  %_27.prol = lshr i16 %b.prol, 8, !dbg !296
  %_29.prol = or i64 %_22.prol, 1, !dbg !297
  %6 = getelementptr inbounds [640000 x i8], [640000 x i8]* %output, i64 0, i64 %_29.prol, !dbg !298
  %7 = trunc i16 %_27.prol to i8, !dbg !298
  store i8 %7, i8* %6, align 1, !dbg !298
  call void @llvm.dbg.value(metadata { i64, i64 }* undef, metadata !258, metadata !DIExpression(DW_OP_deref)), !dbg !269
  call void @llvm.dbg.value(metadata { i64, i64 }* undef, metadata !74, metadata !DIExpression()), !dbg !270
  br label %bb7.prol.loopexit, !dbg !284

bb7.prol.loopexit:                                ; preds = %bb7.preheader20, %bb7.prol
  %iter.sroa.0.014.unr = phi i64 [ %iter.sroa.0.014.ph, %bb7.preheader20 ], [ %2, %bb7.prol ]
  %8 = sub i64 0, %input.1, !dbg !284
  %9 = icmp eq i64 %1, %8, !dbg !284
  br i1 %9, label %bb5, label %bb7, !dbg !284

vector.scevcheck:                                 ; preds = %bb7.preheader
  %10 = add i64 %input.1, -1, !dbg !284
  %mul = call { i64, i1 } @llvm.umul.with.overflow.i64(i64 %10, i64 2), !dbg !284
  %mul.result = extractvalue { i64, i1 } %mul, 0, !dbg !284
  %mul.overflow = extractvalue { i64, i1 } %mul, 1, !dbg !284
  %11 = xor i64 %output15, -1, !dbg !284
  %12 = icmp ugt i64 %mul.result, %11, !dbg !284
  %13 = or i1 %12, %mul.overflow, !dbg !284
  %scevgep = getelementptr [640000 x i8], [640000 x i8]* %output, i64 0, i64 1, !dbg !284
  %scevgep16 = ptrtoint i8* %scevgep to i64
  %mul17 = call { i64, i1 } @llvm.umul.with.overflow.i64(i64 %10, i64 2), !dbg !284
  %mul.result18 = extractvalue { i64, i1 } %mul17, 0, !dbg !284
  %mul.overflow19 = extractvalue { i64, i1 } %mul17, 1, !dbg !284
  %14 = xor i64 %scevgep16, -1, !dbg !284
  %15 = icmp ugt i64 %mul.result18, %14, !dbg !284
  %16 = or i1 %15, %mul.overflow19, !dbg !284
  %17 = or i1 %13, %16, !dbg !284
  br i1 %17, label %bb7.preheader20, label %vector.ph, !dbg !284

vector.ph:                                        ; preds = %vector.scevcheck
  %n.vec = and i64 %input.1, -8, !dbg !284
  %18 = add i64 %n.vec, -8, !dbg !284
  %19 = lshr exact i64 %18, 3, !dbg !284
  %20 = add nuw nsw i64 %19, 1, !dbg !284
  %xtraiter21 = and i64 %20, 1, !dbg !284
  %21 = icmp eq i64 %18, 0, !dbg !284
  br i1 %21, label %middle.block.unr-lcssa, label %vector.ph.new, !dbg !284

vector.ph.new:                                    ; preds = %vector.ph
  %unroll_iter = sub nuw nsw i64 %20, %xtraiter21, !dbg !284
  br label %vector.body, !dbg !284

vector.body:                                      ; preds = %vector.body, %vector.ph.new
  %index = phi i64 [ 0, %vector.ph.new ], [ %index.next.1, %vector.body ], !dbg !289
  %niter = phi i64 [ %unroll_iter, %vector.ph.new ], [ %niter.nsub.1, %vector.body ]
  %22 = getelementptr inbounds [0 x i16], [0 x i16]* %input.0, i64 0, i64 %index, !dbg !292
  %23 = bitcast i16* %22 to <8 x i16>*, !dbg !292
  %wide.load = load <8 x i16>, <8 x i16>* %23, align 2, !dbg !292
  %24 = shl i64 %index, 1, !dbg !294
  %25 = trunc <8 x i16> %wide.load to <8 x i8>, !dbg !295
  %26 = lshr <8 x i16> %wide.load, <i16 8, i16 8, i16 8, i16 8, i16 8, i16 8, i16 8, i16 8>, !dbg !296
  %27 = or i64 %24, 1, !dbg !297
  %28 = getelementptr inbounds [640000 x i8], [640000 x i8]* %output, i64 0, i64 %27, !dbg !298
  %29 = trunc <8 x i16> %26 to <8 x i8>, !dbg !298
  %30 = getelementptr inbounds i8, i8* %28, i64 -1, !dbg !298
  %31 = bitcast i8* %30 to <16 x i8>*, !dbg !298
  %interleaved.vec = shufflevector <8 x i8> %25, <8 x i8> %29, <16 x i32> <i32 0, i32 8, i32 1, i32 9, i32 2, i32 10, i32 3, i32 11, i32 4, i32 12, i32 5, i32 13, i32 6, i32 14, i32 7, i32 15>, !dbg !298
  store <16 x i8> %interleaved.vec, <16 x i8>* %31, align 1, !dbg !298
  %index.next = or i64 %index, 8, !dbg !289
  %32 = getelementptr inbounds [0 x i16], [0 x i16]* %input.0, i64 0, i64 %index.next, !dbg !292
  %33 = bitcast i16* %32 to <8 x i16>*, !dbg !292
  %wide.load.1 = load <8 x i16>, <8 x i16>* %33, align 2, !dbg !292
  %34 = shl i64 %index.next, 1, !dbg !294
  %35 = trunc <8 x i16> %wide.load.1 to <8 x i8>, !dbg !295
  %36 = lshr <8 x i16> %wide.load.1, <i16 8, i16 8, i16 8, i16 8, i16 8, i16 8, i16 8, i16 8>, !dbg !296
  %37 = or i64 %34, 1, !dbg !297
  %38 = getelementptr inbounds [640000 x i8], [640000 x i8]* %output, i64 0, i64 %37, !dbg !298
  %39 = trunc <8 x i16> %36 to <8 x i8>, !dbg !298
  %40 = getelementptr inbounds i8, i8* %38, i64 -1, !dbg !298
  %41 = bitcast i8* %40 to <16 x i8>*, !dbg !298
  %interleaved.vec.1 = shufflevector <8 x i8> %35, <8 x i8> %39, <16 x i32> <i32 0, i32 8, i32 1, i32 9, i32 2, i32 10, i32 3, i32 11, i32 4, i32 12, i32 5, i32 13, i32 6, i32 14, i32 7, i32 15>, !dbg !298
  store <16 x i8> %interleaved.vec.1, <16 x i8>* %41, align 1, !dbg !298
  %index.next.1 = add i64 %index, 16, !dbg !289
  %niter.nsub.1 = add i64 %niter, -2, !dbg !289
  %niter.ncmp.1 = icmp eq i64 %niter.nsub.1, 0, !dbg !289
  br i1 %niter.ncmp.1, label %middle.block.unr-lcssa, label %vector.body, !dbg !289, !llvm.loop !299

middle.block.unr-lcssa:                           ; preds = %vector.body, %vector.ph
  %index.unr = phi i64 [ 0, %vector.ph ], [ %index.next.1, %vector.body ]
  %lcmp.mod22 = icmp eq i64 %xtraiter21, 0, !dbg !289
  br i1 %lcmp.mod22, label %middle.block, label %vector.body.epil, !dbg !289

vector.body.epil:                                 ; preds = %middle.block.unr-lcssa
  %42 = getelementptr inbounds [0 x i16], [0 x i16]* %input.0, i64 0, i64 %index.unr, !dbg !292
  %43 = bitcast i16* %42 to <8 x i16>*, !dbg !292
  %wide.load.epil = load <8 x i16>, <8 x i16>* %43, align 2, !dbg !292
  %44 = shl i64 %index.unr, 1, !dbg !294
  %45 = trunc <8 x i16> %wide.load.epil to <8 x i8>, !dbg !295
  %46 = lshr <8 x i16> %wide.load.epil, <i16 8, i16 8, i16 8, i16 8, i16 8, i16 8, i16 8, i16 8>, !dbg !296
  %47 = or i64 %44, 1, !dbg !297
  %48 = getelementptr inbounds [640000 x i8], [640000 x i8]* %output, i64 0, i64 %47, !dbg !298
  %49 = trunc <8 x i16> %46 to <8 x i8>, !dbg !298
  %50 = getelementptr inbounds i8, i8* %48, i64 -1, !dbg !298
  %51 = bitcast i8* %50 to <16 x i8>*, !dbg !298
  %interleaved.vec.epil = shufflevector <8 x i8> %45, <8 x i8> %49, <16 x i32> <i32 0, i32 8, i32 1, i32 9, i32 2, i32 10, i32 3, i32 11, i32 4, i32 12, i32 5, i32 13, i32 6, i32 14, i32 7, i32 15>, !dbg !298
  store <16 x i8> %interleaved.vec.epil, <16 x i8>* %51, align 1, !dbg !298
  br label %middle.block, !dbg !284

middle.block:                                     ; preds = %middle.block.unr-lcssa, %vector.body.epil
  %cmp.n = icmp eq i64 %n.vec, %input.1, !dbg !284
  br i1 %cmp.n, label %bb5, label %bb7.preheader20, !dbg !284

bb5:                                              ; preds = %bb7.prol.loopexit, %bb7, %middle.block, %start
  ret void, !dbg !300

bb7:                                              ; preds = %bb7.prol.loopexit, %bb7
  %iter.sroa.0.014 = phi i64 [ %58, %bb7 ], [ %iter.sroa.0.014.unr, %bb7.prol.loopexit ]
  call void @llvm.dbg.value(metadata i64 %iter.sroa.0.014, metadata !119, metadata !DIExpression()), !dbg !285
  call void @llvm.dbg.value(metadata i64 1, metadata !120, metadata !DIExpression()), !dbg !285
  call void @llvm.dbg.value(metadata i64 %iter.sroa.0.014, metadata !114, metadata !DIExpression()), !dbg !287
  call void @llvm.dbg.value(metadata i64 1, metadata !115, metadata !DIExpression()), !dbg !287
  %52 = add nuw i64 %iter.sroa.0.014, 1, !dbg !289
  call void @llvm.dbg.value(metadata i64 %iter.sroa.0.014, metadata !260, metadata !DIExpression()), !dbg !290
  call void @llvm.dbg.value(metadata i64 %iter.sroa.0.014, metadata !264, metadata !DIExpression()), !dbg !291
  %53 = getelementptr inbounds [0 x i16], [0 x i16]* %input.0, i64 0, i64 %iter.sroa.0.014, !dbg !292
  %b = load i16, i16* %53, align 2, !dbg !292
  call void @llvm.dbg.value(metadata i16 %b, metadata !266, metadata !DIExpression()), !dbg !293
  %_22 = shl i64 %iter.sroa.0.014, 1, !dbg !294
  %54 = getelementptr inbounds [640000 x i8], [640000 x i8]* %output, i64 0, i64 %_22, !dbg !295
  %55 = trunc i16 %b to i8, !dbg !295
  store i8 %55, i8* %54, align 1, !dbg !295
  %_27 = lshr i16 %b, 8, !dbg !296
  %_29 = or i64 %_22, 1, !dbg !297
  %56 = getelementptr inbounds [640000 x i8], [640000 x i8]* %output, i64 0, i64 %_29, !dbg !298
  %57 = trunc i16 %_27 to i8, !dbg !298
  store i8 %57, i8* %56, align 1, !dbg !298
  call void @llvm.dbg.value(metadata { i64, i64 }* undef, metadata !258, metadata !DIExpression(DW_OP_deref)), !dbg !269
  call void @llvm.dbg.value(metadata { i64, i64 }* undef, metadata !74, metadata !DIExpression()), !dbg !270
  call void @llvm.dbg.value(metadata i64 %52, metadata !119, metadata !DIExpression()), !dbg !285
  call void @llvm.dbg.value(metadata i64 1, metadata !120, metadata !DIExpression()), !dbg !285
  call void @llvm.dbg.value(metadata i64 %52, metadata !114, metadata !DIExpression()), !dbg !287
  call void @llvm.dbg.value(metadata i64 1, metadata !115, metadata !DIExpression()), !dbg !287
  %58 = add nuw i64 %iter.sroa.0.014, 2, !dbg !289
  call void @llvm.dbg.value(metadata i64 %52, metadata !260, metadata !DIExpression()), !dbg !290
  call void @llvm.dbg.value(metadata i64 %52, metadata !264, metadata !DIExpression()), !dbg !291
  %59 = getelementptr inbounds [0 x i16], [0 x i16]* %input.0, i64 0, i64 %52, !dbg !292
  %b.1 = load i16, i16* %59, align 2, !dbg !292
  call void @llvm.dbg.value(metadata i16 %b.1, metadata !266, metadata !DIExpression()), !dbg !293
  %_22.1 = shl i64 %52, 1, !dbg !294
  %60 = getelementptr inbounds [640000 x i8], [640000 x i8]* %output, i64 0, i64 %_22.1, !dbg !295
  %61 = trunc i16 %b.1 to i8, !dbg !295
  store i8 %61, i8* %60, align 1, !dbg !295
  %_27.1 = lshr i16 %b.1, 8, !dbg !296
  %_29.1 = or i64 %_22.1, 1, !dbg !297
  %62 = getelementptr inbounds [640000 x i8], [640000 x i8]* %output, i64 0, i64 %_29.1, !dbg !298
  %63 = trunc i16 %_27.1 to i8, !dbg !298
  store i8 %63, i8* %62, align 1, !dbg !298
  call void @llvm.dbg.value(metadata { i64, i64 }* undef, metadata !258, metadata !DIExpression(DW_OP_deref)), !dbg !269
  call void @llvm.dbg.value(metadata { i64, i64 }* undef, metadata !74, metadata !DIExpression()), !dbg !270
  %exitcond.1 = icmp eq i64 %58, %input.1, !dbg !272
  br i1 %exitcond.1, label %bb5, label %bb7, !dbg !284, !llvm.loop !301
}

; iterator_bench::c_style_unknown_size_impl
; Function Attrs: noinline nounwind nonlazybind uwtable
define void @_ZN14iterator_bench25c_style_unknown_size_impl17ha4507c1657d6df17E([0 x i8]* nocapture nonnull align 1 %output.0, i64 %output.1, [0 x i16]* noalias nocapture nonnull readonly align 2 %input.0, i64 %input.1) unnamed_addr #0 personality i32 (i32, i32, i64, %"unwind::libunwind::_Unwind_Exception"*, %"unwind::libunwind::_Unwind_Context"*)* @rust_eh_personality !dbg !302 {
start:
  call void @llvm.dbg.value(metadata [0 x i8]* %output.0, metadata !306, metadata !DIExpression(DW_OP_LLVM_fragment, 0, 64)), !dbg !318
  call void @llvm.dbg.value(metadata i64 %output.1, metadata !306, metadata !DIExpression(DW_OP_LLVM_fragment, 64, 64)), !dbg !318
  call void @llvm.dbg.value(metadata [0 x i16]* %input.0, metadata !307, metadata !DIExpression(DW_OP_LLVM_fragment, 0, 64)), !dbg !318
  call void @llvm.dbg.value(metadata i64 %input.1, metadata !307, metadata !DIExpression(DW_OP_LLVM_fragment, 64, 64)), !dbg !318
  call void @llvm.dbg.value(metadata { i64, i64 }* undef, metadata !308, metadata !DIExpression(DW_OP_deref)), !dbg !319
  call void @llvm.dbg.value(metadata { i64, i64 }* undef, metadata !74, metadata !DIExpression()), !dbg !320
  %output.015 = ptrtoint [0 x i8]* %output.0 to i64
  %0 = icmp eq i64 %input.1, 0, !dbg !322
  br i1 %0, label %bb5, label %bb7.preheader, !dbg !324

bb7.preheader:                                    ; preds = %start
  %min.iters.check = icmp ult i64 %input.1, 8, !dbg !324
  br i1 %min.iters.check, label %bb7.preheader20, label %vector.scevcheck, !dbg !324

bb7.preheader20:                                  ; preds = %middle.block, %vector.scevcheck, %bb7.preheader
  %iter.sroa.0.014.ph = phi i64 [ 0, %vector.scevcheck ], [ 0, %bb7.preheader ], [ %n.vec, %middle.block ]
  %1 = xor i64 %iter.sroa.0.014.ph, -1, !dbg !324
  %xtraiter = and i64 %input.1, 1, !dbg !324
  %lcmp.mod = icmp eq i64 %xtraiter, 0, !dbg !324
  br i1 %lcmp.mod, label %bb7.prol.loopexit, label %bb7.prol, !dbg !324

bb7.prol:                                         ; preds = %bb7.preheader20
  call void @llvm.dbg.value(metadata i64 %iter.sroa.0.014.ph, metadata !119, metadata !DIExpression()), !dbg !325
  call void @llvm.dbg.value(metadata i64 1, metadata !120, metadata !DIExpression()), !dbg !325
  call void @llvm.dbg.value(metadata i64 %iter.sroa.0.014.ph, metadata !114, metadata !DIExpression()), !dbg !327
  call void @llvm.dbg.value(metadata i64 1, metadata !115, metadata !DIExpression()), !dbg !327
  %2 = or i64 %iter.sroa.0.014.ph, 1, !dbg !329
  call void @llvm.dbg.value(metadata i64 %iter.sroa.0.014.ph, metadata !310, metadata !DIExpression()), !dbg !330
  call void @llvm.dbg.value(metadata i64 %iter.sroa.0.014.ph, metadata !314, metadata !DIExpression()), !dbg !331
  %3 = getelementptr inbounds [0 x i16], [0 x i16]* %input.0, i64 0, i64 %iter.sroa.0.014.ph, !dbg !332
  %b.prol = load i16, i16* %3, align 2, !dbg !332
  call void @llvm.dbg.value(metadata i16 %b.prol, metadata !316, metadata !DIExpression()), !dbg !333
  %_22.prol = shl i64 %iter.sroa.0.014.ph, 1, !dbg !334
  %4 = getelementptr inbounds [0 x i8], [0 x i8]* %output.0, i64 0, i64 %_22.prol, !dbg !335
  %5 = trunc i16 %b.prol to i8, !dbg !335
  store i8 %5, i8* %4, align 1, !dbg !335
  %_27.prol = lshr i16 %b.prol, 8, !dbg !336
  %_29.prol = or i64 %_22.prol, 1, !dbg !337
  %6 = getelementptr inbounds [0 x i8], [0 x i8]* %output.0, i64 0, i64 %_29.prol, !dbg !338
  %7 = trunc i16 %_27.prol to i8, !dbg !338
  store i8 %7, i8* %6, align 1, !dbg !338
  call void @llvm.dbg.value(metadata { i64, i64 }* undef, metadata !308, metadata !DIExpression(DW_OP_deref)), !dbg !319
  call void @llvm.dbg.value(metadata { i64, i64 }* undef, metadata !74, metadata !DIExpression()), !dbg !320
  br label %bb7.prol.loopexit, !dbg !324

bb7.prol.loopexit:                                ; preds = %bb7.preheader20, %bb7.prol
  %iter.sroa.0.014.unr = phi i64 [ %iter.sroa.0.014.ph, %bb7.preheader20 ], [ %2, %bb7.prol ]
  %8 = sub i64 0, %input.1, !dbg !324
  %9 = icmp eq i64 %1, %8, !dbg !324
  br i1 %9, label %bb5, label %bb7, !dbg !324

vector.scevcheck:                                 ; preds = %bb7.preheader
  %10 = add i64 %input.1, -1, !dbg !324
  %mul = call { i64, i1 } @llvm.umul.with.overflow.i64(i64 %10, i64 2), !dbg !324
  %mul.result = extractvalue { i64, i1 } %mul, 0, !dbg !324
  %mul.overflow = extractvalue { i64, i1 } %mul, 1, !dbg !324
  %11 = xor i64 %output.015, -1, !dbg !324
  %12 = icmp ugt i64 %mul.result, %11, !dbg !324
  %13 = or i1 %12, %mul.overflow, !dbg !324
  %scevgep = getelementptr [0 x i8], [0 x i8]* %output.0, i64 0, i64 1, !dbg !324
  %scevgep16 = ptrtoint i8* %scevgep to i64
  %mul17 = call { i64, i1 } @llvm.umul.with.overflow.i64(i64 %10, i64 2), !dbg !324
  %mul.result18 = extractvalue { i64, i1 } %mul17, 0, !dbg !324
  %mul.overflow19 = extractvalue { i64, i1 } %mul17, 1, !dbg !324
  %14 = xor i64 %scevgep16, -1, !dbg !324
  %15 = icmp ugt i64 %mul.result18, %14, !dbg !324
  %16 = or i1 %15, %mul.overflow19, !dbg !324
  %17 = or i1 %13, %16, !dbg !324
  br i1 %17, label %bb7.preheader20, label %vector.ph, !dbg !324

vector.ph:                                        ; preds = %vector.scevcheck
  %n.vec = and i64 %input.1, -8, !dbg !324
  %18 = add i64 %n.vec, -8, !dbg !324
  %19 = lshr exact i64 %18, 3, !dbg !324
  %20 = add nuw nsw i64 %19, 1, !dbg !324
  %xtraiter21 = and i64 %20, 1, !dbg !324
  %21 = icmp eq i64 %18, 0, !dbg !324
  br i1 %21, label %middle.block.unr-lcssa, label %vector.ph.new, !dbg !324

vector.ph.new:                                    ; preds = %vector.ph
  %unroll_iter = sub nuw nsw i64 %20, %xtraiter21, !dbg !324
  br label %vector.body, !dbg !324

vector.body:                                      ; preds = %vector.body, %vector.ph.new
  %index = phi i64 [ 0, %vector.ph.new ], [ %index.next.1, %vector.body ], !dbg !329
  %niter = phi i64 [ %unroll_iter, %vector.ph.new ], [ %niter.nsub.1, %vector.body ]
  %22 = getelementptr inbounds [0 x i16], [0 x i16]* %input.0, i64 0, i64 %index, !dbg !332
  %23 = bitcast i16* %22 to <8 x i16>*, !dbg !332
  %wide.load = load <8 x i16>, <8 x i16>* %23, align 2, !dbg !332
  %24 = shl i64 %index, 1, !dbg !334
  %25 = trunc <8 x i16> %wide.load to <8 x i8>, !dbg !335
  %26 = lshr <8 x i16> %wide.load, <i16 8, i16 8, i16 8, i16 8, i16 8, i16 8, i16 8, i16 8>, !dbg !336
  %27 = or i64 %24, 1, !dbg !337
  %28 = getelementptr inbounds [0 x i8], [0 x i8]* %output.0, i64 0, i64 %27, !dbg !338
  %29 = trunc <8 x i16> %26 to <8 x i8>, !dbg !338
  %30 = getelementptr inbounds i8, i8* %28, i64 -1, !dbg !338
  %31 = bitcast i8* %30 to <16 x i8>*, !dbg !338
  %interleaved.vec = shufflevector <8 x i8> %25, <8 x i8> %29, <16 x i32> <i32 0, i32 8, i32 1, i32 9, i32 2, i32 10, i32 3, i32 11, i32 4, i32 12, i32 5, i32 13, i32 6, i32 14, i32 7, i32 15>, !dbg !338
  store <16 x i8> %interleaved.vec, <16 x i8>* %31, align 1, !dbg !338
  %index.next = or i64 %index, 8, !dbg !329
  %32 = getelementptr inbounds [0 x i16], [0 x i16]* %input.0, i64 0, i64 %index.next, !dbg !332
  %33 = bitcast i16* %32 to <8 x i16>*, !dbg !332
  %wide.load.1 = load <8 x i16>, <8 x i16>* %33, align 2, !dbg !332
  %34 = shl i64 %index.next, 1, !dbg !334
  %35 = trunc <8 x i16> %wide.load.1 to <8 x i8>, !dbg !335
  %36 = lshr <8 x i16> %wide.load.1, <i16 8, i16 8, i16 8, i16 8, i16 8, i16 8, i16 8, i16 8>, !dbg !336
  %37 = or i64 %34, 1, !dbg !337
  %38 = getelementptr inbounds [0 x i8], [0 x i8]* %output.0, i64 0, i64 %37, !dbg !338
  %39 = trunc <8 x i16> %36 to <8 x i8>, !dbg !338
  %40 = getelementptr inbounds i8, i8* %38, i64 -1, !dbg !338
  %41 = bitcast i8* %40 to <16 x i8>*, !dbg !338
  %interleaved.vec.1 = shufflevector <8 x i8> %35, <8 x i8> %39, <16 x i32> <i32 0, i32 8, i32 1, i32 9, i32 2, i32 10, i32 3, i32 11, i32 4, i32 12, i32 5, i32 13, i32 6, i32 14, i32 7, i32 15>, !dbg !338
  store <16 x i8> %interleaved.vec.1, <16 x i8>* %41, align 1, !dbg !338
  %index.next.1 = add i64 %index, 16, !dbg !329
  %niter.nsub.1 = add i64 %niter, -2, !dbg !329
  %niter.ncmp.1 = icmp eq i64 %niter.nsub.1, 0, !dbg !329
  br i1 %niter.ncmp.1, label %middle.block.unr-lcssa, label %vector.body, !dbg !329, !llvm.loop !339

middle.block.unr-lcssa:                           ; preds = %vector.body, %vector.ph
  %index.unr = phi i64 [ 0, %vector.ph ], [ %index.next.1, %vector.body ]
  %lcmp.mod22 = icmp eq i64 %xtraiter21, 0, !dbg !329
  br i1 %lcmp.mod22, label %middle.block, label %vector.body.epil, !dbg !329

vector.body.epil:                                 ; preds = %middle.block.unr-lcssa
  %42 = getelementptr inbounds [0 x i16], [0 x i16]* %input.0, i64 0, i64 %index.unr, !dbg !332
  %43 = bitcast i16* %42 to <8 x i16>*, !dbg !332
  %wide.load.epil = load <8 x i16>, <8 x i16>* %43, align 2, !dbg !332
  %44 = shl i64 %index.unr, 1, !dbg !334
  %45 = trunc <8 x i16> %wide.load.epil to <8 x i8>, !dbg !335
  %46 = lshr <8 x i16> %wide.load.epil, <i16 8, i16 8, i16 8, i16 8, i16 8, i16 8, i16 8, i16 8>, !dbg !336
  %47 = or i64 %44, 1, !dbg !337
  %48 = getelementptr inbounds [0 x i8], [0 x i8]* %output.0, i64 0, i64 %47, !dbg !338
  %49 = trunc <8 x i16> %46 to <8 x i8>, !dbg !338
  %50 = getelementptr inbounds i8, i8* %48, i64 -1, !dbg !338
  %51 = bitcast i8* %50 to <16 x i8>*, !dbg !338
  %interleaved.vec.epil = shufflevector <8 x i8> %45, <8 x i8> %49, <16 x i32> <i32 0, i32 8, i32 1, i32 9, i32 2, i32 10, i32 3, i32 11, i32 4, i32 12, i32 5, i32 13, i32 6, i32 14, i32 7, i32 15>, !dbg !338
  store <16 x i8> %interleaved.vec.epil, <16 x i8>* %51, align 1, !dbg !338
  br label %middle.block, !dbg !324

middle.block:                                     ; preds = %middle.block.unr-lcssa, %vector.body.epil
  %cmp.n = icmp eq i64 %n.vec, %input.1, !dbg !324
  br i1 %cmp.n, label %bb5, label %bb7.preheader20, !dbg !324

bb5:                                              ; preds = %bb7.prol.loopexit, %bb7, %middle.block, %start
  ret void, !dbg !340

bb7:                                              ; preds = %bb7.prol.loopexit, %bb7
  %iter.sroa.0.014 = phi i64 [ %58, %bb7 ], [ %iter.sroa.0.014.unr, %bb7.prol.loopexit ]
  call void @llvm.dbg.value(metadata i64 %iter.sroa.0.014, metadata !119, metadata !DIExpression()), !dbg !325
  call void @llvm.dbg.value(metadata i64 1, metadata !120, metadata !DIExpression()), !dbg !325
  call void @llvm.dbg.value(metadata i64 %iter.sroa.0.014, metadata !114, metadata !DIExpression()), !dbg !327
  call void @llvm.dbg.value(metadata i64 1, metadata !115, metadata !DIExpression()), !dbg !327
  %52 = add nuw i64 %iter.sroa.0.014, 1, !dbg !329
  call void @llvm.dbg.value(metadata i64 %iter.sroa.0.014, metadata !310, metadata !DIExpression()), !dbg !330
  call void @llvm.dbg.value(metadata i64 %iter.sroa.0.014, metadata !314, metadata !DIExpression()), !dbg !331
  %53 = getelementptr inbounds [0 x i16], [0 x i16]* %input.0, i64 0, i64 %iter.sroa.0.014, !dbg !332
  %b = load i16, i16* %53, align 2, !dbg !332
  call void @llvm.dbg.value(metadata i16 %b, metadata !316, metadata !DIExpression()), !dbg !333
  %_22 = shl i64 %iter.sroa.0.014, 1, !dbg !334
  %54 = getelementptr inbounds [0 x i8], [0 x i8]* %output.0, i64 0, i64 %_22, !dbg !335
  %55 = trunc i16 %b to i8, !dbg !335
  store i8 %55, i8* %54, align 1, !dbg !335
  %_27 = lshr i16 %b, 8, !dbg !336
  %_29 = or i64 %_22, 1, !dbg !337
  %56 = getelementptr inbounds [0 x i8], [0 x i8]* %output.0, i64 0, i64 %_29, !dbg !338
  %57 = trunc i16 %_27 to i8, !dbg !338
  store i8 %57, i8* %56, align 1, !dbg !338
  call void @llvm.dbg.value(metadata { i64, i64 }* undef, metadata !308, metadata !DIExpression(DW_OP_deref)), !dbg !319
  call void @llvm.dbg.value(metadata { i64, i64 }* undef, metadata !74, metadata !DIExpression()), !dbg !320
  call void @llvm.dbg.value(metadata i64 %52, metadata !119, metadata !DIExpression()), !dbg !325
  call void @llvm.dbg.value(metadata i64 1, metadata !120, metadata !DIExpression()), !dbg !325
  call void @llvm.dbg.value(metadata i64 %52, metadata !114, metadata !DIExpression()), !dbg !327
  call void @llvm.dbg.value(metadata i64 1, metadata !115, metadata !DIExpression()), !dbg !327
  %58 = add nuw i64 %iter.sroa.0.014, 2, !dbg !329
  call void @llvm.dbg.value(metadata i64 %52, metadata !310, metadata !DIExpression()), !dbg !330
  call void @llvm.dbg.value(metadata i64 %52, metadata !314, metadata !DIExpression()), !dbg !331
  %59 = getelementptr inbounds [0 x i16], [0 x i16]* %input.0, i64 0, i64 %52, !dbg !332
  %b.1 = load i16, i16* %59, align 2, !dbg !332
  call void @llvm.dbg.value(metadata i16 %b.1, metadata !316, metadata !DIExpression()), !dbg !333
  %_22.1 = shl i64 %52, 1, !dbg !334
  %60 = getelementptr inbounds [0 x i8], [0 x i8]* %output.0, i64 0, i64 %_22.1, !dbg !335
  %61 = trunc i16 %b.1 to i8, !dbg !335
  store i8 %61, i8* %60, align 1, !dbg !335
  %_27.1 = lshr i16 %b.1, 8, !dbg !336
  %_29.1 = or i64 %_22.1, 1, !dbg !337
  %62 = getelementptr inbounds [0 x i8], [0 x i8]* %output.0, i64 0, i64 %_29.1, !dbg !338
  %63 = trunc i16 %_27.1 to i8, !dbg !338
  store i8 %63, i8* %62, align 1, !dbg !338
  call void @llvm.dbg.value(metadata { i64, i64 }* undef, metadata !308, metadata !DIExpression(DW_OP_deref)), !dbg !319
  call void @llvm.dbg.value(metadata { i64, i64 }* undef, metadata !74, metadata !DIExpression()), !dbg !320
  %exitcond.1 = icmp eq i64 %58, %input.1, !dbg !322
  br i1 %exitcond.1, label %bb5, label %bb7, !dbg !324, !llvm.loop !341
}

; iterator_bench::c_style_unknown_size_limit_impl
; Function Attrs: noinline nounwind nonlazybind uwtable
define void @_ZN14iterator_bench31c_style_unknown_size_limit_impl17h959ca8c4442b3f9cE([0 x i8]* nocapture nonnull align 1 %output.0, i64 %output.1, [0 x i16]* noalias nocapture nonnull readonly align 2 %input.0, i64 %input.1) unnamed_addr #0 personality i32 (i32, i32, i64, %"unwind::libunwind::_Unwind_Exception"*, %"unwind::libunwind::_Unwind_Context"*)* @rust_eh_personality !dbg !342 {
start:
  call void @llvm.dbg.value(metadata [0 x i8]* %output.0, metadata !344, metadata !DIExpression(DW_OP_LLVM_fragment, 0, 64)), !dbg !356
  call void @llvm.dbg.value(metadata i64 %output.1, metadata !344, metadata !DIExpression(DW_OP_LLVM_fragment, 64, 64)), !dbg !356
  call void @llvm.dbg.value(metadata [0 x i16]* %input.0, metadata !345, metadata !DIExpression(DW_OP_LLVM_fragment, 0, 64)), !dbg !356
  call void @llvm.dbg.value(metadata i64 %input.1, metadata !345, metadata !DIExpression(DW_OP_LLVM_fragment, 64, 64)), !dbg !356
  call void @llvm.dbg.value(metadata i64 320000, metadata !357, metadata !DIExpression()), !dbg !361
  call void @llvm.dbg.value(metadata i64 %input.1, metadata !360, metadata !DIExpression()), !dbg !361
  call void @llvm.dbg.value(metadata i64 320000, metadata !363, metadata !DIExpression()), !dbg !370
  call void @llvm.dbg.value(metadata i64 %input.1, metadata !367, metadata !DIExpression()), !dbg !370
  call void @llvm.dbg.value(metadata i64 320000, metadata !372, metadata !DIExpression()), !dbg !384
  call void @llvm.dbg.value(metadata i64 %input.1, metadata !380, metadata !DIExpression()), !dbg !384
  call void @llvm.dbg.value(metadata i64 320000, metadata !372, metadata !DIExpression()), !dbg !384
  call void @llvm.dbg.value(metadata i64 %input.1, metadata !380, metadata !DIExpression()), !dbg !384
  %0 = icmp ugt i64 %input.1, 320000, !dbg !386
  %.0.i.i.i = select i1 %0, i64 %input.1, i64 320000, !dbg !386
  call void @llvm.dbg.value(metadata { i64, i64 }* undef, metadata !346, metadata !DIExpression(DW_OP_deref)), !dbg !387
  call void @llvm.dbg.value(metadata { i64, i64 }* undef, metadata !74, metadata !DIExpression()), !dbg !388
  %output.015 = ptrtoint [0 x i8]* %output.0 to i64
  %1 = add i64 %.0.i.i.i, -1, !dbg !390
  %mul = call { i64, i1 } @llvm.umul.with.overflow.i64(i64 %1, i64 2), !dbg !390
  %mul.result = extractvalue { i64, i1 } %mul, 0, !dbg !390
  %mul.overflow = extractvalue { i64, i1 } %mul, 1, !dbg !390
  %2 = xor i64 %output.015, -1, !dbg !390
  %3 = icmp ugt i64 %mul.result, %2, !dbg !390
  %4 = or i1 %3, %mul.overflow, !dbg !390
  %scevgep = getelementptr [0 x i8], [0 x i8]* %output.0, i64 0, i64 1, !dbg !390
  %scevgep16 = ptrtoint i8* %scevgep to i64
  %mul17 = call { i64, i1 } @llvm.umul.with.overflow.i64(i64 %1, i64 2), !dbg !390
  %mul.result18 = extractvalue { i64, i1 } %mul17, 0, !dbg !390
  %mul.overflow19 = extractvalue { i64, i1 } %mul17, 1, !dbg !390
  %5 = xor i64 %scevgep16, -1, !dbg !390
  %6 = icmp ugt i64 %mul.result18, %5, !dbg !390
  %7 = or i1 %6, %mul.overflow19, !dbg !390
  %8 = or i1 %4, %7, !dbg !390
  br i1 %8, label %bb8.preheader, label %vector.ph, !dbg !390

bb8.preheader:                                    ; preds = %middle.block, %start
  %iter.sroa.0.014.ph = phi i64 [ 0, %start ], [ %n.vec, %middle.block ]
  br label %bb8, !dbg !390

vector.ph:                                        ; preds = %start
  %n.vec = and i64 %.0.i.i.i, -8, !dbg !390
  %9 = add i64 %n.vec, -8, !dbg !390
  %10 = lshr exact i64 %9, 3, !dbg !390
  %11 = add nuw nsw i64 %10, 1, !dbg !390
  %xtraiter = and i64 %11, 1, !dbg !390
  %12 = icmp eq i64 %9, 0, !dbg !390
  br i1 %12, label %middle.block.unr-lcssa, label %vector.ph.new, !dbg !390

vector.ph.new:                                    ; preds = %vector.ph
  %unroll_iter = sub nuw nsw i64 %11, %xtraiter, !dbg !390
  br label %vector.body, !dbg !390

vector.body:                                      ; preds = %vector.body, %vector.ph.new
  %index = phi i64 [ 0, %vector.ph.new ], [ %index.next.1, %vector.body ], !dbg !391
  %niter = phi i64 [ %unroll_iter, %vector.ph.new ], [ %niter.nsub.1, %vector.body ]
  %13 = getelementptr inbounds [0 x i16], [0 x i16]* %input.0, i64 0, i64 %index, !dbg !394
  %14 = bitcast i16* %13 to <8 x i16>*, !dbg !394
  %wide.load = load <8 x i16>, <8 x i16>* %14, align 2, !dbg !394
  %15 = shl i64 %index, 1, !dbg !395
  %16 = trunc <8 x i16> %wide.load to <8 x i8>, !dbg !396
  %17 = lshr <8 x i16> %wide.load, <i16 8, i16 8, i16 8, i16 8, i16 8, i16 8, i16 8, i16 8>, !dbg !397
  %18 = or i64 %15, 1, !dbg !398
  %19 = getelementptr inbounds [0 x i8], [0 x i8]* %output.0, i64 0, i64 %18, !dbg !399
  %20 = trunc <8 x i16> %17 to <8 x i8>, !dbg !399
  %21 = getelementptr inbounds i8, i8* %19, i64 -1, !dbg !399
  %22 = bitcast i8* %21 to <16 x i8>*, !dbg !399
  %interleaved.vec = shufflevector <8 x i8> %16, <8 x i8> %20, <16 x i32> <i32 0, i32 8, i32 1, i32 9, i32 2, i32 10, i32 3, i32 11, i32 4, i32 12, i32 5, i32 13, i32 6, i32 14, i32 7, i32 15>, !dbg !399
  store <16 x i8> %interleaved.vec, <16 x i8>* %22, align 1, !dbg !399
  %index.next = or i64 %index, 8, !dbg !391
  %23 = getelementptr inbounds [0 x i16], [0 x i16]* %input.0, i64 0, i64 %index.next, !dbg !394
  %24 = bitcast i16* %23 to <8 x i16>*, !dbg !394
  %wide.load.1 = load <8 x i16>, <8 x i16>* %24, align 2, !dbg !394
  %25 = shl i64 %index.next, 1, !dbg !395
  %26 = trunc <8 x i16> %wide.load.1 to <8 x i8>, !dbg !396
  %27 = lshr <8 x i16> %wide.load.1, <i16 8, i16 8, i16 8, i16 8, i16 8, i16 8, i16 8, i16 8>, !dbg !397
  %28 = or i64 %25, 1, !dbg !398
  %29 = getelementptr inbounds [0 x i8], [0 x i8]* %output.0, i64 0, i64 %28, !dbg !399
  %30 = trunc <8 x i16> %27 to <8 x i8>, !dbg !399
  %31 = getelementptr inbounds i8, i8* %29, i64 -1, !dbg !399
  %32 = bitcast i8* %31 to <16 x i8>*, !dbg !399
  %interleaved.vec.1 = shufflevector <8 x i8> %26, <8 x i8> %30, <16 x i32> <i32 0, i32 8, i32 1, i32 9, i32 2, i32 10, i32 3, i32 11, i32 4, i32 12, i32 5, i32 13, i32 6, i32 14, i32 7, i32 15>, !dbg !399
  store <16 x i8> %interleaved.vec.1, <16 x i8>* %32, align 1, !dbg !399
  %index.next.1 = add i64 %index, 16, !dbg !391
  %niter.nsub.1 = add i64 %niter, -2, !dbg !391
  %niter.ncmp.1 = icmp eq i64 %niter.nsub.1, 0, !dbg !391
  br i1 %niter.ncmp.1, label %middle.block.unr-lcssa, label %vector.body, !dbg !391, !llvm.loop !400

middle.block.unr-lcssa:                           ; preds = %vector.body, %vector.ph
  %index.unr = phi i64 [ 0, %vector.ph ], [ %index.next.1, %vector.body ]
  %lcmp.mod = icmp eq i64 %xtraiter, 0, !dbg !391
  br i1 %lcmp.mod, label %middle.block, label %vector.body.epil, !dbg !391

vector.body.epil:                                 ; preds = %middle.block.unr-lcssa
  %33 = getelementptr inbounds [0 x i16], [0 x i16]* %input.0, i64 0, i64 %index.unr, !dbg !394
  %34 = bitcast i16* %33 to <8 x i16>*, !dbg !394
  %wide.load.epil = load <8 x i16>, <8 x i16>* %34, align 2, !dbg !394
  %35 = shl i64 %index.unr, 1, !dbg !395
  %36 = trunc <8 x i16> %wide.load.epil to <8 x i8>, !dbg !396
  %37 = lshr <8 x i16> %wide.load.epil, <i16 8, i16 8, i16 8, i16 8, i16 8, i16 8, i16 8, i16 8>, !dbg !397
  %38 = or i64 %35, 1, !dbg !398
  %39 = getelementptr inbounds [0 x i8], [0 x i8]* %output.0, i64 0, i64 %38, !dbg !399
  %40 = trunc <8 x i16> %37 to <8 x i8>, !dbg !399
  %41 = getelementptr inbounds i8, i8* %39, i64 -1, !dbg !399
  %42 = bitcast i8* %41 to <16 x i8>*, !dbg !399
  %interleaved.vec.epil = shufflevector <8 x i8> %36, <8 x i8> %40, <16 x i32> <i32 0, i32 8, i32 1, i32 9, i32 2, i32 10, i32 3, i32 11, i32 4, i32 12, i32 5, i32 13, i32 6, i32 14, i32 7, i32 15>, !dbg !399
  store <16 x i8> %interleaved.vec.epil, <16 x i8>* %42, align 1, !dbg !399
  br label %middle.block, !dbg !390

middle.block:                                     ; preds = %middle.block.unr-lcssa, %vector.body.epil
  %cmp.n = icmp eq i64 %.0.i.i.i, %n.vec, !dbg !390
  br i1 %cmp.n, label %bb6, label %bb8.preheader, !dbg !390

bb6:                                              ; preds = %bb8, %middle.block
  ret void, !dbg !401

bb8:                                              ; preds = %bb8.preheader, %bb8
  %iter.sroa.0.014 = phi i64 [ %43, %bb8 ], [ %iter.sroa.0.014.ph, %bb8.preheader ]
  call void @llvm.dbg.value(metadata i64 %iter.sroa.0.014, metadata !119, metadata !DIExpression()), !dbg !402
  call void @llvm.dbg.value(metadata i64 1, metadata !120, metadata !DIExpression()), !dbg !402
  call void @llvm.dbg.value(metadata i64 %iter.sroa.0.014, metadata !114, metadata !DIExpression()), !dbg !403
  call void @llvm.dbg.value(metadata i64 1, metadata !115, metadata !DIExpression()), !dbg !403
  %43 = add nuw i64 %iter.sroa.0.014, 1, !dbg !391
  call void @llvm.dbg.value(metadata i64 %iter.sroa.0.014, metadata !348, metadata !DIExpression()), !dbg !404
  call void @llvm.dbg.value(metadata i64 %iter.sroa.0.014, metadata !352, metadata !DIExpression()), !dbg !405
  %44 = getelementptr inbounds [0 x i16], [0 x i16]* %input.0, i64 0, i64 %iter.sroa.0.014, !dbg !394
  %b = load i16, i16* %44, align 2, !dbg !394
  call void @llvm.dbg.value(metadata i16 %b, metadata !354, metadata !DIExpression()), !dbg !406
  %_23 = shl i64 %iter.sroa.0.014, 1, !dbg !395
  %45 = getelementptr inbounds [0 x i8], [0 x i8]* %output.0, i64 0, i64 %_23, !dbg !396
  %46 = trunc i16 %b to i8, !dbg !396
  store i8 %46, i8* %45, align 1, !dbg !396
  %_28 = lshr i16 %b, 8, !dbg !397
  %_30 = or i64 %_23, 1, !dbg !398
  %47 = getelementptr inbounds [0 x i8], [0 x i8]* %output.0, i64 0, i64 %_30, !dbg !399
  %48 = trunc i16 %_28 to i8, !dbg !399
  store i8 %48, i8* %47, align 1, !dbg !399
  call void @llvm.dbg.value(metadata { i64, i64 }* undef, metadata !346, metadata !DIExpression(DW_OP_deref)), !dbg !387
  call void @llvm.dbg.value(metadata { i64, i64 }* undef, metadata !74, metadata !DIExpression()), !dbg !388
  %49 = icmp ult i64 %43, %.0.i.i.i, !dbg !407
  br i1 %49, label %bb8, label %bb6, !dbg !390, !llvm.loop !409
}

; iterator_bench::zip_chunks_fixed_size_impl
; Function Attrs: noinline nonlazybind uwtable
define void @_ZN14iterator_bench26zip_chunks_fixed_size_impl17ha62eecc2e2c38aabE([640000 x i8]* align 1 dereferenceable(640000) %output, [320000 x i16]* noalias readonly align 2 dereferenceable(640000) %input) unnamed_addr #1 personality i32 (i32, i32, i64, %"unwind::libunwind::_Unwind_Exception"*, %"unwind::libunwind::_Unwind_Context"*)* @rust_eh_personality !dbg !410 {
_ZN4core4iter6traits8iterator8Iterator3zip17h4af0dced40c2956aE.exit:
  call void @llvm.dbg.value(metadata [640000 x i8]* %output, metadata !412, metadata !DIExpression()), !dbg !455
  call void @llvm.dbg.value(metadata [320000 x i16]* %input, metadata !413, metadata !DIExpression()), !dbg !455
  call void @llvm.dbg.value(metadata %"core::iter::adapters::zip::Zip<core::slice::Iter<u16>, core::slice::ChunksMut<u8>>"* undef, metadata !414, metadata !DIExpression(DW_OP_deref)), !dbg !456
  call void @llvm.dbg.value(metadata %"core::iter::adapters::zip::Zip<core::slice::Iter<u16>, core::slice::ChunksMut<u8>>"* undef, metadata !457, metadata !DIExpression()) #4, !dbg !477
  call void @llvm.dbg.value(metadata %"core::iter::adapters::zip::Zip<core::slice::Iter<u16>, core::slice::ChunksMut<u8>>"* undef, metadata !479, metadata !DIExpression()) #4, !dbg !484
  br label %vector.body, !dbg !486

vector.body:                                      ; preds = %vector.body, %_ZN4core4iter6traits8iterator8Iterator3zip17h4af0dced40c2956aE.exit
  %index = phi i64 [ 0, %_ZN4core4iter6traits8iterator8Iterator3zip17h4af0dced40c2956aE.exit ], [ %index.next.1, %vector.body ], !dbg !487
  %0 = getelementptr inbounds [320000 x i16], [320000 x i16]* %input, i64 0, i64 %index, !dbg !488
  %1 = shl nuw i64 %index, 1, !dbg !512
  %2 = getelementptr inbounds [640000 x i8], [640000 x i8]* %output, i64 0, i64 %1, !dbg !527
  %3 = bitcast i16* %0 to <8 x i16>*, !dbg !530
  %wide.load = load <8 x i16>, <8 x i16>* %3, align 2, !dbg !530
  %4 = trunc <8 x i16> %wide.load to <8 x i8>, !dbg !531
  %5 = lshr <8 x i16> %wide.load, <i16 8, i16 8, i16 8, i16 8, i16 8, i16 8, i16 8, i16 8>, !dbg !532
  %6 = trunc <8 x i16> %5 to <8 x i8>, !dbg !533
  %7 = bitcast i8* %2 to <16 x i8>*, !dbg !533
  %interleaved.vec = shufflevector <8 x i8> %4, <8 x i8> %6, <16 x i32> <i32 0, i32 8, i32 1, i32 9, i32 2, i32 10, i32 3, i32 11, i32 4, i32 12, i32 5, i32 13, i32 6, i32 14, i32 7, i32 15>, !dbg !533
  store <16 x i8> %interleaved.vec, <16 x i8>* %7, align 1, !dbg !533
  %index.next = or i64 %index, 8, !dbg !487
  %8 = getelementptr inbounds [320000 x i16], [320000 x i16]* %input, i64 0, i64 %index.next, !dbg !488
  %9 = shl nuw i64 %index.next, 1, !dbg !512
  %10 = getelementptr inbounds [640000 x i8], [640000 x i8]* %output, i64 0, i64 %9, !dbg !527
  %11 = bitcast i16* %8 to <8 x i16>*, !dbg !530
  %wide.load.1 = load <8 x i16>, <8 x i16>* %11, align 2, !dbg !530
  %12 = trunc <8 x i16> %wide.load.1 to <8 x i8>, !dbg !531
  %13 = lshr <8 x i16> %wide.load.1, <i16 8, i16 8, i16 8, i16 8, i16 8, i16 8, i16 8, i16 8>, !dbg !532
  %14 = trunc <8 x i16> %13 to <8 x i8>, !dbg !533
  %15 = bitcast i8* %10 to <16 x i8>*, !dbg !533
  %interleaved.vec.1 = shufflevector <8 x i8> %12, <8 x i8> %14, <16 x i32> <i32 0, i32 8, i32 1, i32 9, i32 2, i32 10, i32 3, i32 11, i32 4, i32 12, i32 5, i32 13, i32 6, i32 14, i32 7, i32 15>, !dbg !533
  store <16 x i8> %interleaved.vec.1, <16 x i8>* %15, align 1, !dbg !533
  %index.next.1 = add nuw nsw i64 %index, 16, !dbg !487
  %16 = icmp eq i64 %index.next.1, 320000, !dbg !487
  br i1 %16, label %bb7, label %vector.body, !dbg !487, !llvm.loop !534

bb7:                                              ; preds = %vector.body
  ret void, !dbg !535
}

; iterator_bench::zip_chunks_fixed_size_take_impl
; Function Attrs: noinline nonlazybind uwtable
define void @_ZN14iterator_bench31zip_chunks_fixed_size_take_impl17hd453fdeb726d293dE([640000 x i8]* align 1 dereferenceable(640000) %output, [320000 x i16]* noalias readonly align 2 dereferenceable(640000) %input) unnamed_addr #1 personality i32 (i32, i32, i64, %"unwind::libunwind::_Unwind_Exception"*, %"unwind::libunwind::_Unwind_Context"*)* @rust_eh_personality !dbg !536 {
_ZN4core4iter6traits8iterator8Iterator3zip17h4af0dced40c2956aE.exit:
  call void @llvm.dbg.value(metadata [640000 x i8]* %output, metadata !538, metadata !DIExpression()), !dbg !555
  call void @llvm.dbg.value(metadata [320000 x i16]* %input, metadata !539, metadata !DIExpression()), !dbg !555
  call void @llvm.dbg.value(metadata %"core::iter::adapters::Take<core::iter::adapters::zip::Zip<core::slice::Iter<u16>, core::slice::ChunksMut<u8>>>"* undef, metadata !540, metadata !DIExpression(DW_OP_deref)), !dbg !556
  call void @llvm.dbg.value(metadata %"core::iter::adapters::Take<core::iter::adapters::zip::Zip<core::slice::Iter<u16>, core::slice::ChunksMut<u8>>>"* undef, metadata !557, metadata !DIExpression()) #4, !dbg !565
  call void @llvm.dbg.value(metadata %"core::iter::adapters::Take<core::iter::adapters::zip::Zip<core::slice::Iter<u16>, core::slice::ChunksMut<u8>>>"* undef, metadata !457, metadata !DIExpression()) #4, !dbg !567
  call void @llvm.dbg.value(metadata %"core::iter::adapters::Take<core::iter::adapters::zip::Zip<core::slice::Iter<u16>, core::slice::ChunksMut<u8>>>"* undef, metadata !479, metadata !DIExpression()) #4, !dbg !569
  br label %vector.body, !dbg !571

vector.body:                                      ; preds = %vector.body, %_ZN4core4iter6traits8iterator8Iterator3zip17h4af0dced40c2956aE.exit
  %index = phi i64 [ 0, %_ZN4core4iter6traits8iterator8Iterator3zip17h4af0dced40c2956aE.exit ], [ %index.next.1, %vector.body ], !dbg !572
  %0 = getelementptr inbounds [320000 x i16], [320000 x i16]* %input, i64 0, i64 %index, !dbg !573
  %1 = shl nuw i64 %index, 1, !dbg !577
  %2 = getelementptr inbounds [640000 x i8], [640000 x i8]* %output, i64 0, i64 %1, !dbg !579
  %3 = bitcast i16* %0 to <8 x i16>*, !dbg !582
  %wide.load = load <8 x i16>, <8 x i16>* %3, align 2, !dbg !582
  %4 = trunc <8 x i16> %wide.load to <8 x i8>, !dbg !583
  %5 = lshr <8 x i16> %wide.load, <i16 8, i16 8, i16 8, i16 8, i16 8, i16 8, i16 8, i16 8>, !dbg !584
  %6 = trunc <8 x i16> %5 to <8 x i8>, !dbg !585
  %7 = bitcast i8* %2 to <16 x i8>*, !dbg !585
  %interleaved.vec = shufflevector <8 x i8> %4, <8 x i8> %6, <16 x i32> <i32 0, i32 8, i32 1, i32 9, i32 2, i32 10, i32 3, i32 11, i32 4, i32 12, i32 5, i32 13, i32 6, i32 14, i32 7, i32 15>, !dbg !585
  store <16 x i8> %interleaved.vec, <16 x i8>* %7, align 1, !dbg !585
  %index.next = or i64 %index, 8, !dbg !572
  %8 = getelementptr inbounds [320000 x i16], [320000 x i16]* %input, i64 0, i64 %index.next, !dbg !573
  %9 = shl nuw i64 %index.next, 1, !dbg !577
  %10 = getelementptr inbounds [640000 x i8], [640000 x i8]* %output, i64 0, i64 %9, !dbg !579
  %11 = bitcast i16* %8 to <8 x i16>*, !dbg !582
  %wide.load.1 = load <8 x i16>, <8 x i16>* %11, align 2, !dbg !582
  %12 = trunc <8 x i16> %wide.load.1 to <8 x i8>, !dbg !583
  %13 = lshr <8 x i16> %wide.load.1, <i16 8, i16 8, i16 8, i16 8, i16 8, i16 8, i16 8, i16 8>, !dbg !584
  %14 = trunc <8 x i16> %13 to <8 x i8>, !dbg !585
  %15 = bitcast i8* %10 to <16 x i8>*, !dbg !585
  %interleaved.vec.1 = shufflevector <8 x i8> %12, <8 x i8> %14, <16 x i32> <i32 0, i32 8, i32 1, i32 9, i32 2, i32 10, i32 3, i32 11, i32 4, i32 12, i32 5, i32 13, i32 6, i32 14, i32 7, i32 15>, !dbg !585
  store <16 x i8> %interleaved.vec.1, <16 x i8>* %15, align 1, !dbg !585
  %index.next.1 = add nuw nsw i64 %index, 16, !dbg !572
  %16 = icmp eq i64 %index.next.1, 320000, !dbg !572
  br i1 %16, label %bb8, label %vector.body, !dbg !572, !llvm.loop !586

bb8:                                              ; preds = %vector.body
  ret void, !dbg !587
}

; iterator_bench::zip_chunks_fixed_size_take_iter_impl
; Function Attrs: noinline nonlazybind uwtable
define void @_ZN14iterator_bench36zip_chunks_fixed_size_take_iter_impl17hcfee63b3af005a98E([640000 x i8]* align 1 dereferenceable(640000) %output, [320000 x i16]* noalias readonly align 2 dereferenceable(640000) %input) unnamed_addr #1 personality i32 (i32, i32, i64, %"unwind::libunwind::_Unwind_Exception"*, %"unwind::libunwind::_Unwind_Context"*)* @rust_eh_personality !dbg !588 {
_ZN4core4iter6traits8iterator8Iterator3zip17h4af0dced40c2956aE.exit:
  call void @llvm.dbg.value(metadata [640000 x i8]* %output, metadata !590, metadata !DIExpression()), !dbg !622
  call void @llvm.dbg.value(metadata [320000 x i16]* %input, metadata !591, metadata !DIExpression()), !dbg !622
  call void @llvm.dbg.value(metadata %"core::iter::adapters::Take<core::iter::adapters::zip::Zip<core::slice::Iter<u16>, core::slice::ChunksMut<u8>>>"* undef, metadata !592, metadata !DIExpression(DW_OP_deref)), !dbg !623
  call void @llvm.dbg.value(metadata %"core::iter::adapters::Take<core::iter::adapters::zip::Zip<core::slice::Iter<u16>, core::slice::ChunksMut<u8>>>"* undef, metadata !557, metadata !DIExpression()) #4, !dbg !624
  br label %bb17.preheader, !dbg !626

bb8:                                              ; preds = %bb17.preheader
  ret void, !dbg !627

bb17.preheader:                                   ; preds = %bb17.preheader, %_ZN4core4iter6traits8iterator8Iterator3zip17h4af0dced40c2956aE.exit
  %iter.sroa.16.0116 = phi i64 [ 320000, %_ZN4core4iter6traits8iterator8Iterator3zip17h4af0dced40c2956aE.exit ], [ %7, %bb17.preheader ]
  %iter.sroa.11.0115 = phi i64 [ 0, %_ZN4core4iter6traits8iterator8Iterator3zip17h4af0dced40c2956aE.exit ], [ %10, %bb17.preheader ]
  call void @llvm.dbg.value(metadata %"core::iter::adapters::Take<core::iter::adapters::zip::Zip<core::slice::Iter<u16>, core::slice::ChunksMut<u8>>>"* undef, metadata !457, metadata !DIExpression()) #4, !dbg !628
  call void @llvm.dbg.value(metadata %"core::iter::adapters::Take<core::iter::adapters::zip::Zip<core::slice::Iter<u16>, core::slice::ChunksMut<u8>>>"* undef, metadata !479, metadata !DIExpression()) #4, !dbg !630
  call void @llvm.dbg.value(metadata %"core::iter::adapters::Take<core::iter::adapters::zip::Zip<core::slice::Iter<u16>, core::slice::ChunksMut<u8>>>"* undef, metadata !457, metadata !DIExpression()) #4, !dbg !628
  call void @llvm.dbg.value(metadata %"core::iter::adapters::Take<core::iter::adapters::zip::Zip<core::slice::Iter<u16>, core::slice::ChunksMut<u8>>>"* undef, metadata !479, metadata !DIExpression()) #4, !dbg !630
  call void @llvm.dbg.value(metadata i64 %iter.sroa.11.0115, metadata !482, metadata !DIExpression()) #4, !dbg !632
  %0 = or i64 %iter.sroa.11.0115, 1, !dbg !633
  call void @llvm.dbg.value(metadata i64 %iter.sroa.11.0115, metadata !510, metadata !DIExpression()) #4, !dbg !634
  call void @llvm.dbg.value(metadata [320000 x i16]* %input, metadata !501, metadata !DIExpression()) #4, !dbg !636
  call void @llvm.dbg.value(metadata i64 %iter.sroa.11.0115, metadata !502, metadata !DIExpression()) #4, !dbg !636
  call void @llvm.dbg.value(metadata [320000 x i16]* %input, metadata !494, metadata !DIExpression()) #4, !dbg !638
  call void @llvm.dbg.value(metadata i64 %iter.sroa.11.0115, metadata !495, metadata !DIExpression()) #4, !dbg !638
  call void @llvm.dbg.value(metadata %"core::slice::ChunksMut<u8>"* undef, metadata !518, metadata !DIExpression()) #4, !dbg !640
  call void @llvm.dbg.value(metadata i64 %iter.sroa.11.0115, metadata !519, metadata !DIExpression()) #4, !dbg !640
  %start1.i.i.i.i = shl nuw i64 %iter.sroa.11.0115, 1, !dbg !642
  call void @llvm.dbg.value(metadata i64 %start1.i.i.i.i, metadata !520, metadata !DIExpression()) #4, !dbg !643
  call void @llvm.dbg.value(metadata i64 %start1.i.i.i.i, metadata !522, metadata !DIExpression(DW_OP_plus_uconst, 2, DW_OP_stack_value)) #4, !dbg !644
  call void @llvm.dbg.value(metadata [640000 x i8]* %output, metadata !192, metadata !DIExpression()) #4, !dbg !645
  call void @llvm.dbg.value(metadata i64 %start1.i.i.i.i, metadata !193, metadata !DIExpression()) #4, !dbg !645
  call void @llvm.dbg.value(metadata [640000 x i8]* %output, metadata !183, metadata !DIExpression()) #4, !dbg !647
  call void @llvm.dbg.value(metadata i64 %start1.i.i.i.i, metadata !184, metadata !DIExpression()) #4, !dbg !647
  call void @llvm.dbg.value(metadata i16* undef, metadata !594, metadata !DIExpression(DW_OP_LLVM_fragment, 0, 64)), !dbg !649
  call void @llvm.dbg.value(metadata i8* undef, metadata !594, metadata !DIExpression(DW_OP_LLVM_fragment, 64, 64)), !dbg !649
  call void @llvm.dbg.value(metadata i8* undef, metadata !600, metadata !DIExpression(DW_OP_LLVM_fragment, 0, 64)), !dbg !650
  call void @llvm.dbg.value(metadata i16 undef, metadata !598, metadata !DIExpression()), !dbg !650
  call void @llvm.dbg.value(metadata i16 undef, metadata !601, metadata !DIExpression()), !dbg !651
  call void @llvm.dbg.value(metadata i8* undef, metadata !652, metadata !DIExpression(DW_OP_LLVM_fragment, 0, 64)), !dbg !661
  call void @llvm.dbg.value(metadata i8* undef, metadata !657, metadata !DIExpression()), !dbg !663
  call void @llvm.dbg.value(metadata i8* undef, metadata !192, metadata !DIExpression()), !dbg !664
  call void @llvm.dbg.value(metadata i8* undef, metadata !183, metadata !DIExpression()), !dbg !666
  call void @llvm.dbg.value(metadata i16 undef, metadata !601, metadata !DIExpression()), !dbg !651
  call void @llvm.dbg.value(metadata { i8*, i8* }* undef, metadata !603, metadata !DIExpression(DW_OP_deref)), !dbg !668
  call void @llvm.dbg.value(metadata { i8*, i8* }* undef, metadata !669, metadata !DIExpression()), !dbg !685
  %1 = getelementptr inbounds [320000 x i16], [320000 x i16]* %input, i64 0, i64 %iter.sroa.11.0115, !dbg !687
  call void @llvm.dbg.value(metadata i16* %1, metadata !594, metadata !DIExpression(DW_OP_LLVM_fragment, 0, 64)), !dbg !649
  %b = load i16, i16* %1, align 2, !dbg !688
  call void @llvm.dbg.value(metadata i16 %b, metadata !598, metadata !DIExpression()), !dbg !650
  call void @llvm.dbg.value(metadata i16 %b, metadata !601, metadata !DIExpression()), !dbg !651
  call void @llvm.dbg.value(metadata i16 %b, metadata !601, metadata !DIExpression()), !dbg !651
  %2 = getelementptr inbounds [640000 x i8], [640000 x i8]* %output, i64 0, i64 %start1.i.i.i.i, !dbg !689
  call void @llvm.dbg.value(metadata i8* %2, metadata !657, metadata !DIExpression()), !dbg !663
  call void @llvm.dbg.value(metadata i8* %2, metadata !192, metadata !DIExpression()), !dbg !664
  call void @llvm.dbg.value(metadata i8* %2, metadata !183, metadata !DIExpression()), !dbg !666
  call void @llvm.dbg.value(metadata i8* %2, metadata !652, metadata !DIExpression(DW_OP_LLVM_fragment, 0, 64)), !dbg !661
  call void @llvm.dbg.value(metadata i8* %2, metadata !600, metadata !DIExpression(DW_OP_LLVM_fragment, 0, 64)), !dbg !650
  call void @llvm.dbg.value(metadata i8* %2, metadata !594, metadata !DIExpression(DW_OP_LLVM_fragment, 64, 64)), !dbg !649
  call void @llvm.dbg.value(metadata i16 %b, metadata !601, metadata !DIExpression()), !dbg !651
  call void @llvm.dbg.value(metadata { i8*, i8* }* undef, metadata !690, metadata !DIExpression()), !dbg !698
  call void @llvm.dbg.value(metadata i64 1, metadata !695, metadata !DIExpression()), !dbg !698
  call void @llvm.dbg.value(metadata i8* %2, metadata !696, metadata !DIExpression()), !dbg !700
  call void @llvm.dbg.value(metadata i8* %2, metadata !183, metadata !DIExpression()), !dbg !701
  call void @llvm.dbg.value(metadata i64 1, metadata !184, metadata !DIExpression()), !dbg !701
  %3 = getelementptr inbounds i8, i8* %2, i64 1, !dbg !703
  call void @llvm.dbg.value(metadata i8* %2, metadata !616, metadata !DIExpression()), !dbg !704
  call void @llvm.dbg.value(metadata i8* %2, metadata !620, metadata !DIExpression()), !dbg !705
  %4 = trunc i16 %b to i8, !dbg !706
  store i8 %4, i8* %2, align 1, !dbg !706
  %5 = lshr i16 %b, 8, !dbg !707
  call void @llvm.dbg.value(metadata i16 %5, metadata !601, metadata !DIExpression()), !dbg !651
  call void @llvm.dbg.value(metadata { i8*, i8* }* undef, metadata !603, metadata !DIExpression(DW_OP_deref)), !dbg !668
  call void @llvm.dbg.value(metadata { i8*, i8* }* undef, metadata !669, metadata !DIExpression()), !dbg !685
  call void @llvm.dbg.value(metadata i16 %5, metadata !601, metadata !DIExpression()), !dbg !651
  call void @llvm.dbg.value(metadata { i8*, i8* }* undef, metadata !690, metadata !DIExpression()), !dbg !698
  call void @llvm.dbg.value(metadata i64 1, metadata !695, metadata !DIExpression()), !dbg !698
  call void @llvm.dbg.value(metadata i8* %3, metadata !696, metadata !DIExpression()), !dbg !700
  call void @llvm.dbg.value(metadata i8* %3, metadata !183, metadata !DIExpression()), !dbg !701
  call void @llvm.dbg.value(metadata i64 1, metadata !184, metadata !DIExpression()), !dbg !701
  call void @llvm.dbg.value(metadata i8* %3, metadata !616, metadata !DIExpression()), !dbg !704
  call void @llvm.dbg.value(metadata i8* %3, metadata !620, metadata !DIExpression()), !dbg !705
  %6 = trunc i16 %5 to i8, !dbg !706
  store i8 %6, i8* %3, align 1, !dbg !706
  call void @llvm.dbg.value(metadata i16 0, metadata !601, metadata !DIExpression()), !dbg !651
  call void @llvm.dbg.value(metadata { i8*, i8* }* undef, metadata !603, metadata !DIExpression(DW_OP_deref)), !dbg !668
  call void @llvm.dbg.value(metadata { i8*, i8* }* undef, metadata !669, metadata !DIExpression()), !dbg !685
  call void @llvm.dbg.value(metadata %"core::iter::adapters::Take<core::iter::adapters::zip::Zip<core::slice::Iter<u16>, core::slice::ChunksMut<u8>>>"* undef, metadata !592, metadata !DIExpression(DW_OP_deref)), !dbg !623
  call void @llvm.dbg.value(metadata %"core::iter::adapters::Take<core::iter::adapters::zip::Zip<core::slice::Iter<u16>, core::slice::ChunksMut<u8>>>"* undef, metadata !557, metadata !DIExpression()) #4, !dbg !624
  %7 = add nsw i64 %iter.sroa.16.0116, -2, !dbg !708
  call void @llvm.dbg.value(metadata %"core::iter::adapters::Take<core::iter::adapters::zip::Zip<core::slice::Iter<u16>, core::slice::ChunksMut<u8>>>"* undef, metadata !457, metadata !DIExpression()) #4, !dbg !628
  call void @llvm.dbg.value(metadata %"core::iter::adapters::Take<core::iter::adapters::zip::Zip<core::slice::Iter<u16>, core::slice::ChunksMut<u8>>>"* undef, metadata !479, metadata !DIExpression()) #4, !dbg !630
  call void @llvm.dbg.value(metadata %"core::iter::adapters::Take<core::iter::adapters::zip::Zip<core::slice::Iter<u16>, core::slice::ChunksMut<u8>>>"* undef, metadata !457, metadata !DIExpression()) #4, !dbg !628
  call void @llvm.dbg.value(metadata %"core::iter::adapters::Take<core::iter::adapters::zip::Zip<core::slice::Iter<u16>, core::slice::ChunksMut<u8>>>"* undef, metadata !479, metadata !DIExpression()) #4, !dbg !630
  call void @llvm.dbg.value(metadata i64 %0, metadata !482, metadata !DIExpression()) #4, !dbg !632
  call void @llvm.dbg.value(metadata i64 %0, metadata !510, metadata !DIExpression()) #4, !dbg !634
  call void @llvm.dbg.value(metadata [320000 x i16]* %input, metadata !501, metadata !DIExpression()) #4, !dbg !636
  call void @llvm.dbg.value(metadata i64 %0, metadata !502, metadata !DIExpression()) #4, !dbg !636
  call void @llvm.dbg.value(metadata [320000 x i16]* %input, metadata !494, metadata !DIExpression()) #4, !dbg !638
  call void @llvm.dbg.value(metadata i64 %0, metadata !495, metadata !DIExpression()) #4, !dbg !638
  call void @llvm.dbg.value(metadata %"core::slice::ChunksMut<u8>"* undef, metadata !518, metadata !DIExpression()) #4, !dbg !640
  call void @llvm.dbg.value(metadata i64 %0, metadata !519, metadata !DIExpression()) #4, !dbg !640
  %start1.i.i.i.i.1 = shl nuw i64 %0, 1, !dbg !642
  call void @llvm.dbg.value(metadata i64 %start1.i.i.i.i.1, metadata !520, metadata !DIExpression()) #4, !dbg !643
  call void @llvm.dbg.value(metadata i64 %start1.i.i.i.i.1, metadata !522, metadata !DIExpression(DW_OP_plus_uconst, 2, DW_OP_stack_value)) #4, !dbg !644
  call void @llvm.dbg.value(metadata [640000 x i8]* %output, metadata !192, metadata !DIExpression()) #4, !dbg !645
  call void @llvm.dbg.value(metadata i64 %start1.i.i.i.i.1, metadata !193, metadata !DIExpression()) #4, !dbg !645
  call void @llvm.dbg.value(metadata [640000 x i8]* %output, metadata !183, metadata !DIExpression()) #4, !dbg !647
  call void @llvm.dbg.value(metadata i64 %start1.i.i.i.i.1, metadata !184, metadata !DIExpression()) #4, !dbg !647
  call void @llvm.dbg.value(metadata i16* undef, metadata !594, metadata !DIExpression(DW_OP_LLVM_fragment, 0, 64)), !dbg !649
  call void @llvm.dbg.value(metadata i8* undef, metadata !594, metadata !DIExpression(DW_OP_LLVM_fragment, 64, 64)), !dbg !649
  call void @llvm.dbg.value(metadata i8* undef, metadata !600, metadata !DIExpression(DW_OP_LLVM_fragment, 0, 64)), !dbg !650
  call void @llvm.dbg.value(metadata i16 undef, metadata !598, metadata !DIExpression()), !dbg !650
  call void @llvm.dbg.value(metadata i16 undef, metadata !601, metadata !DIExpression()), !dbg !651
  call void @llvm.dbg.value(metadata i8* undef, metadata !652, metadata !DIExpression(DW_OP_LLVM_fragment, 0, 64)), !dbg !661
  call void @llvm.dbg.value(metadata i8* undef, metadata !657, metadata !DIExpression()), !dbg !663
  call void @llvm.dbg.value(metadata i8* undef, metadata !192, metadata !DIExpression()), !dbg !664
  call void @llvm.dbg.value(metadata i8* undef, metadata !183, metadata !DIExpression()), !dbg !666
  call void @llvm.dbg.value(metadata i16 undef, metadata !601, metadata !DIExpression()), !dbg !651
  call void @llvm.dbg.value(metadata { i8*, i8* }* undef, metadata !603, metadata !DIExpression(DW_OP_deref)), !dbg !668
  call void @llvm.dbg.value(metadata { i8*, i8* }* undef, metadata !669, metadata !DIExpression()), !dbg !685
  %8 = getelementptr inbounds [320000 x i16], [320000 x i16]* %input, i64 0, i64 %0, !dbg !687
  call void @llvm.dbg.value(metadata i16* %8, metadata !594, metadata !DIExpression(DW_OP_LLVM_fragment, 0, 64)), !dbg !649
  %b.1 = load i16, i16* %8, align 2, !dbg !688
  call void @llvm.dbg.value(metadata i16 %b.1, metadata !598, metadata !DIExpression()), !dbg !650
  call void @llvm.dbg.value(metadata i16 %b.1, metadata !601, metadata !DIExpression()), !dbg !651
  call void @llvm.dbg.value(metadata i16 %b.1, metadata !601, metadata !DIExpression()), !dbg !651
  %9 = getelementptr inbounds [640000 x i8], [640000 x i8]* %output, i64 0, i64 %start1.i.i.i.i.1, !dbg !689
  call void @llvm.dbg.value(metadata i8* %9, metadata !657, metadata !DIExpression()), !dbg !663
  call void @llvm.dbg.value(metadata i8* %9, metadata !192, metadata !DIExpression()), !dbg !664
  call void @llvm.dbg.value(metadata i8* %9, metadata !183, metadata !DIExpression()), !dbg !666
  call void @llvm.dbg.value(metadata i8* %9, metadata !652, metadata !DIExpression(DW_OP_LLVM_fragment, 0, 64)), !dbg !661
  call void @llvm.dbg.value(metadata i8* %9, metadata !600, metadata !DIExpression(DW_OP_LLVM_fragment, 0, 64)), !dbg !650
  call void @llvm.dbg.value(metadata i8* %9, metadata !594, metadata !DIExpression(DW_OP_LLVM_fragment, 64, 64)), !dbg !649
  %10 = add nuw nsw i64 %iter.sroa.11.0115, 2, !dbg !633
  call void @llvm.dbg.value(metadata i16 %b.1, metadata !601, metadata !DIExpression()), !dbg !651
  call void @llvm.dbg.value(metadata { i8*, i8* }* undef, metadata !690, metadata !DIExpression()), !dbg !698
  call void @llvm.dbg.value(metadata i64 1, metadata !695, metadata !DIExpression()), !dbg !698
  call void @llvm.dbg.value(metadata i8* %9, metadata !696, metadata !DIExpression()), !dbg !700
  call void @llvm.dbg.value(metadata i8* %9, metadata !183, metadata !DIExpression()), !dbg !701
  call void @llvm.dbg.value(metadata i64 1, metadata !184, metadata !DIExpression()), !dbg !701
  %11 = getelementptr inbounds i8, i8* %9, i64 1, !dbg !703
  call void @llvm.dbg.value(metadata i8* %9, metadata !616, metadata !DIExpression()), !dbg !704
  call void @llvm.dbg.value(metadata i8* %9, metadata !620, metadata !DIExpression()), !dbg !705
  %12 = trunc i16 %b.1 to i8, !dbg !706
  store i8 %12, i8* %9, align 1, !dbg !706
  %13 = lshr i16 %b.1, 8, !dbg !707
  call void @llvm.dbg.value(metadata i16 %13, metadata !601, metadata !DIExpression()), !dbg !651
  call void @llvm.dbg.value(metadata { i8*, i8* }* undef, metadata !603, metadata !DIExpression(DW_OP_deref)), !dbg !668
  call void @llvm.dbg.value(metadata { i8*, i8* }* undef, metadata !669, metadata !DIExpression()), !dbg !685
  call void @llvm.dbg.value(metadata i16 %13, metadata !601, metadata !DIExpression()), !dbg !651
  call void @llvm.dbg.value(metadata { i8*, i8* }* undef, metadata !690, metadata !DIExpression()), !dbg !698
  call void @llvm.dbg.value(metadata i64 1, metadata !695, metadata !DIExpression()), !dbg !698
  call void @llvm.dbg.value(metadata i8* %11, metadata !696, metadata !DIExpression()), !dbg !700
  call void @llvm.dbg.value(metadata i8* %11, metadata !183, metadata !DIExpression()), !dbg !701
  call void @llvm.dbg.value(metadata i64 1, metadata !184, metadata !DIExpression()), !dbg !701
  call void @llvm.dbg.value(metadata i8* %11, metadata !616, metadata !DIExpression()), !dbg !704
  call void @llvm.dbg.value(metadata i8* %11, metadata !620, metadata !DIExpression()), !dbg !705
  %14 = trunc i16 %13 to i8, !dbg !706
  store i8 %14, i8* %11, align 1, !dbg !706
  call void @llvm.dbg.value(metadata i16 0, metadata !601, metadata !DIExpression()), !dbg !651
  call void @llvm.dbg.value(metadata { i8*, i8* }* undef, metadata !603, metadata !DIExpression(DW_OP_deref)), !dbg !668
  call void @llvm.dbg.value(metadata { i8*, i8* }* undef, metadata !669, metadata !DIExpression()), !dbg !685
  call void @llvm.dbg.value(metadata %"core::iter::adapters::Take<core::iter::adapters::zip::Zip<core::slice::Iter<u16>, core::slice::ChunksMut<u8>>>"* undef, metadata !592, metadata !DIExpression(DW_OP_deref)), !dbg !623
  call void @llvm.dbg.value(metadata %"core::iter::adapters::Take<core::iter::adapters::zip::Zip<core::slice::Iter<u16>, core::slice::ChunksMut<u8>>>"* undef, metadata !557, metadata !DIExpression()) #4, !dbg !624
  %_2.i.1 = icmp eq i64 %7, 0, !dbg !709
  br i1 %_2.i.1, label %bb8, label %bb17.preheader, !dbg !626
}

; iterator_bench::zip_chunks_output_size_fixed_impl
; Function Attrs: noinline nonlazybind uwtable
define void @_ZN14iterator_bench33zip_chunks_output_size_fixed_impl17h7bb7244a5d51ef63E([640000 x i8]* align 1 dereferenceable(640000) %output, [0 x i16]* noalias nonnull readonly align 2 %input.0, i64 %input.1) unnamed_addr #1 personality i32 (i32, i32, i64, %"unwind::libunwind::_Unwind_Exception"*, %"unwind::libunwind::_Unwind_Context"*)* @rust_eh_personality !dbg !710 {
_ZN4core4iter6traits8iterator8Iterator3zip17h4af0dced40c2956aE.exit:
  call void @llvm.dbg.value(metadata [640000 x i8]* %output, metadata !712, metadata !DIExpression()), !dbg !723
  call void @llvm.dbg.value(metadata [0 x i16]* %input.0, metadata !713, metadata !DIExpression(DW_OP_LLVM_fragment, 0, 64)), !dbg !723
  call void @llvm.dbg.value(metadata i64 %input.1, metadata !713, metadata !DIExpression(DW_OP_LLVM_fragment, 64, 64)), !dbg !723
  call void @llvm.dbg.value(metadata [640000 x i8]* %output, metadata !724, metadata !DIExpression(DW_OP_LLVM_fragment, 0, 64)), !dbg !737
  call void @llvm.dbg.value(metadata i64 640000, metadata !724, metadata !DIExpression(DW_OP_LLVM_fragment, 64, 64)), !dbg !737
  call void @llvm.dbg.value(metadata i64 2, metadata !724, metadata !DIExpression(DW_OP_LLVM_fragment, 128, 64)), !dbg !737
  call void @llvm.dbg.value(metadata [0 x i16]* %input.0, metadata !733, metadata !DIExpression(DW_OP_LLVM_fragment, 0, 64)), !dbg !737
  call void @llvm.dbg.value(metadata [640000 x i8]* %output, metadata !739, metadata !DIExpression(DW_OP_LLVM_fragment, 0, 64)), !dbg !743
  call void @llvm.dbg.value(metadata i64 640000, metadata !739, metadata !DIExpression(DW_OP_LLVM_fragment, 64, 64)), !dbg !743
  call void @llvm.dbg.value(metadata i64 2, metadata !739, metadata !DIExpression(DW_OP_LLVM_fragment, 128, 64)), !dbg !743
  call void @llvm.dbg.value(metadata [0 x i16]* %input.0, metadata !742, metadata !DIExpression(DW_OP_LLVM_fragment, 0, 64)), !dbg !743
  call void @llvm.dbg.value(metadata i64 640000, metadata !745, metadata !DIExpression(DW_OP_LLVM_fragment, 64, 64)), !dbg !751
  call void @llvm.dbg.value(metadata i64 2, metadata !745, metadata !DIExpression(DW_OP_LLVM_fragment, 128, 64)), !dbg !751
  call void @llvm.dbg.value(metadata i64 %input.1, metadata !753, metadata !DIExpression()), !dbg !757
  call void @llvm.dbg.value(metadata i64 320000, metadata !756, metadata !DIExpression()), !dbg !757
  call void @llvm.dbg.value(metadata i64 %input.1, metadata !759, metadata !DIExpression()), !dbg !763
  call void @llvm.dbg.value(metadata i64 320000, metadata !762, metadata !DIExpression()), !dbg !763
  call void @llvm.dbg.value(metadata i64 %input.1, metadata !765, metadata !DIExpression()), !dbg !770
  call void @llvm.dbg.value(metadata i64 320000, metadata !768, metadata !DIExpression()), !dbg !770
  call void @llvm.dbg.value(metadata i64 320000, metadata !768, metadata !DIExpression()), !dbg !770
  call void @llvm.dbg.value(metadata i64 %input.1, metadata !765, metadata !DIExpression()), !dbg !770
  %output72 = ptrtoint [640000 x i8]* %output to i64
  %0 = icmp ult i64 %input.1, 320000, !dbg !772
  %.0.i.i.i.i.i.i = select i1 %0, i64 %input.1, i64 320000, !dbg !772
  call void @llvm.dbg.value(metadata %"core::iter::adapters::zip::Zip<core::slice::Iter<u16>, core::slice::ChunksMut<u8>>"* undef, metadata !714, metadata !DIExpression(DW_OP_deref)), !dbg !773
  call void @llvm.dbg.value(metadata %"core::iter::adapters::zip::Zip<core::slice::Iter<u16>, core::slice::ChunksMut<u8>>"* undef, metadata !457, metadata !DIExpression()) #4, !dbg !774
  call void @llvm.dbg.value(metadata %"core::iter::adapters::zip::Zip<core::slice::Iter<u16>, core::slice::ChunksMut<u8>>"* undef, metadata !479, metadata !DIExpression()) #4, !dbg !776
  %_2.i.i70 = icmp eq i64 %.0.i.i.i.i.i.i, 0, !dbg !778
  br i1 %_2.i.i70, label %bb7, label %bb9.preheader, !dbg !779

bb9.preheader:                                    ; preds = %_ZN4core4iter6traits8iterator8Iterator3zip17h4af0dced40c2956aE.exit
  %min.iters.check = icmp ult i64 %.0.i.i.i.i.i.i, 8, !dbg !779
  br i1 %min.iters.check, label %bb9.preheader77, label %vector.scevcheck, !dbg !779

bb9.preheader77:                                  ; preds = %middle.block, %vector.scevcheck, %bb9.preheader
  %iter.sroa.11.071.ph = phi i64 [ 0, %vector.scevcheck ], [ 0, %bb9.preheader ], [ %n.vec, %middle.block ]
  br label %bb9, !dbg !779

vector.scevcheck:                                 ; preds = %bb9.preheader
  %1 = add nsw i64 %.0.i.i.i.i.i.i, -1, !dbg !779
  %mul = call { i64, i1 } @llvm.umul.with.overflow.i64(i64 %1, i64 2), !dbg !779
  %mul.result = extractvalue { i64, i1 } %mul, 0, !dbg !779
  %mul.overflow = extractvalue { i64, i1 } %mul, 1, !dbg !779
  %2 = xor i64 %output72, -1, !dbg !779
  %3 = icmp ugt i64 %mul.result, %2, !dbg !779
  %4 = or i1 %3, %mul.overflow, !dbg !779
  %scevgep = getelementptr [640000 x i8], [640000 x i8]* %output, i64 0, i64 1, !dbg !779
  %scevgep73 = ptrtoint i8* %scevgep to i64
  %mul74 = call { i64, i1 } @llvm.umul.with.overflow.i64(i64 %1, i64 2), !dbg !779
  %mul.result75 = extractvalue { i64, i1 } %mul74, 0, !dbg !779
  %mul.overflow76 = extractvalue { i64, i1 } %mul74, 1, !dbg !779
  %5 = xor i64 %scevgep73, -1, !dbg !779
  %6 = icmp ugt i64 %mul.result75, %5, !dbg !779
  %7 = or i1 %6, %mul.overflow76, !dbg !779
  %8 = or i1 %4, %7, !dbg !779
  br i1 %8, label %bb9.preheader77, label %vector.ph, !dbg !779

vector.ph:                                        ; preds = %vector.scevcheck
  %n.vec = and i64 %.0.i.i.i.i.i.i, 524280, !dbg !779
  %9 = add nsw i64 %n.vec, -8, !dbg !779
  %10 = lshr exact i64 %9, 3, !dbg !779
  %11 = add nuw nsw i64 %10, 1, !dbg !779
  %xtraiter = and i64 %11, 1, !dbg !779
  %12 = icmp eq i64 %9, 0, !dbg !779
  br i1 %12, label %middle.block.unr-lcssa, label %vector.ph.new, !dbg !779

vector.ph.new:                                    ; preds = %vector.ph
  %unroll_iter = sub nuw nsw i64 %11, %xtraiter, !dbg !779
  br label %vector.body, !dbg !779

vector.body:                                      ; preds = %vector.body, %vector.ph.new
  %index = phi i64 [ 0, %vector.ph.new ], [ %index.next.1, %vector.body ], !dbg !780
  %niter = phi i64 [ %unroll_iter, %vector.ph.new ], [ %niter.nsub.1, %vector.body ]
  %13 = getelementptr inbounds [0 x i16], [0 x i16]* %input.0, i64 0, i64 %index, !dbg !781
  %14 = shl i64 %index, 1, !dbg !785
  %15 = getelementptr inbounds [640000 x i8], [640000 x i8]* %output, i64 0, i64 %14, !dbg !787
  %16 = bitcast i16* %13 to <8 x i16>*, !dbg !790
  %wide.load = load <8 x i16>, <8 x i16>* %16, align 2, !dbg !790
  %17 = trunc <8 x i16> %wide.load to <8 x i8>, !dbg !791
  %18 = lshr <8 x i16> %wide.load, <i16 8, i16 8, i16 8, i16 8, i16 8, i16 8, i16 8, i16 8>, !dbg !792
  %19 = trunc <8 x i16> %18 to <8 x i8>, !dbg !793
  %20 = bitcast i8* %15 to <16 x i8>*, !dbg !793
  %interleaved.vec = shufflevector <8 x i8> %17, <8 x i8> %19, <16 x i32> <i32 0, i32 8, i32 1, i32 9, i32 2, i32 10, i32 3, i32 11, i32 4, i32 12, i32 5, i32 13, i32 6, i32 14, i32 7, i32 15>, !dbg !793
  store <16 x i8> %interleaved.vec, <16 x i8>* %20, align 1, !dbg !793
  %index.next = or i64 %index, 8, !dbg !780
  %21 = getelementptr inbounds [0 x i16], [0 x i16]* %input.0, i64 0, i64 %index.next, !dbg !781
  %22 = shl i64 %index.next, 1, !dbg !785
  %23 = getelementptr inbounds [640000 x i8], [640000 x i8]* %output, i64 0, i64 %22, !dbg !787
  %24 = bitcast i16* %21 to <8 x i16>*, !dbg !790
  %wide.load.1 = load <8 x i16>, <8 x i16>* %24, align 2, !dbg !790
  %25 = trunc <8 x i16> %wide.load.1 to <8 x i8>, !dbg !791
  %26 = lshr <8 x i16> %wide.load.1, <i16 8, i16 8, i16 8, i16 8, i16 8, i16 8, i16 8, i16 8>, !dbg !792
  %27 = trunc <8 x i16> %26 to <8 x i8>, !dbg !793
  %28 = bitcast i8* %23 to <16 x i8>*, !dbg !793
  %interleaved.vec.1 = shufflevector <8 x i8> %25, <8 x i8> %27, <16 x i32> <i32 0, i32 8, i32 1, i32 9, i32 2, i32 10, i32 3, i32 11, i32 4, i32 12, i32 5, i32 13, i32 6, i32 14, i32 7, i32 15>, !dbg !793
  store <16 x i8> %interleaved.vec.1, <16 x i8>* %28, align 1, !dbg !793
  %index.next.1 = add i64 %index, 16, !dbg !780
  %niter.nsub.1 = add i64 %niter, -2, !dbg !780
  %niter.ncmp.1 = icmp eq i64 %niter.nsub.1, 0, !dbg !780
  br i1 %niter.ncmp.1, label %middle.block.unr-lcssa, label %vector.body, !dbg !780, !llvm.loop !794

middle.block.unr-lcssa:                           ; preds = %vector.body, %vector.ph
  %index.unr = phi i64 [ 0, %vector.ph ], [ %index.next.1, %vector.body ]
  %lcmp.mod = icmp eq i64 %xtraiter, 0, !dbg !780
  br i1 %lcmp.mod, label %middle.block, label %vector.body.epil, !dbg !780

vector.body.epil:                                 ; preds = %middle.block.unr-lcssa
  %29 = getelementptr inbounds [0 x i16], [0 x i16]* %input.0, i64 0, i64 %index.unr, !dbg !781
  %30 = shl i64 %index.unr, 1, !dbg !785
  %31 = getelementptr inbounds [640000 x i8], [640000 x i8]* %output, i64 0, i64 %30, !dbg !787
  %32 = bitcast i16* %29 to <8 x i16>*, !dbg !790
  %wide.load.epil = load <8 x i16>, <8 x i16>* %32, align 2, !dbg !790
  %33 = trunc <8 x i16> %wide.load.epil to <8 x i8>, !dbg !791
  %34 = lshr <8 x i16> %wide.load.epil, <i16 8, i16 8, i16 8, i16 8, i16 8, i16 8, i16 8, i16 8>, !dbg !792
  %35 = trunc <8 x i16> %34 to <8 x i8>, !dbg !793
  %36 = bitcast i8* %31 to <16 x i8>*, !dbg !793
  %interleaved.vec.epil = shufflevector <8 x i8> %33, <8 x i8> %35, <16 x i32> <i32 0, i32 8, i32 1, i32 9, i32 2, i32 10, i32 3, i32 11, i32 4, i32 12, i32 5, i32 13, i32 6, i32 14, i32 7, i32 15>, !dbg !793
  store <16 x i8> %interleaved.vec.epil, <16 x i8>* %36, align 1, !dbg !793
  br label %middle.block, !dbg !779

middle.block:                                     ; preds = %middle.block.unr-lcssa, %vector.body.epil
  %cmp.n = icmp eq i64 %.0.i.i.i.i.i.i, %n.vec, !dbg !779
  br i1 %cmp.n, label %bb7, label %bb9.preheader77, !dbg !779

bb7:                                              ; preds = %bb9, %middle.block, %_ZN4core4iter6traits8iterator8Iterator3zip17h4af0dced40c2956aE.exit
  ret void, !dbg !795

bb9:                                              ; preds = %bb9.preheader77, %bb9
  %iter.sroa.11.071 = phi i64 [ %37, %bb9 ], [ %iter.sroa.11.071.ph, %bb9.preheader77 ]
  call void @llvm.dbg.value(metadata i64 %iter.sroa.11.071, metadata !482, metadata !DIExpression()) #4, !dbg !796
  %37 = add nuw i64 %iter.sroa.11.071, 1, !dbg !780
  call void @llvm.dbg.value(metadata i64 %iter.sroa.11.071, metadata !510, metadata !DIExpression()) #4, !dbg !797
  call void @llvm.dbg.value(metadata [0 x i16]* %input.0, metadata !501, metadata !DIExpression()) #4, !dbg !798
  call void @llvm.dbg.value(metadata i64 %iter.sroa.11.071, metadata !502, metadata !DIExpression()) #4, !dbg !798
  call void @llvm.dbg.value(metadata [0 x i16]* %input.0, metadata !494, metadata !DIExpression()) #4, !dbg !799
  call void @llvm.dbg.value(metadata i64 %iter.sroa.11.071, metadata !495, metadata !DIExpression()) #4, !dbg !799
  %38 = getelementptr inbounds [0 x i16], [0 x i16]* %input.0, i64 0, i64 %iter.sroa.11.071, !dbg !781
  call void @llvm.dbg.value(metadata %"core::slice::ChunksMut<u8>"* undef, metadata !518, metadata !DIExpression()) #4, !dbg !800
  call void @llvm.dbg.value(metadata i64 %iter.sroa.11.071, metadata !519, metadata !DIExpression()) #4, !dbg !800
  %start1.i.i.i = shl i64 %iter.sroa.11.071, 1, !dbg !785
  call void @llvm.dbg.value(metadata i64 %start1.i.i.i, metadata !520, metadata !DIExpression()) #4, !dbg !801
  call void @llvm.dbg.value(metadata i64 undef, metadata !522, metadata !DIExpression()) #4, !dbg !802
  call void @llvm.dbg.value(metadata [640000 x i8]* %output, metadata !192, metadata !DIExpression()) #4, !dbg !803
  call void @llvm.dbg.value(metadata i64 %start1.i.i.i, metadata !193, metadata !DIExpression()) #4, !dbg !803
  call void @llvm.dbg.value(metadata [640000 x i8]* %output, metadata !183, metadata !DIExpression()) #4, !dbg !804
  call void @llvm.dbg.value(metadata i64 %start1.i.i.i, metadata !184, metadata !DIExpression()) #4, !dbg !804
  %39 = getelementptr inbounds [640000 x i8], [640000 x i8]* %output, i64 0, i64 %start1.i.i.i, !dbg !787
  call void @llvm.dbg.value(metadata i16* %38, metadata !716, metadata !DIExpression(DW_OP_LLVM_fragment, 0, 64)), !dbg !805
  call void @llvm.dbg.value(metadata i8* %39, metadata !716, metadata !DIExpression(DW_OP_LLVM_fragment, 64, 64)), !dbg !805
  call void @llvm.dbg.value(metadata i8* %39, metadata !722, metadata !DIExpression(DW_OP_LLVM_fragment, 0, 64)), !dbg !806
  %b = load i16, i16* %38, align 2, !dbg !790
  call void @llvm.dbg.value(metadata i16 %b, metadata !720, metadata !DIExpression()), !dbg !806
  %40 = trunc i16 %b to i8, !dbg !791
  store i8 %40, i8* %39, align 1, !dbg !791
  %_26 = lshr i16 %b, 8, !dbg !792
  %41 = getelementptr inbounds i8, i8* %39, i64 1, !dbg !793
  %42 = trunc i16 %_26 to i8, !dbg !793
  store i8 %42, i8* %41, align 1, !dbg !793
  call void @llvm.dbg.value(metadata %"core::iter::adapters::zip::Zip<core::slice::Iter<u16>, core::slice::ChunksMut<u8>>"* undef, metadata !714, metadata !DIExpression(DW_OP_deref)), !dbg !773
  call void @llvm.dbg.value(metadata %"core::iter::adapters::zip::Zip<core::slice::Iter<u16>, core::slice::ChunksMut<u8>>"* undef, metadata !457, metadata !DIExpression()) #4, !dbg !774
  call void @llvm.dbg.value(metadata %"core::iter::adapters::zip::Zip<core::slice::Iter<u16>, core::slice::ChunksMut<u8>>"* undef, metadata !479, metadata !DIExpression()) #4, !dbg !776
  %_2.i.i = icmp ult i64 %37, %.0.i.i.i.i.i.i, !dbg !778
  br i1 %_2.i.i, label %bb9, label %bb7, !dbg !779, !llvm.loop !807
}

; iterator_bench::zip_chunks_input_size_fixed_impl
; Function Attrs: noinline nonlazybind uwtable
define void @_ZN14iterator_bench32zip_chunks_input_size_fixed_impl17hbcb9ebeb281c1d77E([0 x i8]* nonnull align 1 %output.0, i64 %output.1, [320000 x i16]* noalias readonly align 2 dereferenceable(640000) %input) unnamed_addr #1 personality i32 (i32, i32, i64, %"unwind::libunwind::_Unwind_Exception"*, %"unwind::libunwind::_Unwind_Context"*)* @rust_eh_personality !dbg !808 {
start:
  call void @llvm.dbg.value(metadata [0 x i8]* %output.0, metadata !810, metadata !DIExpression(DW_OP_LLVM_fragment, 0, 64)), !dbg !821
  call void @llvm.dbg.value(metadata i64 %output.1, metadata !810, metadata !DIExpression(DW_OP_LLVM_fragment, 64, 64)), !dbg !821
  call void @llvm.dbg.value(metadata [320000 x i16]* %input, metadata !811, metadata !DIExpression()), !dbg !821
  call void @llvm.dbg.value(metadata [0 x i8]* %output.0, metadata !724, metadata !DIExpression(DW_OP_LLVM_fragment, 0, 64)), !dbg !822
  call void @llvm.dbg.value(metadata i64 %output.1, metadata !724, metadata !DIExpression(DW_OP_LLVM_fragment, 64, 64)), !dbg !822
  call void @llvm.dbg.value(metadata i64 2, metadata !724, metadata !DIExpression(DW_OP_LLVM_fragment, 128, 64)), !dbg !822
  call void @llvm.dbg.value(metadata [320000 x i16]* %input, metadata !733, metadata !DIExpression(DW_OP_LLVM_fragment, 0, 64)), !dbg !822
  call void @llvm.dbg.value(metadata [320000 x i16]* %input, metadata !733, metadata !DIExpression(DW_OP_plus_uconst, 640000, DW_OP_stack_value, DW_OP_LLVM_fragment, 64, 64)), !dbg !822
  call void @llvm.dbg.value(metadata [0 x i8]* %output.0, metadata !739, metadata !DIExpression(DW_OP_LLVM_fragment, 0, 64)), !dbg !824
  call void @llvm.dbg.value(metadata i64 %output.1, metadata !739, metadata !DIExpression(DW_OP_LLVM_fragment, 64, 64)), !dbg !824
  call void @llvm.dbg.value(metadata i64 2, metadata !739, metadata !DIExpression(DW_OP_LLVM_fragment, 128, 64)), !dbg !824
  call void @llvm.dbg.value(metadata [320000 x i16]* %input, metadata !742, metadata !DIExpression(DW_OP_LLVM_fragment, 0, 64)), !dbg !824
  call void @llvm.dbg.value(metadata [320000 x i16]* %input, metadata !742, metadata !DIExpression(DW_OP_plus_uconst, 640000, DW_OP_stack_value, DW_OP_LLVM_fragment, 64, 64)), !dbg !824
  call void @llvm.dbg.value(metadata i64 %output.1, metadata !745, metadata !DIExpression(DW_OP_LLVM_fragment, 64, 64)), !dbg !826
  call void @llvm.dbg.value(metadata i64 2, metadata !745, metadata !DIExpression(DW_OP_LLVM_fragment, 128, 64)), !dbg !826
  call void @llvm.dbg.value(metadata [0 x i8]* undef, metadata !828, metadata !DIExpression(DW_OP_LLVM_fragment, 0, 64)), !dbg !837
  call void @llvm.dbg.value(metadata i64 %output.1, metadata !828, metadata !DIExpression(DW_OP_LLVM_fragment, 64, 64)), !dbg !837
  %output.078 = ptrtoint [0 x i8]* %output.0 to i64
  %0 = icmp eq i64 %output.1, 0, !dbg !879
  br i1 %0, label %bb7, label %_ZN4core4iter6traits8iterator8Iterator3zip17h4af0dced40c2956aE.exit, !dbg !880

_ZN4core4iter6traits8iterator8Iterator3zip17h4af0dced40c2956aE.exit: ; preds = %start
  call void @llvm.dbg.value(metadata i64 undef, metadata !849, metadata !DIExpression()), !dbg !881
  %n1.i.i.i.i.i = lshr i64 %output.1, 1, !dbg !882
  call void @llvm.dbg.value(metadata i64 %n1.i.i.i.i.i, metadata !849, metadata !DIExpression()), !dbg !881
  %rem.i.i.i.i.i = and i64 %output.1, 1, !dbg !883
  call void @llvm.dbg.value(metadata i64 %rem.i.i.i.i.i, metadata !851, metadata !DIExpression()), !dbg !884
  %n.0.i.i.i.i.i = add nuw i64 %n1.i.i.i.i.i, %rem.i.i.i.i.i, !dbg !885
  call void @llvm.dbg.value(metadata i64 320000, metadata !753, metadata !DIExpression()), !dbg !886
  call void @llvm.dbg.value(metadata i64 %n.0.i.i.i.i.i, metadata !756, metadata !DIExpression()), !dbg !886
  call void @llvm.dbg.value(metadata i64 320000, metadata !759, metadata !DIExpression()), !dbg !888
  call void @llvm.dbg.value(metadata i64 %n.0.i.i.i.i.i, metadata !762, metadata !DIExpression()), !dbg !888
  call void @llvm.dbg.value(metadata i64 320000, metadata !765, metadata !DIExpression()), !dbg !890
  call void @llvm.dbg.value(metadata i64 %n.0.i.i.i.i.i, metadata !768, metadata !DIExpression()), !dbg !890
  %1 = icmp ult i64 %n.0.i.i.i.i.i, 320000, !dbg !892
  call void @llvm.dbg.value(metadata i64 %n.0.i.i.i.i.i, metadata !768, metadata !DIExpression()), !dbg !890
  call void @llvm.dbg.value(metadata i64 320000, metadata !765, metadata !DIExpression()), !dbg !890
  br i1 %1, label %2, label %bb9.preheader, !dbg !892

2:                                                ; preds = %_ZN4core4iter6traits8iterator8Iterator3zip17h4af0dced40c2956aE.exit
  call void @llvm.dbg.value(metadata %"core::iter::adapters::zip::Zip<core::slice::Iter<u16>, core::slice::ChunksMut<u8>>"* undef, metadata !812, metadata !DIExpression(DW_OP_deref)), !dbg !893
  call void @llvm.dbg.value(metadata %"core::iter::adapters::zip::Zip<core::slice::Iter<u16>, core::slice::ChunksMut<u8>>"* undef, metadata !457, metadata !DIExpression()) #4, !dbg !894
  call void @llvm.dbg.value(metadata %"core::iter::adapters::zip::Zip<core::slice::Iter<u16>, core::slice::ChunksMut<u8>>"* undef, metadata !479, metadata !DIExpression()) #4, !dbg !896
  %_2.i.i72 = icmp eq i64 %n.0.i.i.i.i.i, 0, !dbg !898
  br i1 %_2.i.i72, label %bb7, label %bb9.preheader, !dbg !899

bb9.preheader:                                    ; preds = %_ZN4core4iter6traits8iterator8Iterator3zip17h4af0dced40c2956aE.exit, %2
  %3 = phi i64 [ %n.0.i.i.i.i.i, %2 ], [ 320000, %_ZN4core4iter6traits8iterator8Iterator3zip17h4af0dced40c2956aE.exit ]
  %min.iters.check = icmp ult i64 %3, 8, !dbg !899
  br i1 %min.iters.check, label %bb9.preheader83, label %vector.scevcheck, !dbg !899

bb9.preheader83:                                  ; preds = %middle.block, %vector.scevcheck, %bb9.preheader
  %iter.sroa.11.073.ph = phi i64 [ 0, %vector.scevcheck ], [ 0, %bb9.preheader ], [ %n.vec, %middle.block ]
  %xtraiter = and i64 %3, 1, !dbg !899
  %lcmp.mod = icmp eq i64 %xtraiter, 0, !dbg !899
  br i1 %lcmp.mod, label %bb9.prol.loopexit, label %bb9.prol, !dbg !899

bb9.prol:                                         ; preds = %bb9.preheader83
  call void @llvm.dbg.value(metadata i64 %iter.sroa.11.073.ph, metadata !482, metadata !DIExpression()) #4, !dbg !900
  %4 = or i64 %iter.sroa.11.073.ph, 1, !dbg !901
  call void @llvm.dbg.value(metadata i64 %iter.sroa.11.073.ph, metadata !510, metadata !DIExpression()) #4, !dbg !902
  call void @llvm.dbg.value(metadata [320000 x i16]* %input, metadata !501, metadata !DIExpression()) #4, !dbg !904
  call void @llvm.dbg.value(metadata i64 %iter.sroa.11.073.ph, metadata !502, metadata !DIExpression()) #4, !dbg !904
  call void @llvm.dbg.value(metadata [320000 x i16]* %input, metadata !494, metadata !DIExpression()) #4, !dbg !906
  call void @llvm.dbg.value(metadata i64 %iter.sroa.11.073.ph, metadata !495, metadata !DIExpression()) #4, !dbg !906
  %5 = getelementptr inbounds [320000 x i16], [320000 x i16]* %input, i64 0, i64 %iter.sroa.11.073.ph, !dbg !908
  call void @llvm.dbg.value(metadata %"core::slice::ChunksMut<u8>"* undef, metadata !518, metadata !DIExpression()) #4, !dbg !909
  call void @llvm.dbg.value(metadata i64 %iter.sroa.11.073.ph, metadata !519, metadata !DIExpression()) #4, !dbg !909
  %start1.i.i.i.prol = shl i64 %iter.sroa.11.073.ph, 1, !dbg !911
  call void @llvm.dbg.value(metadata i64 %start1.i.i.i.prol, metadata !520, metadata !DIExpression()) #4, !dbg !912
  call void @llvm.dbg.value(metadata i64 undef, metadata !522, metadata !DIExpression()) #4, !dbg !913
  call void @llvm.dbg.value(metadata [0 x i8]* %output.0, metadata !192, metadata !DIExpression()) #4, !dbg !914
  call void @llvm.dbg.value(metadata i64 %start1.i.i.i.prol, metadata !193, metadata !DIExpression()) #4, !dbg !914
  call void @llvm.dbg.value(metadata [0 x i8]* %output.0, metadata !183, metadata !DIExpression()) #4, !dbg !916
  call void @llvm.dbg.value(metadata i64 %start1.i.i.i.prol, metadata !184, metadata !DIExpression()) #4, !dbg !916
  %6 = getelementptr inbounds [0 x i8], [0 x i8]* %output.0, i64 0, i64 %start1.i.i.i.prol, !dbg !918
  call void @llvm.dbg.value(metadata i16* %5, metadata !814, metadata !DIExpression(DW_OP_LLVM_fragment, 0, 64)), !dbg !919
  call void @llvm.dbg.value(metadata i8* %6, metadata !814, metadata !DIExpression(DW_OP_LLVM_fragment, 64, 64)), !dbg !919
  call void @llvm.dbg.value(metadata i8* %6, metadata !820, metadata !DIExpression(DW_OP_LLVM_fragment, 0, 64)), !dbg !920
  %b.prol = load i16, i16* %5, align 2, !dbg !921
  call void @llvm.dbg.value(metadata i16 %b.prol, metadata !818, metadata !DIExpression()), !dbg !920
  %7 = trunc i16 %b.prol to i8, !dbg !922
  store i8 %7, i8* %6, align 1, !dbg !922
  %_26.prol = lshr i16 %b.prol, 8, !dbg !923
  %8 = getelementptr inbounds i8, i8* %6, i64 1, !dbg !924
  %9 = trunc i16 %_26.prol to i8, !dbg !924
  store i8 %9, i8* %8, align 1, !dbg !924
  call void @llvm.dbg.value(metadata %"core::iter::adapters::zip::Zip<core::slice::Iter<u16>, core::slice::ChunksMut<u8>>"* undef, metadata !812, metadata !DIExpression(DW_OP_deref)), !dbg !893
  call void @llvm.dbg.value(metadata %"core::iter::adapters::zip::Zip<core::slice::Iter<u16>, core::slice::ChunksMut<u8>>"* undef, metadata !457, metadata !DIExpression()) #4, !dbg !894
  call void @llvm.dbg.value(metadata %"core::iter::adapters::zip::Zip<core::slice::Iter<u16>, core::slice::ChunksMut<u8>>"* undef, metadata !479, metadata !DIExpression()) #4, !dbg !896
  br label %bb9.prol.loopexit, !dbg !899

bb9.prol.loopexit:                                ; preds = %bb9.preheader83, %bb9.prol
  %iter.sroa.11.073.unr = phi i64 [ %iter.sroa.11.073.ph, %bb9.preheader83 ], [ %4, %bb9.prol ]
  %10 = or i64 %iter.sroa.11.073.ph, 1, !dbg !899
  %11 = icmp eq i64 %3, %10, !dbg !899
  br i1 %11, label %bb7, label %bb9, !dbg !899

vector.scevcheck:                                 ; preds = %bb9.preheader
  %12 = add i64 %3, -1, !dbg !899
  %mul = call { i64, i1 } @llvm.umul.with.overflow.i64(i64 %12, i64 2), !dbg !899
  %mul.result = extractvalue { i64, i1 } %mul, 0, !dbg !899
  %mul.overflow = extractvalue { i64, i1 } %mul, 1, !dbg !899
  %13 = xor i64 %output.078, -1, !dbg !899
  %14 = icmp ugt i64 %mul.result, %13, !dbg !899
  %15 = or i1 %14, %mul.overflow, !dbg !899
  %scevgep = getelementptr [0 x i8], [0 x i8]* %output.0, i64 0, i64 1, !dbg !899
  %scevgep79 = ptrtoint i8* %scevgep to i64
  %mul80 = call { i64, i1 } @llvm.umul.with.overflow.i64(i64 %12, i64 2), !dbg !899
  %mul.result81 = extractvalue { i64, i1 } %mul80, 0, !dbg !899
  %mul.overflow82 = extractvalue { i64, i1 } %mul80, 1, !dbg !899
  %16 = xor i64 %scevgep79, -1, !dbg !899
  %17 = icmp ugt i64 %mul.result81, %16, !dbg !899
  %18 = or i1 %17, %mul.overflow82, !dbg !899
  %19 = or i1 %15, %18, !dbg !899
  br i1 %19, label %bb9.preheader83, label %vector.ph, !dbg !899

vector.ph:                                        ; preds = %vector.scevcheck
  %n.vec = and i64 %3, -8, !dbg !899
  %20 = add i64 %n.vec, -8, !dbg !899
  %21 = lshr exact i64 %20, 3, !dbg !899
  %22 = add nuw nsw i64 %21, 1, !dbg !899
  %xtraiter84 = and i64 %22, 1, !dbg !899
  %23 = icmp eq i64 %20, 0, !dbg !899
  br i1 %23, label %middle.block.unr-lcssa, label %vector.ph.new, !dbg !899

vector.ph.new:                                    ; preds = %vector.ph
  %unroll_iter = sub nuw nsw i64 %22, %xtraiter84, !dbg !899
  br label %vector.body, !dbg !899

vector.body:                                      ; preds = %vector.body, %vector.ph.new
  %index = phi i64 [ 0, %vector.ph.new ], [ %index.next.1, %vector.body ], !dbg !901
  %niter = phi i64 [ %unroll_iter, %vector.ph.new ], [ %niter.nsub.1, %vector.body ]
  %24 = getelementptr inbounds [320000 x i16], [320000 x i16]* %input, i64 0, i64 %index, !dbg !908
  %25 = shl i64 %index, 1, !dbg !911
  %26 = getelementptr inbounds [0 x i8], [0 x i8]* %output.0, i64 0, i64 %25, !dbg !918
  %27 = bitcast i16* %24 to <8 x i16>*, !dbg !921
  %wide.load = load <8 x i16>, <8 x i16>* %27, align 2, !dbg !921
  %28 = trunc <8 x i16> %wide.load to <8 x i8>, !dbg !922
  %29 = lshr <8 x i16> %wide.load, <i16 8, i16 8, i16 8, i16 8, i16 8, i16 8, i16 8, i16 8>, !dbg !923
  %30 = trunc <8 x i16> %29 to <8 x i8>, !dbg !924
  %31 = bitcast i8* %26 to <16 x i8>*, !dbg !924
  %interleaved.vec = shufflevector <8 x i8> %28, <8 x i8> %30, <16 x i32> <i32 0, i32 8, i32 1, i32 9, i32 2, i32 10, i32 3, i32 11, i32 4, i32 12, i32 5, i32 13, i32 6, i32 14, i32 7, i32 15>, !dbg !924
  store <16 x i8> %interleaved.vec, <16 x i8>* %31, align 1, !dbg !924
  %index.next = or i64 %index, 8, !dbg !901
  %32 = getelementptr inbounds [320000 x i16], [320000 x i16]* %input, i64 0, i64 %index.next, !dbg !908
  %33 = shl i64 %index.next, 1, !dbg !911
  %34 = getelementptr inbounds [0 x i8], [0 x i8]* %output.0, i64 0, i64 %33, !dbg !918
  %35 = bitcast i16* %32 to <8 x i16>*, !dbg !921
  %wide.load.1 = load <8 x i16>, <8 x i16>* %35, align 2, !dbg !921
  %36 = trunc <8 x i16> %wide.load.1 to <8 x i8>, !dbg !922
  %37 = lshr <8 x i16> %wide.load.1, <i16 8, i16 8, i16 8, i16 8, i16 8, i16 8, i16 8, i16 8>, !dbg !923
  %38 = trunc <8 x i16> %37 to <8 x i8>, !dbg !924
  %39 = bitcast i8* %34 to <16 x i8>*, !dbg !924
  %interleaved.vec.1 = shufflevector <8 x i8> %36, <8 x i8> %38, <16 x i32> <i32 0, i32 8, i32 1, i32 9, i32 2, i32 10, i32 3, i32 11, i32 4, i32 12, i32 5, i32 13, i32 6, i32 14, i32 7, i32 15>, !dbg !924
  store <16 x i8> %interleaved.vec.1, <16 x i8>* %39, align 1, !dbg !924
  %index.next.1 = add i64 %index, 16, !dbg !901
  %niter.nsub.1 = add i64 %niter, -2, !dbg !901
  %niter.ncmp.1 = icmp eq i64 %niter.nsub.1, 0, !dbg !901
  br i1 %niter.ncmp.1, label %middle.block.unr-lcssa, label %vector.body, !dbg !901, !llvm.loop !925

middle.block.unr-lcssa:                           ; preds = %vector.body, %vector.ph
  %index.unr = phi i64 [ 0, %vector.ph ], [ %index.next.1, %vector.body ]
  %lcmp.mod85 = icmp eq i64 %xtraiter84, 0, !dbg !901
  br i1 %lcmp.mod85, label %middle.block, label %vector.body.epil, !dbg !901

vector.body.epil:                                 ; preds = %middle.block.unr-lcssa
  %40 = getelementptr inbounds [320000 x i16], [320000 x i16]* %input, i64 0, i64 %index.unr, !dbg !908
  %41 = shl i64 %index.unr, 1, !dbg !911
  %42 = getelementptr inbounds [0 x i8], [0 x i8]* %output.0, i64 0, i64 %41, !dbg !918
  %43 = bitcast i16* %40 to <8 x i16>*, !dbg !921
  %wide.load.epil = load <8 x i16>, <8 x i16>* %43, align 2, !dbg !921
  %44 = trunc <8 x i16> %wide.load.epil to <8 x i8>, !dbg !922
  %45 = lshr <8 x i16> %wide.load.epil, <i16 8, i16 8, i16 8, i16 8, i16 8, i16 8, i16 8, i16 8>, !dbg !923
  %46 = trunc <8 x i16> %45 to <8 x i8>, !dbg !924
  %47 = bitcast i8* %42 to <16 x i8>*, !dbg !924
  %interleaved.vec.epil = shufflevector <8 x i8> %44, <8 x i8> %46, <16 x i32> <i32 0, i32 8, i32 1, i32 9, i32 2, i32 10, i32 3, i32 11, i32 4, i32 12, i32 5, i32 13, i32 6, i32 14, i32 7, i32 15>, !dbg !924
  store <16 x i8> %interleaved.vec.epil, <16 x i8>* %47, align 1, !dbg !924
  br label %middle.block, !dbg !899

middle.block:                                     ; preds = %middle.block.unr-lcssa, %vector.body.epil
  %cmp.n = icmp eq i64 %3, %n.vec, !dbg !899
  br i1 %cmp.n, label %bb7, label %bb9.preheader83, !dbg !899

bb7:                                              ; preds = %bb9.prol.loopexit, %bb9, %middle.block, %start, %2
  ret void, !dbg !926

bb9:                                              ; preds = %bb9.prol.loopexit, %bb9
  %iter.sroa.11.073 = phi i64 [ %54, %bb9 ], [ %iter.sroa.11.073.unr, %bb9.prol.loopexit ]
  call void @llvm.dbg.value(metadata i64 %iter.sroa.11.073, metadata !482, metadata !DIExpression()) #4, !dbg !900
  %48 = add nuw i64 %iter.sroa.11.073, 1, !dbg !901
  call void @llvm.dbg.value(metadata i64 %iter.sroa.11.073, metadata !510, metadata !DIExpression()) #4, !dbg !902
  call void @llvm.dbg.value(metadata [320000 x i16]* %input, metadata !501, metadata !DIExpression()) #4, !dbg !904
  call void @llvm.dbg.value(metadata i64 %iter.sroa.11.073, metadata !502, metadata !DIExpression()) #4, !dbg !904
  call void @llvm.dbg.value(metadata [320000 x i16]* %input, metadata !494, metadata !DIExpression()) #4, !dbg !906
  call void @llvm.dbg.value(metadata i64 %iter.sroa.11.073, metadata !495, metadata !DIExpression()) #4, !dbg !906
  %49 = getelementptr inbounds [320000 x i16], [320000 x i16]* %input, i64 0, i64 %iter.sroa.11.073, !dbg !908
  call void @llvm.dbg.value(metadata %"core::slice::ChunksMut<u8>"* undef, metadata !518, metadata !DIExpression()) #4, !dbg !909
  call void @llvm.dbg.value(metadata i64 %iter.sroa.11.073, metadata !519, metadata !DIExpression()) #4, !dbg !909
  %start1.i.i.i = shl i64 %iter.sroa.11.073, 1, !dbg !911
  call void @llvm.dbg.value(metadata i64 %start1.i.i.i, metadata !520, metadata !DIExpression()) #4, !dbg !912
  call void @llvm.dbg.value(metadata i64 undef, metadata !522, metadata !DIExpression()) #4, !dbg !913
  call void @llvm.dbg.value(metadata [0 x i8]* %output.0, metadata !192, metadata !DIExpression()) #4, !dbg !914
  call void @llvm.dbg.value(metadata i64 %start1.i.i.i, metadata !193, metadata !DIExpression()) #4, !dbg !914
  call void @llvm.dbg.value(metadata [0 x i8]* %output.0, metadata !183, metadata !DIExpression()) #4, !dbg !916
  call void @llvm.dbg.value(metadata i64 %start1.i.i.i, metadata !184, metadata !DIExpression()) #4, !dbg !916
  %50 = getelementptr inbounds [0 x i8], [0 x i8]* %output.0, i64 0, i64 %start1.i.i.i, !dbg !918
  call void @llvm.dbg.value(metadata i16* %49, metadata !814, metadata !DIExpression(DW_OP_LLVM_fragment, 0, 64)), !dbg !919
  call void @llvm.dbg.value(metadata i8* %50, metadata !814, metadata !DIExpression(DW_OP_LLVM_fragment, 64, 64)), !dbg !919
  call void @llvm.dbg.value(metadata i8* %50, metadata !820, metadata !DIExpression(DW_OP_LLVM_fragment, 0, 64)), !dbg !920
  %b = load i16, i16* %49, align 2, !dbg !921
  call void @llvm.dbg.value(metadata i16 %b, metadata !818, metadata !DIExpression()), !dbg !920
  %51 = trunc i16 %b to i8, !dbg !922
  store i8 %51, i8* %50, align 1, !dbg !922
  %_26 = lshr i16 %b, 8, !dbg !923
  %52 = getelementptr inbounds i8, i8* %50, i64 1, !dbg !924
  %53 = trunc i16 %_26 to i8, !dbg !924
  store i8 %53, i8* %52, align 1, !dbg !924
  call void @llvm.dbg.value(metadata %"core::iter::adapters::zip::Zip<core::slice::Iter<u16>, core::slice::ChunksMut<u8>>"* undef, metadata !812, metadata !DIExpression(DW_OP_deref)), !dbg !893
  call void @llvm.dbg.value(metadata %"core::iter::adapters::zip::Zip<core::slice::Iter<u16>, core::slice::ChunksMut<u8>>"* undef, metadata !457, metadata !DIExpression()) #4, !dbg !894
  call void @llvm.dbg.value(metadata %"core::iter::adapters::zip::Zip<core::slice::Iter<u16>, core::slice::ChunksMut<u8>>"* undef, metadata !479, metadata !DIExpression()) #4, !dbg !896
  call void @llvm.dbg.value(metadata i64 %48, metadata !482, metadata !DIExpression()) #4, !dbg !900
  %54 = add nuw i64 %iter.sroa.11.073, 2, !dbg !901
  call void @llvm.dbg.value(metadata i64 %48, metadata !510, metadata !DIExpression()) #4, !dbg !902
  call void @llvm.dbg.value(metadata [320000 x i16]* %input, metadata !501, metadata !DIExpression()) #4, !dbg !904
  call void @llvm.dbg.value(metadata i64 %48, metadata !502, metadata !DIExpression()) #4, !dbg !904
  call void @llvm.dbg.value(metadata [320000 x i16]* %input, metadata !494, metadata !DIExpression()) #4, !dbg !906
  call void @llvm.dbg.value(metadata i64 %48, metadata !495, metadata !DIExpression()) #4, !dbg !906
  %55 = getelementptr inbounds [320000 x i16], [320000 x i16]* %input, i64 0, i64 %48, !dbg !908
  call void @llvm.dbg.value(metadata %"core::slice::ChunksMut<u8>"* undef, metadata !518, metadata !DIExpression()) #4, !dbg !909
  call void @llvm.dbg.value(metadata i64 %48, metadata !519, metadata !DIExpression()) #4, !dbg !909
  %start1.i.i.i.1 = shl i64 %48, 1, !dbg !911
  call void @llvm.dbg.value(metadata i64 %start1.i.i.i.1, metadata !520, metadata !DIExpression()) #4, !dbg !912
  call void @llvm.dbg.value(metadata i64 undef, metadata !522, metadata !DIExpression()) #4, !dbg !913
  call void @llvm.dbg.value(metadata [0 x i8]* %output.0, metadata !192, metadata !DIExpression()) #4, !dbg !914
  call void @llvm.dbg.value(metadata i64 %start1.i.i.i.1, metadata !193, metadata !DIExpression()) #4, !dbg !914
  call void @llvm.dbg.value(metadata [0 x i8]* %output.0, metadata !183, metadata !DIExpression()) #4, !dbg !916
  call void @llvm.dbg.value(metadata i64 %start1.i.i.i.1, metadata !184, metadata !DIExpression()) #4, !dbg !916
  %56 = getelementptr inbounds [0 x i8], [0 x i8]* %output.0, i64 0, i64 %start1.i.i.i.1, !dbg !918
  call void @llvm.dbg.value(metadata i16* %55, metadata !814, metadata !DIExpression(DW_OP_LLVM_fragment, 0, 64)), !dbg !919
  call void @llvm.dbg.value(metadata i8* %56, metadata !814, metadata !DIExpression(DW_OP_LLVM_fragment, 64, 64)), !dbg !919
  call void @llvm.dbg.value(metadata i8* %56, metadata !820, metadata !DIExpression(DW_OP_LLVM_fragment, 0, 64)), !dbg !920
  %b.1 = load i16, i16* %55, align 2, !dbg !921
  call void @llvm.dbg.value(metadata i16 %b.1, metadata !818, metadata !DIExpression()), !dbg !920
  %57 = trunc i16 %b.1 to i8, !dbg !922
  store i8 %57, i8* %56, align 1, !dbg !922
  %_26.1 = lshr i16 %b.1, 8, !dbg !923
  %58 = getelementptr inbounds i8, i8* %56, i64 1, !dbg !924
  %59 = trunc i16 %_26.1 to i8, !dbg !924
  store i8 %59, i8* %58, align 1, !dbg !924
  call void @llvm.dbg.value(metadata %"core::iter::adapters::zip::Zip<core::slice::Iter<u16>, core::slice::ChunksMut<u8>>"* undef, metadata !812, metadata !DIExpression(DW_OP_deref)), !dbg !893
  call void @llvm.dbg.value(metadata %"core::iter::adapters::zip::Zip<core::slice::Iter<u16>, core::slice::ChunksMut<u8>>"* undef, metadata !457, metadata !DIExpression()) #4, !dbg !894
  call void @llvm.dbg.value(metadata %"core::iter::adapters::zip::Zip<core::slice::Iter<u16>, core::slice::ChunksMut<u8>>"* undef, metadata !479, metadata !DIExpression()) #4, !dbg !896
  %exitcond.1 = icmp eq i64 %54, %3, !dbg !898
  br i1 %exitcond.1, label %bb7, label %bb9, !dbg !899, !llvm.loop !927
}

; iterator_bench::zip_chunks_unknown_size_impl
; Function Attrs: noinline nonlazybind uwtable
define void @_ZN14iterator_bench28zip_chunks_unknown_size_impl17h4c17cf41de28445aE([0 x i8]* nonnull align 1 %output.0, i64 %output.1, [0 x i16]* noalias nonnull readonly align 2 %input.0, i64 %input.1) unnamed_addr #1 personality i32 (i32, i32, i64, %"unwind::libunwind::_Unwind_Exception"*, %"unwind::libunwind::_Unwind_Context"*)* @rust_eh_personality !dbg !928 {
start:
  call void @llvm.dbg.value(metadata [0 x i8]* %output.0, metadata !930, metadata !DIExpression(DW_OP_LLVM_fragment, 0, 64)), !dbg !941
  call void @llvm.dbg.value(metadata i64 %output.1, metadata !930, metadata !DIExpression(DW_OP_LLVM_fragment, 64, 64)), !dbg !941
  call void @llvm.dbg.value(metadata [0 x i16]* %input.0, metadata !931, metadata !DIExpression(DW_OP_LLVM_fragment, 0, 64)), !dbg !941
  call void @llvm.dbg.value(metadata i64 %input.1, metadata !931, metadata !DIExpression(DW_OP_LLVM_fragment, 64, 64)), !dbg !941
  call void @llvm.dbg.value(metadata [0 x i8]* %output.0, metadata !724, metadata !DIExpression(DW_OP_LLVM_fragment, 0, 64)), !dbg !942
  call void @llvm.dbg.value(metadata i64 %output.1, metadata !724, metadata !DIExpression(DW_OP_LLVM_fragment, 64, 64)), !dbg !942
  call void @llvm.dbg.value(metadata i64 2, metadata !724, metadata !DIExpression(DW_OP_LLVM_fragment, 128, 64)), !dbg !942
  call void @llvm.dbg.value(metadata [0 x i16]* %input.0, metadata !733, metadata !DIExpression(DW_OP_LLVM_fragment, 0, 64)), !dbg !942
  call void @llvm.dbg.value(metadata [0 x i8]* %output.0, metadata !739, metadata !DIExpression(DW_OP_LLVM_fragment, 0, 64)), !dbg !944
  call void @llvm.dbg.value(metadata i64 %output.1, metadata !739, metadata !DIExpression(DW_OP_LLVM_fragment, 64, 64)), !dbg !944
  call void @llvm.dbg.value(metadata i64 2, metadata !739, metadata !DIExpression(DW_OP_LLVM_fragment, 128, 64)), !dbg !944
  call void @llvm.dbg.value(metadata [0 x i16]* %input.0, metadata !742, metadata !DIExpression(DW_OP_LLVM_fragment, 0, 64)), !dbg !944
  call void @llvm.dbg.value(metadata i64 %output.1, metadata !745, metadata !DIExpression(DW_OP_LLVM_fragment, 64, 64)), !dbg !946
  call void @llvm.dbg.value(metadata i64 2, metadata !745, metadata !DIExpression(DW_OP_LLVM_fragment, 128, 64)), !dbg !946
  call void @llvm.dbg.value(metadata [0 x i8]* undef, metadata !828, metadata !DIExpression(DW_OP_LLVM_fragment, 0, 64)), !dbg !948
  call void @llvm.dbg.value(metadata i64 %output.1, metadata !828, metadata !DIExpression(DW_OP_LLVM_fragment, 64, 64)), !dbg !948
  %output.072 = ptrtoint [0 x i8]* %output.0 to i64
  %0 = icmp eq i64 %output.1, 0, !dbg !952
  br i1 %0, label %_ZN4core4iter6traits8iterator8Iterator3zip17h4af0dced40c2956aE.exit, label %bb7.i.i.i.i.i, !dbg !953

bb7.i.i.i.i.i:                                    ; preds = %start
  call void @llvm.dbg.value(metadata i64 undef, metadata !849, metadata !DIExpression()), !dbg !954
  %n1.i.i.i.i.i = lshr i64 %output.1, 1, !dbg !955
  call void @llvm.dbg.value(metadata i64 %n1.i.i.i.i.i, metadata !849, metadata !DIExpression()), !dbg !954
  %rem.i.i.i.i.i = and i64 %output.1, 1, !dbg !956
  call void @llvm.dbg.value(metadata i64 %rem.i.i.i.i.i, metadata !851, metadata !DIExpression()), !dbg !957
  %n.0.i.i.i.i.i = add nuw i64 %n1.i.i.i.i.i, %rem.i.i.i.i.i, !dbg !958
  br label %_ZN4core4iter6traits8iterator8Iterator3zip17h4af0dced40c2956aE.exit, !dbg !953

_ZN4core4iter6traits8iterator8Iterator3zip17h4af0dced40c2956aE.exit: ; preds = %start, %bb7.i.i.i.i.i
  %_3.sroa.8.0.i.i.i.i = phi i64 [ %n.0.i.i.i.i.i, %bb7.i.i.i.i.i ], [ 0, %start ], !dbg !959
  call void @llvm.dbg.value(metadata i64 %input.1, metadata !753, metadata !DIExpression()), !dbg !960
  call void @llvm.dbg.value(metadata i64 %_3.sroa.8.0.i.i.i.i, metadata !756, metadata !DIExpression()), !dbg !960
  call void @llvm.dbg.value(metadata i64 %input.1, metadata !759, metadata !DIExpression()), !dbg !962
  call void @llvm.dbg.value(metadata i64 %_3.sroa.8.0.i.i.i.i, metadata !762, metadata !DIExpression()), !dbg !962
  call void @llvm.dbg.value(metadata i64 %input.1, metadata !765, metadata !DIExpression()), !dbg !964
  call void @llvm.dbg.value(metadata i64 %_3.sroa.8.0.i.i.i.i, metadata !768, metadata !DIExpression()), !dbg !964
  %1 = icmp ult i64 %_3.sroa.8.0.i.i.i.i, %input.1, !dbg !966
  call void @llvm.dbg.value(metadata i64 %_3.sroa.8.0.i.i.i.i, metadata !768, metadata !DIExpression()), !dbg !964
  call void @llvm.dbg.value(metadata i64 %input.1, metadata !765, metadata !DIExpression()), !dbg !964
  %.0.i.i.i.i.i.i = select i1 %1, i64 %_3.sroa.8.0.i.i.i.i, i64 %input.1, !dbg !966
  call void @llvm.dbg.value(metadata %"core::iter::adapters::zip::Zip<core::slice::Iter<u16>, core::slice::ChunksMut<u8>>"* undef, metadata !932, metadata !DIExpression(DW_OP_deref)), !dbg !967
  call void @llvm.dbg.value(metadata %"core::iter::adapters::zip::Zip<core::slice::Iter<u16>, core::slice::ChunksMut<u8>>"* undef, metadata !457, metadata !DIExpression()) #4, !dbg !968
  call void @llvm.dbg.value(metadata %"core::iter::adapters::zip::Zip<core::slice::Iter<u16>, core::slice::ChunksMut<u8>>"* undef, metadata !479, metadata !DIExpression()) #4, !dbg !970
  %_2.i.i70 = icmp eq i64 %.0.i.i.i.i.i.i, 0, !dbg !972
  br i1 %_2.i.i70, label %bb7, label %bb9.preheader, !dbg !973

bb9.preheader:                                    ; preds = %_ZN4core4iter6traits8iterator8Iterator3zip17h4af0dced40c2956aE.exit
  %min.iters.check = icmp ult i64 %.0.i.i.i.i.i.i, 8, !dbg !973
  br i1 %min.iters.check, label %bb9.preheader77, label %vector.scevcheck, !dbg !973

bb9.preheader77:                                  ; preds = %middle.block, %vector.scevcheck, %bb9.preheader
  %iter.sroa.11.071.ph = phi i64 [ 0, %vector.scevcheck ], [ 0, %bb9.preheader ], [ %n.vec, %middle.block ]
  br label %bb9, !dbg !973

vector.scevcheck:                                 ; preds = %bb9.preheader
  %2 = add i64 %.0.i.i.i.i.i.i, -1, !dbg !973
  %mul = call { i64, i1 } @llvm.umul.with.overflow.i64(i64 %2, i64 2), !dbg !973
  %mul.result = extractvalue { i64, i1 } %mul, 0, !dbg !973
  %mul.overflow = extractvalue { i64, i1 } %mul, 1, !dbg !973
  %3 = xor i64 %output.072, -1, !dbg !973
  %4 = icmp ugt i64 %mul.result, %3, !dbg !973
  %5 = or i1 %4, %mul.overflow, !dbg !973
  %scevgep = getelementptr [0 x i8], [0 x i8]* %output.0, i64 0, i64 1, !dbg !973
  %scevgep73 = ptrtoint i8* %scevgep to i64
  %mul74 = call { i64, i1 } @llvm.umul.with.overflow.i64(i64 %2, i64 2), !dbg !973
  %mul.result75 = extractvalue { i64, i1 } %mul74, 0, !dbg !973
  %mul.overflow76 = extractvalue { i64, i1 } %mul74, 1, !dbg !973
  %6 = xor i64 %scevgep73, -1, !dbg !973
  %7 = icmp ugt i64 %mul.result75, %6, !dbg !973
  %8 = or i1 %7, %mul.overflow76, !dbg !973
  %9 = or i1 %5, %8, !dbg !973
  br i1 %9, label %bb9.preheader77, label %vector.ph, !dbg !973

vector.ph:                                        ; preds = %vector.scevcheck
  %n.vec = and i64 %.0.i.i.i.i.i.i, -8, !dbg !973
  %10 = add i64 %n.vec, -8, !dbg !973
  %11 = lshr exact i64 %10, 3, !dbg !973
  %12 = add nuw nsw i64 %11, 1, !dbg !973
  %xtraiter = and i64 %12, 1, !dbg !973
  %13 = icmp eq i64 %10, 0, !dbg !973
  br i1 %13, label %middle.block.unr-lcssa, label %vector.ph.new, !dbg !973

vector.ph.new:                                    ; preds = %vector.ph
  %unroll_iter = sub nuw nsw i64 %12, %xtraiter, !dbg !973
  br label %vector.body, !dbg !973

vector.body:                                      ; preds = %vector.body, %vector.ph.new
  %index = phi i64 [ 0, %vector.ph.new ], [ %index.next.1, %vector.body ], !dbg !974
  %niter = phi i64 [ %unroll_iter, %vector.ph.new ], [ %niter.nsub.1, %vector.body ]
  %14 = getelementptr inbounds [0 x i16], [0 x i16]* %input.0, i64 0, i64 %index, !dbg !975
  %15 = shl i64 %index, 1, !dbg !979
  %16 = getelementptr inbounds [0 x i8], [0 x i8]* %output.0, i64 0, i64 %15, !dbg !981
  %17 = bitcast i16* %14 to <8 x i16>*, !dbg !984
  %wide.load = load <8 x i16>, <8 x i16>* %17, align 2, !dbg !984
  %18 = trunc <8 x i16> %wide.load to <8 x i8>, !dbg !985
  %19 = lshr <8 x i16> %wide.load, <i16 8, i16 8, i16 8, i16 8, i16 8, i16 8, i16 8, i16 8>, !dbg !986
  %20 = trunc <8 x i16> %19 to <8 x i8>, !dbg !987
  %21 = bitcast i8* %16 to <16 x i8>*, !dbg !987
  %interleaved.vec = shufflevector <8 x i8> %18, <8 x i8> %20, <16 x i32> <i32 0, i32 8, i32 1, i32 9, i32 2, i32 10, i32 3, i32 11, i32 4, i32 12, i32 5, i32 13, i32 6, i32 14, i32 7, i32 15>, !dbg !987
  store <16 x i8> %interleaved.vec, <16 x i8>* %21, align 1, !dbg !987
  %index.next = or i64 %index, 8, !dbg !974
  %22 = getelementptr inbounds [0 x i16], [0 x i16]* %input.0, i64 0, i64 %index.next, !dbg !975
  %23 = shl i64 %index.next, 1, !dbg !979
  %24 = getelementptr inbounds [0 x i8], [0 x i8]* %output.0, i64 0, i64 %23, !dbg !981
  %25 = bitcast i16* %22 to <8 x i16>*, !dbg !984
  %wide.load.1 = load <8 x i16>, <8 x i16>* %25, align 2, !dbg !984
  %26 = trunc <8 x i16> %wide.load.1 to <8 x i8>, !dbg !985
  %27 = lshr <8 x i16> %wide.load.1, <i16 8, i16 8, i16 8, i16 8, i16 8, i16 8, i16 8, i16 8>, !dbg !986
  %28 = trunc <8 x i16> %27 to <8 x i8>, !dbg !987
  %29 = bitcast i8* %24 to <16 x i8>*, !dbg !987
  %interleaved.vec.1 = shufflevector <8 x i8> %26, <8 x i8> %28, <16 x i32> <i32 0, i32 8, i32 1, i32 9, i32 2, i32 10, i32 3, i32 11, i32 4, i32 12, i32 5, i32 13, i32 6, i32 14, i32 7, i32 15>, !dbg !987
  store <16 x i8> %interleaved.vec.1, <16 x i8>* %29, align 1, !dbg !987
  %index.next.1 = add i64 %index, 16, !dbg !974
  %niter.nsub.1 = add i64 %niter, -2, !dbg !974
  %niter.ncmp.1 = icmp eq i64 %niter.nsub.1, 0, !dbg !974
  br i1 %niter.ncmp.1, label %middle.block.unr-lcssa, label %vector.body, !dbg !974, !llvm.loop !988

middle.block.unr-lcssa:                           ; preds = %vector.body, %vector.ph
  %index.unr = phi i64 [ 0, %vector.ph ], [ %index.next.1, %vector.body ]
  %lcmp.mod = icmp eq i64 %xtraiter, 0, !dbg !974
  br i1 %lcmp.mod, label %middle.block, label %vector.body.epil, !dbg !974

vector.body.epil:                                 ; preds = %middle.block.unr-lcssa
  %30 = getelementptr inbounds [0 x i16], [0 x i16]* %input.0, i64 0, i64 %index.unr, !dbg !975
  %31 = shl i64 %index.unr, 1, !dbg !979
  %32 = getelementptr inbounds [0 x i8], [0 x i8]* %output.0, i64 0, i64 %31, !dbg !981
  %33 = bitcast i16* %30 to <8 x i16>*, !dbg !984
  %wide.load.epil = load <8 x i16>, <8 x i16>* %33, align 2, !dbg !984
  %34 = trunc <8 x i16> %wide.load.epil to <8 x i8>, !dbg !985
  %35 = lshr <8 x i16> %wide.load.epil, <i16 8, i16 8, i16 8, i16 8, i16 8, i16 8, i16 8, i16 8>, !dbg !986
  %36 = trunc <8 x i16> %35 to <8 x i8>, !dbg !987
  %37 = bitcast i8* %32 to <16 x i8>*, !dbg !987
  %interleaved.vec.epil = shufflevector <8 x i8> %34, <8 x i8> %36, <16 x i32> <i32 0, i32 8, i32 1, i32 9, i32 2, i32 10, i32 3, i32 11, i32 4, i32 12, i32 5, i32 13, i32 6, i32 14, i32 7, i32 15>, !dbg !987
  store <16 x i8> %interleaved.vec.epil, <16 x i8>* %37, align 1, !dbg !987
  br label %middle.block, !dbg !973

middle.block:                                     ; preds = %middle.block.unr-lcssa, %vector.body.epil
  %cmp.n = icmp eq i64 %.0.i.i.i.i.i.i, %n.vec, !dbg !973
  br i1 %cmp.n, label %bb7, label %bb9.preheader77, !dbg !973

bb7:                                              ; preds = %bb9, %middle.block, %_ZN4core4iter6traits8iterator8Iterator3zip17h4af0dced40c2956aE.exit
  ret void, !dbg !989

bb9:                                              ; preds = %bb9.preheader77, %bb9
  %iter.sroa.11.071 = phi i64 [ %38, %bb9 ], [ %iter.sroa.11.071.ph, %bb9.preheader77 ]
  call void @llvm.dbg.value(metadata i64 %iter.sroa.11.071, metadata !482, metadata !DIExpression()) #4, !dbg !990
  %38 = add nuw i64 %iter.sroa.11.071, 1, !dbg !974
  call void @llvm.dbg.value(metadata i64 %iter.sroa.11.071, metadata !510, metadata !DIExpression()) #4, !dbg !991
  call void @llvm.dbg.value(metadata [0 x i16]* %input.0, metadata !501, metadata !DIExpression()) #4, !dbg !992
  call void @llvm.dbg.value(metadata i64 %iter.sroa.11.071, metadata !502, metadata !DIExpression()) #4, !dbg !992
  call void @llvm.dbg.value(metadata [0 x i16]* %input.0, metadata !494, metadata !DIExpression()) #4, !dbg !993
  call void @llvm.dbg.value(metadata i64 %iter.sroa.11.071, metadata !495, metadata !DIExpression()) #4, !dbg !993
  %39 = getelementptr inbounds [0 x i16], [0 x i16]* %input.0, i64 0, i64 %iter.sroa.11.071, !dbg !975
  call void @llvm.dbg.value(metadata %"core::slice::ChunksMut<u8>"* undef, metadata !518, metadata !DIExpression()) #4, !dbg !994
  call void @llvm.dbg.value(metadata i64 %iter.sroa.11.071, metadata !519, metadata !DIExpression()) #4, !dbg !994
  %start1.i.i.i = shl i64 %iter.sroa.11.071, 1, !dbg !979
  call void @llvm.dbg.value(metadata i64 %start1.i.i.i, metadata !520, metadata !DIExpression()) #4, !dbg !995
  call void @llvm.dbg.value(metadata i64 undef, metadata !522, metadata !DIExpression()) #4, !dbg !996
  call void @llvm.dbg.value(metadata [0 x i8]* %output.0, metadata !192, metadata !DIExpression()) #4, !dbg !997
  call void @llvm.dbg.value(metadata i64 %start1.i.i.i, metadata !193, metadata !DIExpression()) #4, !dbg !997
  call void @llvm.dbg.value(metadata [0 x i8]* %output.0, metadata !183, metadata !DIExpression()) #4, !dbg !998
  call void @llvm.dbg.value(metadata i64 %start1.i.i.i, metadata !184, metadata !DIExpression()) #4, !dbg !998
  %40 = getelementptr inbounds [0 x i8], [0 x i8]* %output.0, i64 0, i64 %start1.i.i.i, !dbg !981
  call void @llvm.dbg.value(metadata i16* %39, metadata !934, metadata !DIExpression(DW_OP_LLVM_fragment, 0, 64)), !dbg !999
  call void @llvm.dbg.value(metadata i8* %40, metadata !934, metadata !DIExpression(DW_OP_LLVM_fragment, 64, 64)), !dbg !999
  call void @llvm.dbg.value(metadata i16* %39, metadata !938, metadata !DIExpression()), !dbg !1000
  call void @llvm.dbg.value(metadata i8* %40, metadata !940, metadata !DIExpression(DW_OP_LLVM_fragment, 0, 64)), !dbg !1000
  %_20 = load i16, i16* %39, align 2, !dbg !984
  %41 = trunc i16 %_20 to i8, !dbg !985
  store i8 %41, i8* %40, align 1, !dbg !985
  %_25 = lshr i16 %_20, 8, !dbg !986
  %42 = getelementptr inbounds i8, i8* %40, i64 1, !dbg !987
  %43 = trunc i16 %_25 to i8, !dbg !987
  store i8 %43, i8* %42, align 1, !dbg !987
  call void @llvm.dbg.value(metadata %"core::iter::adapters::zip::Zip<core::slice::Iter<u16>, core::slice::ChunksMut<u8>>"* undef, metadata !932, metadata !DIExpression(DW_OP_deref)), !dbg !967
  call void @llvm.dbg.value(metadata %"core::iter::adapters::zip::Zip<core::slice::Iter<u16>, core::slice::ChunksMut<u8>>"* undef, metadata !457, metadata !DIExpression()) #4, !dbg !968
  call void @llvm.dbg.value(metadata %"core::iter::adapters::zip::Zip<core::slice::Iter<u16>, core::slice::ChunksMut<u8>>"* undef, metadata !479, metadata !DIExpression()) #4, !dbg !970
  %_2.i.i = icmp ult i64 %38, %.0.i.i.i.i.i.i, !dbg !972
  br i1 %_2.i.i, label %bb9, label %bb7, !dbg !973, !llvm.loop !1001
}

; iterator_bench::zip_chunks_unknown_size_take_impl
; Function Attrs: noinline nonlazybind uwtable
define void @_ZN14iterator_bench33zip_chunks_unknown_size_take_impl17hb9c664531f52ee33E([0 x i8]* nonnull align 1 %output.0, i64 %output.1, [0 x i16]* noalias nonnull readonly align 2 %input.0, i64 %input.1) unnamed_addr #1 personality i32 (i32, i32, i64, %"unwind::libunwind::_Unwind_Exception"*, %"unwind::libunwind::_Unwind_Context"*)* @rust_eh_personality !dbg !1002 {
start:
  call void @llvm.dbg.value(metadata [0 x i8]* %output.0, metadata !1004, metadata !DIExpression(DW_OP_LLVM_fragment, 0, 64)), !dbg !1015
  call void @llvm.dbg.value(metadata i64 %output.1, metadata !1004, metadata !DIExpression(DW_OP_LLVM_fragment, 64, 64)), !dbg !1015
  call void @llvm.dbg.value(metadata [0 x i16]* %input.0, metadata !1005, metadata !DIExpression(DW_OP_LLVM_fragment, 0, 64)), !dbg !1015
  call void @llvm.dbg.value(metadata i64 %input.1, metadata !1005, metadata !DIExpression(DW_OP_LLVM_fragment, 64, 64)), !dbg !1015
  call void @llvm.dbg.value(metadata [0 x i8]* %output.0, metadata !724, metadata !DIExpression(DW_OP_LLVM_fragment, 0, 64)), !dbg !1016
  call void @llvm.dbg.value(metadata i64 %output.1, metadata !724, metadata !DIExpression(DW_OP_LLVM_fragment, 64, 64)), !dbg !1016
  call void @llvm.dbg.value(metadata i64 2, metadata !724, metadata !DIExpression(DW_OP_LLVM_fragment, 128, 64)), !dbg !1016
  call void @llvm.dbg.value(metadata [0 x i16]* %input.0, metadata !733, metadata !DIExpression(DW_OP_LLVM_fragment, 0, 64)), !dbg !1016
  call void @llvm.dbg.value(metadata [0 x i8]* %output.0, metadata !739, metadata !DIExpression(DW_OP_LLVM_fragment, 0, 64)), !dbg !1018
  call void @llvm.dbg.value(metadata i64 %output.1, metadata !739, metadata !DIExpression(DW_OP_LLVM_fragment, 64, 64)), !dbg !1018
  call void @llvm.dbg.value(metadata i64 2, metadata !739, metadata !DIExpression(DW_OP_LLVM_fragment, 128, 64)), !dbg !1018
  call void @llvm.dbg.value(metadata [0 x i16]* %input.0, metadata !742, metadata !DIExpression(DW_OP_LLVM_fragment, 0, 64)), !dbg !1018
  call void @llvm.dbg.value(metadata i64 %output.1, metadata !745, metadata !DIExpression(DW_OP_LLVM_fragment, 64, 64)), !dbg !1020
  call void @llvm.dbg.value(metadata i64 2, metadata !745, metadata !DIExpression(DW_OP_LLVM_fragment, 128, 64)), !dbg !1020
  call void @llvm.dbg.value(metadata [0 x i8]* undef, metadata !828, metadata !DIExpression(DW_OP_LLVM_fragment, 0, 64)), !dbg !1022
  call void @llvm.dbg.value(metadata i64 %output.1, metadata !828, metadata !DIExpression(DW_OP_LLVM_fragment, 64, 64)), !dbg !1022
  %0 = icmp eq i64 %output.1, 0, !dbg !1026
  br i1 %0, label %_ZN4core4iter6traits8iterator8Iterator3zip17h4af0dced40c2956aE.exit, label %bb7.i.i.i.i.i, !dbg !1027

bb7.i.i.i.i.i:                                    ; preds = %start
  call void @llvm.dbg.value(metadata i64 undef, metadata !849, metadata !DIExpression()), !dbg !1028
  %n1.i.i.i.i.i = lshr i64 %output.1, 1, !dbg !1029
  call void @llvm.dbg.value(metadata i64 %n1.i.i.i.i.i, metadata !849, metadata !DIExpression()), !dbg !1028
  %rem.i.i.i.i.i = and i64 %output.1, 1, !dbg !1030
  call void @llvm.dbg.value(metadata i64 %rem.i.i.i.i.i, metadata !851, metadata !DIExpression()), !dbg !1031
  %n.0.i.i.i.i.i = add nuw i64 %n1.i.i.i.i.i, %rem.i.i.i.i.i, !dbg !1032
  br label %_ZN4core4iter6traits8iterator8Iterator3zip17h4af0dced40c2956aE.exit, !dbg !1027

_ZN4core4iter6traits8iterator8Iterator3zip17h4af0dced40c2956aE.exit: ; preds = %start, %bb7.i.i.i.i.i
  %_3.sroa.8.0.i.i.i.i = phi i64 [ %n.0.i.i.i.i.i, %bb7.i.i.i.i.i ], [ 0, %start ], !dbg !1033
  call void @llvm.dbg.value(metadata i64 %input.1, metadata !753, metadata !DIExpression()), !dbg !1034
  call void @llvm.dbg.value(metadata i64 %_3.sroa.8.0.i.i.i.i, metadata !756, metadata !DIExpression()), !dbg !1034
  call void @llvm.dbg.value(metadata i64 %input.1, metadata !759, metadata !DIExpression()), !dbg !1036
  call void @llvm.dbg.value(metadata i64 %_3.sroa.8.0.i.i.i.i, metadata !762, metadata !DIExpression()), !dbg !1036
  call void @llvm.dbg.value(metadata i64 %input.1, metadata !765, metadata !DIExpression()), !dbg !1038
  call void @llvm.dbg.value(metadata i64 %_3.sroa.8.0.i.i.i.i, metadata !768, metadata !DIExpression()), !dbg !1038
  %1 = icmp ult i64 %_3.sroa.8.0.i.i.i.i, %input.1, !dbg !1040
  call void @llvm.dbg.value(metadata i64 %_3.sroa.8.0.i.i.i.i, metadata !768, metadata !DIExpression()), !dbg !1038
  call void @llvm.dbg.value(metadata i64 %input.1, metadata !765, metadata !DIExpression()), !dbg !1038
  %.0.i.i.i.i.i.i = select i1 %1, i64 %_3.sroa.8.0.i.i.i.i, i64 %input.1, !dbg !1040
  call void @llvm.dbg.value(metadata %"core::iter::adapters::Take<core::iter::adapters::zip::Zip<core::slice::Iter<u16>, core::slice::ChunksMut<u8>>>"* undef, metadata !1006, metadata !DIExpression(DW_OP_deref)), !dbg !1041
  call void @llvm.dbg.value(metadata %"core::iter::adapters::Take<core::iter::adapters::zip::Zip<core::slice::Iter<u16>, core::slice::ChunksMut<u8>>>"* undef, metadata !557, metadata !DIExpression()) #4, !dbg !1042
  %_2.i.i.i101 = icmp eq i64 %.0.i.i.i.i.i.i, 0, !dbg !1044
  call void @llvm.dbg.value(metadata %"core::iter::adapters::Take<core::iter::adapters::zip::Zip<core::slice::Iter<u16>, core::slice::ChunksMut<u8>>>"* undef, metadata !457, metadata !DIExpression()) #4, !dbg !1047
  call void @llvm.dbg.value(metadata %"core::iter::adapters::Take<core::iter::adapters::zip::Zip<core::slice::Iter<u16>, core::slice::ChunksMut<u8>>>"* undef, metadata !479, metadata !DIExpression()) #4, !dbg !1048
  br i1 %_2.i.i.i101, label %bb8, label %bb10.preheader, !dbg !1049

bb10.preheader:                                   ; preds = %_ZN4core4iter6traits8iterator8Iterator3zip17h4af0dced40c2956aE.exit
  %2 = add i64 %.0.i.i.i.i.i.i, -1, !dbg !1049
  %3 = icmp ult i64 %2, 319999, !dbg !1049
  %umin = select i1 %3, i64 %2, i64 319999, !dbg !1049
  %4 = add nuw nsw i64 %umin, 1, !dbg !1049
  %min.iters.check = icmp ult i64 %4, 8, !dbg !1049
  br i1 %min.iters.check, label %bb10.preheader108, label %vector.ph, !dbg !1049

bb10.preheader108:                                ; preds = %middle.block, %bb10.preheader
  %iter.sroa.16.0103.ph = phi i64 [ 320000, %bb10.preheader ], [ %ind.end, %middle.block ]
  %iter.sroa.11.0102.ph = phi i64 [ 0, %bb10.preheader ], [ %n.vec, %middle.block ]
  br label %bb10, !dbg !1049

vector.ph:                                        ; preds = %bb10.preheader
  %n.vec = and i64 %4, 1048568, !dbg !1049
  %ind.end = sub nsw i64 320000, %n.vec, !dbg !1049
  %5 = add nsw i64 %n.vec, -8, !dbg !1049
  %6 = lshr exact i64 %5, 3, !dbg !1049
  %7 = add nuw nsw i64 %6, 1, !dbg !1049
  %xtraiter = and i64 %7, 1, !dbg !1049
  %8 = icmp eq i64 %5, 0, !dbg !1049
  br i1 %8, label %middle.block.unr-lcssa, label %vector.ph.new, !dbg !1049

vector.ph.new:                                    ; preds = %vector.ph
  %unroll_iter = sub nuw nsw i64 %7, %xtraiter, !dbg !1049
  br label %vector.body, !dbg !1049

vector.body:                                      ; preds = %vector.body, %vector.ph.new
  %index = phi i64 [ 0, %vector.ph.new ], [ %index.next.1, %vector.body ], !dbg !1050
  %niter = phi i64 [ %unroll_iter, %vector.ph.new ], [ %niter.nsub.1, %vector.body ]
  %9 = getelementptr inbounds [0 x i16], [0 x i16]* %input.0, i64 0, i64 %index, !dbg !1051
  %10 = shl nuw i64 %index, 1, !dbg !1055
  %11 = getelementptr inbounds [0 x i8], [0 x i8]* %output.0, i64 0, i64 %10, !dbg !1057
  %12 = bitcast i16* %9 to <8 x i16>*, !dbg !1060
  %wide.load = load <8 x i16>, <8 x i16>* %12, align 2, !dbg !1060
  %13 = trunc <8 x i16> %wide.load to <8 x i8>, !dbg !1061
  %14 = lshr <8 x i16> %wide.load, <i16 8, i16 8, i16 8, i16 8, i16 8, i16 8, i16 8, i16 8>, !dbg !1062
  %15 = trunc <8 x i16> %14 to <8 x i8>, !dbg !1063
  %16 = bitcast i8* %11 to <16 x i8>*, !dbg !1063
  %interleaved.vec = shufflevector <8 x i8> %13, <8 x i8> %15, <16 x i32> <i32 0, i32 8, i32 1, i32 9, i32 2, i32 10, i32 3, i32 11, i32 4, i32 12, i32 5, i32 13, i32 6, i32 14, i32 7, i32 15>, !dbg !1063
  store <16 x i8> %interleaved.vec, <16 x i8>* %16, align 1, !dbg !1063
  %index.next = or i64 %index, 8, !dbg !1050
  %17 = getelementptr inbounds [0 x i16], [0 x i16]* %input.0, i64 0, i64 %index.next, !dbg !1051
  %18 = shl nuw i64 %index.next, 1, !dbg !1055
  %19 = getelementptr inbounds [0 x i8], [0 x i8]* %output.0, i64 0, i64 %18, !dbg !1057
  %20 = bitcast i16* %17 to <8 x i16>*, !dbg !1060
  %wide.load.1 = load <8 x i16>, <8 x i16>* %20, align 2, !dbg !1060
  %21 = trunc <8 x i16> %wide.load.1 to <8 x i8>, !dbg !1061
  %22 = lshr <8 x i16> %wide.load.1, <i16 8, i16 8, i16 8, i16 8, i16 8, i16 8, i16 8, i16 8>, !dbg !1062
  %23 = trunc <8 x i16> %22 to <8 x i8>, !dbg !1063
  %24 = bitcast i8* %19 to <16 x i8>*, !dbg !1063
  %interleaved.vec.1 = shufflevector <8 x i8> %21, <8 x i8> %23, <16 x i32> <i32 0, i32 8, i32 1, i32 9, i32 2, i32 10, i32 3, i32 11, i32 4, i32 12, i32 5, i32 13, i32 6, i32 14, i32 7, i32 15>, !dbg !1063
  store <16 x i8> %interleaved.vec.1, <16 x i8>* %24, align 1, !dbg !1063
  %index.next.1 = add i64 %index, 16, !dbg !1050
  %niter.nsub.1 = add i64 %niter, -2, !dbg !1050
  %niter.ncmp.1 = icmp eq i64 %niter.nsub.1, 0, !dbg !1050
  br i1 %niter.ncmp.1, label %middle.block.unr-lcssa, label %vector.body, !dbg !1050, !llvm.loop !1064

middle.block.unr-lcssa:                           ; preds = %vector.body, %vector.ph
  %index.unr = phi i64 [ 0, %vector.ph ], [ %index.next.1, %vector.body ]
  %lcmp.mod = icmp eq i64 %xtraiter, 0, !dbg !1050
  br i1 %lcmp.mod, label %middle.block, label %vector.body.epil, !dbg !1050

vector.body.epil:                                 ; preds = %middle.block.unr-lcssa
  %25 = getelementptr inbounds [0 x i16], [0 x i16]* %input.0, i64 0, i64 %index.unr, !dbg !1051
  %26 = shl nuw i64 %index.unr, 1, !dbg !1055
  %27 = getelementptr inbounds [0 x i8], [0 x i8]* %output.0, i64 0, i64 %26, !dbg !1057
  %28 = bitcast i16* %25 to <8 x i16>*, !dbg !1060
  %wide.load.epil = load <8 x i16>, <8 x i16>* %28, align 2, !dbg !1060
  %29 = trunc <8 x i16> %wide.load.epil to <8 x i8>, !dbg !1061
  %30 = lshr <8 x i16> %wide.load.epil, <i16 8, i16 8, i16 8, i16 8, i16 8, i16 8, i16 8, i16 8>, !dbg !1062
  %31 = trunc <8 x i16> %30 to <8 x i8>, !dbg !1063
  %32 = bitcast i8* %27 to <16 x i8>*, !dbg !1063
  %interleaved.vec.epil = shufflevector <8 x i8> %29, <8 x i8> %31, <16 x i32> <i32 0, i32 8, i32 1, i32 9, i32 2, i32 10, i32 3, i32 11, i32 4, i32 12, i32 5, i32 13, i32 6, i32 14, i32 7, i32 15>, !dbg !1063
  store <16 x i8> %interleaved.vec.epil, <16 x i8>* %32, align 1, !dbg !1063
  br label %middle.block, !dbg !1049

middle.block:                                     ; preds = %middle.block.unr-lcssa, %vector.body.epil
  %cmp.n = icmp eq i64 %4, %n.vec, !dbg !1049
  br i1 %cmp.n, label %bb8, label %bb10.preheader108, !dbg !1049

bb8:                                              ; preds = %bb10, %middle.block, %_ZN4core4iter6traits8iterator8Iterator3zip17h4af0dced40c2956aE.exit
  ret void, !dbg !1065

bb10:                                             ; preds = %bb10.preheader108, %bb10
  %iter.sroa.16.0103 = phi i64 [ %33, %bb10 ], [ %iter.sroa.16.0103.ph, %bb10.preheader108 ]
  %iter.sroa.11.0102 = phi i64 [ %34, %bb10 ], [ %iter.sroa.11.0102.ph, %bb10.preheader108 ]
  %33 = add nsw i64 %iter.sroa.16.0103, -1, !dbg !1066
  call void @llvm.dbg.value(metadata %"core::iter::adapters::Take<core::iter::adapters::zip::Zip<core::slice::Iter<u16>, core::slice::ChunksMut<u8>>>"* undef, metadata !457, metadata !DIExpression()) #4, !dbg !1047
  call void @llvm.dbg.value(metadata %"core::iter::adapters::Take<core::iter::adapters::zip::Zip<core::slice::Iter<u16>, core::slice::ChunksMut<u8>>>"* undef, metadata !479, metadata !DIExpression()) #4, !dbg !1048
  call void @llvm.dbg.value(metadata i64 %iter.sroa.11.0102, metadata !482, metadata !DIExpression()) #4, !dbg !1067
  %34 = add nuw nsw i64 %iter.sroa.11.0102, 1, !dbg !1050
  call void @llvm.dbg.value(metadata i64 %iter.sroa.11.0102, metadata !510, metadata !DIExpression()) #4, !dbg !1068
  call void @llvm.dbg.value(metadata [0 x i16]* %input.0, metadata !501, metadata !DIExpression()) #4, !dbg !1069
  call void @llvm.dbg.value(metadata i64 %iter.sroa.11.0102, metadata !502, metadata !DIExpression()) #4, !dbg !1069
  call void @llvm.dbg.value(metadata [0 x i16]* %input.0, metadata !494, metadata !DIExpression()) #4, !dbg !1070
  call void @llvm.dbg.value(metadata i64 %iter.sroa.11.0102, metadata !495, metadata !DIExpression()) #4, !dbg !1070
  %35 = getelementptr inbounds [0 x i16], [0 x i16]* %input.0, i64 0, i64 %iter.sroa.11.0102, !dbg !1051
  call void @llvm.dbg.value(metadata %"core::slice::ChunksMut<u8>"* undef, metadata !518, metadata !DIExpression()) #4, !dbg !1071
  call void @llvm.dbg.value(metadata i64 %iter.sroa.11.0102, metadata !519, metadata !DIExpression()) #4, !dbg !1071
  %start1.i.i.i.i = shl nuw i64 %iter.sroa.11.0102, 1, !dbg !1055
  call void @llvm.dbg.value(metadata i64 %start1.i.i.i.i, metadata !520, metadata !DIExpression()) #4, !dbg !1072
  call void @llvm.dbg.value(metadata i64 undef, metadata !522, metadata !DIExpression()) #4, !dbg !1073
  call void @llvm.dbg.value(metadata [0 x i8]* %output.0, metadata !192, metadata !DIExpression()) #4, !dbg !1074
  call void @llvm.dbg.value(metadata i64 %start1.i.i.i.i, metadata !193, metadata !DIExpression()) #4, !dbg !1074
  call void @llvm.dbg.value(metadata [0 x i8]* %output.0, metadata !183, metadata !DIExpression()) #4, !dbg !1075
  call void @llvm.dbg.value(metadata i64 %start1.i.i.i.i, metadata !184, metadata !DIExpression()) #4, !dbg !1075
  %36 = getelementptr inbounds [0 x i8], [0 x i8]* %output.0, i64 0, i64 %start1.i.i.i.i, !dbg !1057
  call void @llvm.dbg.value(metadata i16* %35, metadata !1008, metadata !DIExpression(DW_OP_LLVM_fragment, 0, 64)), !dbg !1076
  call void @llvm.dbg.value(metadata i8* %36, metadata !1008, metadata !DIExpression(DW_OP_LLVM_fragment, 64, 64)), !dbg !1076
  call void @llvm.dbg.value(metadata i16* %35, metadata !1012, metadata !DIExpression()), !dbg !1077
  call void @llvm.dbg.value(metadata i8* %36, metadata !1014, metadata !DIExpression(DW_OP_LLVM_fragment, 0, 64)), !dbg !1077
  %_21 = load i16, i16* %35, align 2, !dbg !1060
  %37 = trunc i16 %_21 to i8, !dbg !1061
  store i8 %37, i8* %36, align 1, !dbg !1061
  %_26 = lshr i16 %_21, 8, !dbg !1062
  %38 = getelementptr inbounds i8, i8* %36, i64 1, !dbg !1063
  %39 = trunc i16 %_26 to i8, !dbg !1063
  store i8 %39, i8* %38, align 1, !dbg !1063
  call void @llvm.dbg.value(metadata %"core::iter::adapters::Take<core::iter::adapters::zip::Zip<core::slice::Iter<u16>, core::slice::ChunksMut<u8>>>"* undef, metadata !1006, metadata !DIExpression(DW_OP_deref)), !dbg !1041
  call void @llvm.dbg.value(metadata %"core::iter::adapters::Take<core::iter::adapters::zip::Zip<core::slice::Iter<u16>, core::slice::ChunksMut<u8>>>"* undef, metadata !557, metadata !DIExpression()) #4, !dbg !1042
  %_2.i = icmp ne i64 %33, 0, !dbg !1078
  %_2.i.i.i = icmp ult i64 %34, %.0.i.i.i.i.i.i, !dbg !1044
  %or.cond = and i1 %_2.i.i.i, %_2.i, !dbg !1049
  call void @llvm.dbg.value(metadata %"core::iter::adapters::Take<core::iter::adapters::zip::Zip<core::slice::Iter<u16>, core::slice::ChunksMut<u8>>>"* undef, metadata !457, metadata !DIExpression()) #4, !dbg !1047
  call void @llvm.dbg.value(metadata %"core::iter::adapters::Take<core::iter::adapters::zip::Zip<core::slice::Iter<u16>, core::slice::ChunksMut<u8>>>"* undef, metadata !479, metadata !DIExpression()) #4, !dbg !1048
  br i1 %or.cond, label %bb10, label %bb8, !dbg !1049, !llvm.loop !1079
}

; iterator_bench::zip_chunks_unknown_size_take_iter_impl
; Function Attrs: noinline nonlazybind uwtable
define void @_ZN14iterator_bench38zip_chunks_unknown_size_take_iter_impl17he60b9c1c78a81209E([0 x i8]* nonnull align 1 %output.0, i64 %output.1, [0 x i16]* noalias nonnull readonly align 2 %input.0, i64 %input.1) unnamed_addr #1 personality i32 (i32, i32, i64, %"unwind::libunwind::_Unwind_Exception"*, %"unwind::libunwind::_Unwind_Context"*)* @rust_eh_personality !dbg !1081 {
start:
  call void @llvm.dbg.value(metadata [0 x i8]* %output.0, metadata !1083, metadata !DIExpression(DW_OP_LLVM_fragment, 0, 64)), !dbg !1104
  call void @llvm.dbg.value(metadata i64 %output.1, metadata !1083, metadata !DIExpression(DW_OP_LLVM_fragment, 64, 64)), !dbg !1104
  call void @llvm.dbg.value(metadata [0 x i16]* %input.0, metadata !1084, metadata !DIExpression(DW_OP_LLVM_fragment, 0, 64)), !dbg !1104
  call void @llvm.dbg.value(metadata i64 %input.1, metadata !1084, metadata !DIExpression(DW_OP_LLVM_fragment, 64, 64)), !dbg !1104
  call void @llvm.dbg.value(metadata [0 x i8]* %output.0, metadata !724, metadata !DIExpression(DW_OP_LLVM_fragment, 0, 64)), !dbg !1105
  call void @llvm.dbg.value(metadata i64 %output.1, metadata !724, metadata !DIExpression(DW_OP_LLVM_fragment, 64, 64)), !dbg !1105
  call void @llvm.dbg.value(metadata i64 2, metadata !724, metadata !DIExpression(DW_OP_LLVM_fragment, 128, 64)), !dbg !1105
  call void @llvm.dbg.value(metadata [0 x i16]* %input.0, metadata !733, metadata !DIExpression(DW_OP_LLVM_fragment, 0, 64)), !dbg !1105
  call void @llvm.dbg.value(metadata [0 x i8]* %output.0, metadata !739, metadata !DIExpression(DW_OP_LLVM_fragment, 0, 64)), !dbg !1107
  call void @llvm.dbg.value(metadata i64 %output.1, metadata !739, metadata !DIExpression(DW_OP_LLVM_fragment, 64, 64)), !dbg !1107
  call void @llvm.dbg.value(metadata i64 2, metadata !739, metadata !DIExpression(DW_OP_LLVM_fragment, 128, 64)), !dbg !1107
  call void @llvm.dbg.value(metadata [0 x i16]* %input.0, metadata !742, metadata !DIExpression(DW_OP_LLVM_fragment, 0, 64)), !dbg !1107
  call void @llvm.dbg.value(metadata i64 %output.1, metadata !745, metadata !DIExpression(DW_OP_LLVM_fragment, 64, 64)), !dbg !1109
  call void @llvm.dbg.value(metadata i64 2, metadata !745, metadata !DIExpression(DW_OP_LLVM_fragment, 128, 64)), !dbg !1109
  call void @llvm.dbg.value(metadata [0 x i8]* undef, metadata !828, metadata !DIExpression(DW_OP_LLVM_fragment, 0, 64)), !dbg !1111
  call void @llvm.dbg.value(metadata i64 %output.1, metadata !828, metadata !DIExpression(DW_OP_LLVM_fragment, 64, 64)), !dbg !1111
  %0 = icmp eq i64 %output.1, 0, !dbg !1115
  br i1 %0, label %_ZN4core4iter6traits8iterator8Iterator3zip17h4af0dced40c2956aE.exit, label %bb7.i.i.i.i.i, !dbg !1116

bb7.i.i.i.i.i:                                    ; preds = %start
  call void @llvm.dbg.value(metadata i64 undef, metadata !849, metadata !DIExpression()), !dbg !1117
  %n1.i.i.i.i.i = lshr i64 %output.1, 1, !dbg !1118
  call void @llvm.dbg.value(metadata i64 %n1.i.i.i.i.i, metadata !849, metadata !DIExpression()), !dbg !1117
  %rem.i.i.i.i.i = and i64 %output.1, 1, !dbg !1119
  call void @llvm.dbg.value(metadata i64 %rem.i.i.i.i.i, metadata !851, metadata !DIExpression()), !dbg !1120
  %n.0.i.i.i.i.i = add nuw i64 %n1.i.i.i.i.i, %rem.i.i.i.i.i, !dbg !1121
  br label %_ZN4core4iter6traits8iterator8Iterator3zip17h4af0dced40c2956aE.exit, !dbg !1116

_ZN4core4iter6traits8iterator8Iterator3zip17h4af0dced40c2956aE.exit: ; preds = %start, %bb7.i.i.i.i.i
  %_3.sroa.8.0.i.i.i.i = phi i64 [ %n.0.i.i.i.i.i, %bb7.i.i.i.i.i ], [ 0, %start ], !dbg !1122
  call void @llvm.dbg.value(metadata i64 %input.1, metadata !753, metadata !DIExpression()), !dbg !1123
  call void @llvm.dbg.value(metadata i64 %_3.sroa.8.0.i.i.i.i, metadata !756, metadata !DIExpression()), !dbg !1123
  call void @llvm.dbg.value(metadata i64 %input.1, metadata !759, metadata !DIExpression()), !dbg !1125
  call void @llvm.dbg.value(metadata i64 %_3.sroa.8.0.i.i.i.i, metadata !762, metadata !DIExpression()), !dbg !1125
  call void @llvm.dbg.value(metadata i64 %input.1, metadata !765, metadata !DIExpression()), !dbg !1127
  call void @llvm.dbg.value(metadata i64 %_3.sroa.8.0.i.i.i.i, metadata !768, metadata !DIExpression()), !dbg !1127
  %1 = icmp ult i64 %_3.sroa.8.0.i.i.i.i, %input.1, !dbg !1129
  call void @llvm.dbg.value(metadata i64 %_3.sroa.8.0.i.i.i.i, metadata !768, metadata !DIExpression()), !dbg !1127
  call void @llvm.dbg.value(metadata i64 %input.1, metadata !765, metadata !DIExpression()), !dbg !1127
  %.0.i.i.i.i.i.i = select i1 %1, i64 %_3.sroa.8.0.i.i.i.i, i64 %input.1, !dbg !1129
  call void @llvm.dbg.value(metadata %"core::iter::adapters::Take<core::iter::adapters::zip::Zip<core::slice::Iter<u16>, core::slice::ChunksMut<u8>>>"* undef, metadata !1085, metadata !DIExpression(DW_OP_deref)), !dbg !1130
  call void @llvm.dbg.value(metadata %"core::iter::adapters::Take<core::iter::adapters::zip::Zip<core::slice::Iter<u16>, core::slice::ChunksMut<u8>>>"* undef, metadata !557, metadata !DIExpression()) #4, !dbg !1131
  br label %bb2.i, !dbg !1133

bb6.loopexit:                                     ; preds = %bb17.prol.loopexit, %bb17, %bb10
  call void @llvm.dbg.value(metadata %"core::iter::adapters::Take<core::iter::adapters::zip::Zip<core::slice::Iter<u16>, core::slice::ChunksMut<u8>>>"* undef, metadata !1085, metadata !DIExpression(DW_OP_deref)), !dbg !1130
  call void @llvm.dbg.value(metadata %"core::iter::adapters::Take<core::iter::adapters::zip::Zip<core::slice::Iter<u16>, core::slice::ChunksMut<u8>>>"* undef, metadata !557, metadata !DIExpression()) #4, !dbg !1131
  %_2.i = icmp eq i64 %9, 0, !dbg !1134
  br i1 %_2.i, label %bb8, label %bb2.i, !dbg !1133

bb2.i:                                            ; preds = %_ZN4core4iter6traits8iterator8Iterator3zip17h4af0dced40c2956aE.exit, %bb6.loopexit
  %iter.sroa.16.0116 = phi i64 [ 320000, %_ZN4core4iter6traits8iterator8Iterator3zip17h4af0dced40c2956aE.exit ], [ %9, %bb6.loopexit ]
  %iter.sroa.11.0115 = phi i64 [ 0, %_ZN4core4iter6traits8iterator8Iterator3zip17h4af0dced40c2956aE.exit ], [ %10, %bb6.loopexit ]
  %2 = shl nuw nsw i64 %iter.sroa.11.0115, 1, !dbg !1135
  %3 = add nuw i64 %2, 2, !dbg !1135
  %4 = icmp ugt i64 %3, %output.1, !dbg !1135
  %umin = select i1 %4, i64 %output.1, i64 %3, !dbg !1135
  %5 = mul nsw i64 %iter.sroa.11.0115, -2, !dbg !1135
  %6 = add i64 %umin, %5, !dbg !1135
  %7 = add i64 %5, -1, !dbg !1135
  %8 = add i64 %umin, %7, !dbg !1135
  %9 = add nsw i64 %iter.sroa.16.0116, -1, !dbg !1135
  call void @llvm.dbg.value(metadata %"core::iter::adapters::Take<core::iter::adapters::zip::Zip<core::slice::Iter<u16>, core::slice::ChunksMut<u8>>>"* undef, metadata !457, metadata !DIExpression()) #4, !dbg !1136
  call void @llvm.dbg.value(metadata %"core::iter::adapters::Take<core::iter::adapters::zip::Zip<core::slice::Iter<u16>, core::slice::ChunksMut<u8>>>"* undef, metadata !479, metadata !DIExpression()) #4, !dbg !1138
  %_2.i.i.i = icmp ult i64 %iter.sroa.11.0115, %.0.i.i.i.i.i.i, !dbg !1140
  br i1 %_2.i.i.i, label %bb10, label %bb8, !dbg !1141

bb8:                                              ; preds = %bb6.loopexit, %bb2.i
  ret void, !dbg !1142

bb10:                                             ; preds = %bb2.i
  call void @llvm.dbg.value(metadata %"core::iter::adapters::Take<core::iter::adapters::zip::Zip<core::slice::Iter<u16>, core::slice::ChunksMut<u8>>>"* undef, metadata !457, metadata !DIExpression()) #4, !dbg !1136
  call void @llvm.dbg.value(metadata %"core::iter::adapters::Take<core::iter::adapters::zip::Zip<core::slice::Iter<u16>, core::slice::ChunksMut<u8>>>"* undef, metadata !479, metadata !DIExpression()) #4, !dbg !1138
  call void @llvm.dbg.value(metadata i64 %iter.sroa.11.0115, metadata !482, metadata !DIExpression()) #4, !dbg !1143
  %10 = add nuw nsw i64 %iter.sroa.11.0115, 1, !dbg !1144
  call void @llvm.dbg.value(metadata i64 %iter.sroa.11.0115, metadata !510, metadata !DIExpression()) #4, !dbg !1145
  call void @llvm.dbg.value(metadata [0 x i16]* %input.0, metadata !501, metadata !DIExpression()) #4, !dbg !1147
  call void @llvm.dbg.value(metadata i64 %iter.sroa.11.0115, metadata !502, metadata !DIExpression()) #4, !dbg !1147
  call void @llvm.dbg.value(metadata [0 x i16]* %input.0, metadata !494, metadata !DIExpression()) #4, !dbg !1149
  call void @llvm.dbg.value(metadata i64 %iter.sroa.11.0115, metadata !495, metadata !DIExpression()) #4, !dbg !1149
  call void @llvm.dbg.value(metadata %"core::slice::ChunksMut<u8>"* undef, metadata !518, metadata !DIExpression()) #4, !dbg !1151
  call void @llvm.dbg.value(metadata i64 %iter.sroa.11.0115, metadata !519, metadata !DIExpression()) #4, !dbg !1151
  %start1.i.i.i.i = shl nuw i64 %iter.sroa.11.0115, 1, !dbg !1153
  call void @llvm.dbg.value(metadata i64 %start1.i.i.i.i, metadata !520, metadata !DIExpression()) #4, !dbg !1154
  %11 = add nuw nsw i64 %start1.i.i.i.i, 2
  %12 = icmp ugt i64 %11, %output.1, !dbg !1155
  %end.0.i.i.i.i = select i1 %12, i64 %output.1, i64 %11, !dbg !1155
  call void @llvm.dbg.value(metadata i64 %end.0.i.i.i.i, metadata !522, metadata !DIExpression()) #4, !dbg !1156
  call void @llvm.dbg.value(metadata [0 x i8]* %output.0, metadata !192, metadata !DIExpression()) #4, !dbg !1157
  call void @llvm.dbg.value(metadata i64 %start1.i.i.i.i, metadata !193, metadata !DIExpression()) #4, !dbg !1157
  call void @llvm.dbg.value(metadata [0 x i8]* %output.0, metadata !183, metadata !DIExpression()) #4, !dbg !1159
  call void @llvm.dbg.value(metadata i64 %start1.i.i.i.i, metadata !184, metadata !DIExpression()) #4, !dbg !1159
  call void @llvm.dbg.value(metadata i16* undef, metadata !1087, metadata !DIExpression(DW_OP_LLVM_fragment, 0, 64)), !dbg !1161
  call void @llvm.dbg.value(metadata i8* undef, metadata !1087, metadata !DIExpression(DW_OP_LLVM_fragment, 64, 64)), !dbg !1161
  call void @llvm.dbg.value(metadata i8* undef, metadata !1093, metadata !DIExpression(DW_OP_LLVM_fragment, 0, 64)), !dbg !1162
  call void @llvm.dbg.value(metadata i16 undef, metadata !1091, metadata !DIExpression()), !dbg !1162
  call void @llvm.dbg.value(metadata i16 undef, metadata !1094, metadata !DIExpression()), !dbg !1163
  call void @llvm.dbg.value(metadata i8* undef, metadata !652, metadata !DIExpression(DW_OP_LLVM_fragment, 0, 64)), !dbg !1164
  call void @llvm.dbg.value(metadata i8* undef, metadata !657, metadata !DIExpression()), !dbg !1166
  call void @llvm.dbg.value(metadata i8* undef, metadata !192, metadata !DIExpression()), !dbg !1167
  call void @llvm.dbg.value(metadata i8* undef, metadata !183, metadata !DIExpression()), !dbg !1169
  %13 = getelementptr inbounds [0 x i8], [0 x i8]* %output.0, i64 0, i64 %end.0.i.i.i.i, !dbg !1171
  call void @llvm.dbg.value(metadata i16 undef, metadata !1094, metadata !DIExpression()), !dbg !1163
  call void @llvm.dbg.value(metadata { i8*, i8* }* undef, metadata !1096, metadata !DIExpression(DW_OP_deref)), !dbg !1172
  call void @llvm.dbg.value(metadata { i8*, i8* }* undef, metadata !669, metadata !DIExpression()), !dbg !1173
  %_13.i112 = icmp eq i64 %start1.i.i.i.i, %end.0.i.i.i.i, !dbg !1175
  br i1 %_13.i112, label %bb6.loopexit, label %bb17.preheader, !dbg !1176

bb17.preheader:                                   ; preds = %bb10
  %14 = getelementptr inbounds [0 x i16], [0 x i16]* %input.0, i64 0, i64 %iter.sroa.11.0115, !dbg !1177
  call void @llvm.dbg.value(metadata i16* %14, metadata !1087, metadata !DIExpression(DW_OP_LLVM_fragment, 0, 64)), !dbg !1161
  %b = load i16, i16* %14, align 2, !dbg !1178
  call void @llvm.dbg.value(metadata i16 %b, metadata !1091, metadata !DIExpression()), !dbg !1162
  call void @llvm.dbg.value(metadata i16 %b, metadata !1094, metadata !DIExpression()), !dbg !1163
  call void @llvm.dbg.value(metadata i16 %b, metadata !1094, metadata !DIExpression()), !dbg !1163
  %15 = getelementptr inbounds [0 x i8], [0 x i8]* %output.0, i64 0, i64 %start1.i.i.i.i, !dbg !1179
  call void @llvm.dbg.value(metadata i8* %15, metadata !657, metadata !DIExpression()), !dbg !1166
  call void @llvm.dbg.value(metadata i8* %15, metadata !192, metadata !DIExpression()), !dbg !1167
  call void @llvm.dbg.value(metadata i8* %15, metadata !183, metadata !DIExpression()), !dbg !1169
  call void @llvm.dbg.value(metadata i8* %15, metadata !652, metadata !DIExpression(DW_OP_LLVM_fragment, 0, 64)), !dbg !1164
  call void @llvm.dbg.value(metadata i8* %15, metadata !1093, metadata !DIExpression(DW_OP_LLVM_fragment, 0, 64)), !dbg !1162
  call void @llvm.dbg.value(metadata i8* %15, metadata !1087, metadata !DIExpression(DW_OP_LLVM_fragment, 64, 64)), !dbg !1161
  %xtraiter = and i64 %6, 7, !dbg !1176
  %lcmp.mod = icmp eq i64 %xtraiter, 0, !dbg !1176
  br i1 %lcmp.mod, label %bb17.prol.loopexit, label %bb17.prol, !dbg !1176

bb17.prol:                                        ; preds = %bb17.preheader, %bb17.prol
  %val1.0114.prol = phi i16 [ %18, %bb17.prol ], [ %b, %bb17.preheader ]
  %iter2.sroa.0.0113.prol = phi i8* [ %16, %bb17.prol ], [ %15, %bb17.preheader ]
  %prol.iter = phi i64 [ %prol.iter.sub, %bb17.prol ], [ %xtraiter, %bb17.preheader ]
  call void @llvm.dbg.value(metadata i16 %val1.0114.prol, metadata !1094, metadata !DIExpression()), !dbg !1163
  call void @llvm.dbg.value(metadata { i8*, i8* }* undef, metadata !690, metadata !DIExpression()), !dbg !1180
  call void @llvm.dbg.value(metadata i64 1, metadata !695, metadata !DIExpression()), !dbg !1180
  call void @llvm.dbg.value(metadata i8* %iter2.sroa.0.0113.prol, metadata !696, metadata !DIExpression()), !dbg !1182
  call void @llvm.dbg.value(metadata i8* %iter2.sroa.0.0113.prol, metadata !183, metadata !DIExpression()), !dbg !1183
  call void @llvm.dbg.value(metadata i64 1, metadata !184, metadata !DIExpression()), !dbg !1183
  %16 = getelementptr inbounds i8, i8* %iter2.sroa.0.0113.prol, i64 1, !dbg !1185
  call void @llvm.dbg.value(metadata i8* %iter2.sroa.0.0113.prol, metadata !1098, metadata !DIExpression()), !dbg !1186
  call void @llvm.dbg.value(metadata i8* %iter2.sroa.0.0113.prol, metadata !1102, metadata !DIExpression()), !dbg !1187
  %17 = trunc i16 %val1.0114.prol to i8, !dbg !1188
  store i8 %17, i8* %iter2.sroa.0.0113.prol, align 1, !dbg !1188
  %18 = lshr i16 %val1.0114.prol, 8, !dbg !1189
  call void @llvm.dbg.value(metadata i16 %18, metadata !1094, metadata !DIExpression()), !dbg !1163
  call void @llvm.dbg.value(metadata { i8*, i8* }* undef, metadata !1096, metadata !DIExpression(DW_OP_deref)), !dbg !1172
  call void @llvm.dbg.value(metadata { i8*, i8* }* undef, metadata !669, metadata !DIExpression()), !dbg !1173
  %prol.iter.sub = add i64 %prol.iter, -1, !dbg !1176
  %prol.iter.cmp = icmp eq i64 %prol.iter.sub, 0, !dbg !1176
  br i1 %prol.iter.cmp, label %bb17.prol.loopexit, label %bb17.prol, !dbg !1176, !llvm.loop !1190

bb17.prol.loopexit:                               ; preds = %bb17.prol, %bb17.preheader
  %val1.0114.unr = phi i16 [ %b, %bb17.preheader ], [ %18, %bb17.prol ]
  %iter2.sroa.0.0113.unr = phi i8* [ %15, %bb17.preheader ], [ %16, %bb17.prol ]
  %19 = icmp ult i64 %8, 7, !dbg !1176
  br i1 %19, label %bb6.loopexit, label %bb17, !dbg !1176

bb17:                                             ; preds = %bb17.prol.loopexit, %bb17
  %val1.0114 = phi i16 [ 0, %bb17 ], [ %val1.0114.unr, %bb17.prol.loopexit ]
  %iter2.sroa.0.0113 = phi i8* [ %30, %bb17 ], [ %iter2.sroa.0.0113.unr, %bb17.prol.loopexit ]
  call void @llvm.dbg.value(metadata i16 %val1.0114, metadata !1094, metadata !DIExpression()), !dbg !1163
  call void @llvm.dbg.value(metadata { i8*, i8* }* undef, metadata !690, metadata !DIExpression()), !dbg !1180
  call void @llvm.dbg.value(metadata i64 1, metadata !695, metadata !DIExpression()), !dbg !1180
  call void @llvm.dbg.value(metadata i8* %iter2.sroa.0.0113, metadata !696, metadata !DIExpression()), !dbg !1182
  call void @llvm.dbg.value(metadata i8* %iter2.sroa.0.0113, metadata !183, metadata !DIExpression()), !dbg !1183
  call void @llvm.dbg.value(metadata i64 1, metadata !184, metadata !DIExpression()), !dbg !1183
  %20 = getelementptr inbounds i8, i8* %iter2.sroa.0.0113, i64 1, !dbg !1185
  call void @llvm.dbg.value(metadata i8* %iter2.sroa.0.0113, metadata !1098, metadata !DIExpression()), !dbg !1186
  call void @llvm.dbg.value(metadata i8* %iter2.sroa.0.0113, metadata !1102, metadata !DIExpression()), !dbg !1187
  %21 = trunc i16 %val1.0114 to i8, !dbg !1188
  store i8 %21, i8* %iter2.sroa.0.0113, align 1, !dbg !1188
  %22 = lshr i16 %val1.0114, 8, !dbg !1189
  call void @llvm.dbg.value(metadata i16 %22, metadata !1094, metadata !DIExpression()), !dbg !1163
  call void @llvm.dbg.value(metadata { i8*, i8* }* undef, metadata !1096, metadata !DIExpression(DW_OP_deref)), !dbg !1172
  call void @llvm.dbg.value(metadata { i8*, i8* }* undef, metadata !669, metadata !DIExpression()), !dbg !1173
  call void @llvm.dbg.value(metadata i16 %22, metadata !1094, metadata !DIExpression()), !dbg !1163
  call void @llvm.dbg.value(metadata { i8*, i8* }* undef, metadata !690, metadata !DIExpression()), !dbg !1180
  call void @llvm.dbg.value(metadata i64 1, metadata !695, metadata !DIExpression()), !dbg !1180
  call void @llvm.dbg.value(metadata i8* %20, metadata !696, metadata !DIExpression()), !dbg !1182
  call void @llvm.dbg.value(metadata i8* %20, metadata !183, metadata !DIExpression()), !dbg !1183
  call void @llvm.dbg.value(metadata i64 1, metadata !184, metadata !DIExpression()), !dbg !1183
  %23 = getelementptr inbounds i8, i8* %iter2.sroa.0.0113, i64 2, !dbg !1185
  call void @llvm.dbg.value(metadata i8* %20, metadata !1098, metadata !DIExpression()), !dbg !1186
  call void @llvm.dbg.value(metadata i8* %20, metadata !1102, metadata !DIExpression()), !dbg !1187
  %24 = trunc i16 %22 to i8, !dbg !1188
  store i8 %24, i8* %20, align 1, !dbg !1188
  call void @llvm.dbg.value(metadata i16 0, metadata !1094, metadata !DIExpression()), !dbg !1163
  call void @llvm.dbg.value(metadata { i8*, i8* }* undef, metadata !1096, metadata !DIExpression(DW_OP_deref)), !dbg !1172
  call void @llvm.dbg.value(metadata { i8*, i8* }* undef, metadata !669, metadata !DIExpression()), !dbg !1173
  call void @llvm.dbg.value(metadata i16 0, metadata !1094, metadata !DIExpression()), !dbg !1163
  call void @llvm.dbg.value(metadata { i8*, i8* }* undef, metadata !690, metadata !DIExpression()), !dbg !1180
  call void @llvm.dbg.value(metadata i64 1, metadata !695, metadata !DIExpression()), !dbg !1180
  call void @llvm.dbg.value(metadata i8* %23, metadata !696, metadata !DIExpression()), !dbg !1182
  call void @llvm.dbg.value(metadata i8* %23, metadata !183, metadata !DIExpression()), !dbg !1183
  call void @llvm.dbg.value(metadata i64 1, metadata !184, metadata !DIExpression()), !dbg !1183
  %25 = getelementptr inbounds i8, i8* %iter2.sroa.0.0113, i64 3, !dbg !1185
  call void @llvm.dbg.value(metadata i8* %23, metadata !1098, metadata !DIExpression()), !dbg !1186
  call void @llvm.dbg.value(metadata i8* %23, metadata !1102, metadata !DIExpression()), !dbg !1187
  store i8 0, i8* %23, align 1, !dbg !1188
  call void @llvm.dbg.value(metadata i16 0, metadata !1094, metadata !DIExpression()), !dbg !1163
  call void @llvm.dbg.value(metadata { i8*, i8* }* undef, metadata !1096, metadata !DIExpression(DW_OP_deref)), !dbg !1172
  call void @llvm.dbg.value(metadata { i8*, i8* }* undef, metadata !669, metadata !DIExpression()), !dbg !1173
  call void @llvm.dbg.value(metadata i16 0, metadata !1094, metadata !DIExpression()), !dbg !1163
  call void @llvm.dbg.value(metadata { i8*, i8* }* undef, metadata !690, metadata !DIExpression()), !dbg !1180
  call void @llvm.dbg.value(metadata i64 1, metadata !695, metadata !DIExpression()), !dbg !1180
  call void @llvm.dbg.value(metadata i8* %25, metadata !696, metadata !DIExpression()), !dbg !1182
  call void @llvm.dbg.value(metadata i8* %25, metadata !183, metadata !DIExpression()), !dbg !1183
  call void @llvm.dbg.value(metadata i64 1, metadata !184, metadata !DIExpression()), !dbg !1183
  %26 = getelementptr inbounds i8, i8* %iter2.sroa.0.0113, i64 4, !dbg !1185
  call void @llvm.dbg.value(metadata i8* %25, metadata !1098, metadata !DIExpression()), !dbg !1186
  call void @llvm.dbg.value(metadata i8* %25, metadata !1102, metadata !DIExpression()), !dbg !1187
  store i8 0, i8* %25, align 1, !dbg !1188
  call void @llvm.dbg.value(metadata i16 0, metadata !1094, metadata !DIExpression()), !dbg !1163
  call void @llvm.dbg.value(metadata { i8*, i8* }* undef, metadata !1096, metadata !DIExpression(DW_OP_deref)), !dbg !1172
  call void @llvm.dbg.value(metadata { i8*, i8* }* undef, metadata !669, metadata !DIExpression()), !dbg !1173
  call void @llvm.dbg.value(metadata i16 0, metadata !1094, metadata !DIExpression()), !dbg !1163
  call void @llvm.dbg.value(metadata { i8*, i8* }* undef, metadata !690, metadata !DIExpression()), !dbg !1180
  call void @llvm.dbg.value(metadata i64 1, metadata !695, metadata !DIExpression()), !dbg !1180
  call void @llvm.dbg.value(metadata i8* %26, metadata !696, metadata !DIExpression()), !dbg !1182
  call void @llvm.dbg.value(metadata i8* %26, metadata !183, metadata !DIExpression()), !dbg !1183
  call void @llvm.dbg.value(metadata i64 1, metadata !184, metadata !DIExpression()), !dbg !1183
  %27 = getelementptr inbounds i8, i8* %iter2.sroa.0.0113, i64 5, !dbg !1185
  call void @llvm.dbg.value(metadata i8* %26, metadata !1098, metadata !DIExpression()), !dbg !1186
  call void @llvm.dbg.value(metadata i8* %26, metadata !1102, metadata !DIExpression()), !dbg !1187
  store i8 0, i8* %26, align 1, !dbg !1188
  call void @llvm.dbg.value(metadata i16 0, metadata !1094, metadata !DIExpression()), !dbg !1163
  call void @llvm.dbg.value(metadata { i8*, i8* }* undef, metadata !1096, metadata !DIExpression(DW_OP_deref)), !dbg !1172
  call void @llvm.dbg.value(metadata { i8*, i8* }* undef, metadata !669, metadata !DIExpression()), !dbg !1173
  call void @llvm.dbg.value(metadata i16 0, metadata !1094, metadata !DIExpression()), !dbg !1163
  call void @llvm.dbg.value(metadata { i8*, i8* }* undef, metadata !690, metadata !DIExpression()), !dbg !1180
  call void @llvm.dbg.value(metadata i64 1, metadata !695, metadata !DIExpression()), !dbg !1180
  call void @llvm.dbg.value(metadata i8* %27, metadata !696, metadata !DIExpression()), !dbg !1182
  call void @llvm.dbg.value(metadata i8* %27, metadata !183, metadata !DIExpression()), !dbg !1183
  call void @llvm.dbg.value(metadata i64 1, metadata !184, metadata !DIExpression()), !dbg !1183
  %28 = getelementptr inbounds i8, i8* %iter2.sroa.0.0113, i64 6, !dbg !1185
  call void @llvm.dbg.value(metadata i8* %27, metadata !1098, metadata !DIExpression()), !dbg !1186
  call void @llvm.dbg.value(metadata i8* %27, metadata !1102, metadata !DIExpression()), !dbg !1187
  store i8 0, i8* %27, align 1, !dbg !1188
  call void @llvm.dbg.value(metadata i16 0, metadata !1094, metadata !DIExpression()), !dbg !1163
  call void @llvm.dbg.value(metadata { i8*, i8* }* undef, metadata !1096, metadata !DIExpression(DW_OP_deref)), !dbg !1172
  call void @llvm.dbg.value(metadata { i8*, i8* }* undef, metadata !669, metadata !DIExpression()), !dbg !1173
  call void @llvm.dbg.value(metadata i16 0, metadata !1094, metadata !DIExpression()), !dbg !1163
  call void @llvm.dbg.value(metadata { i8*, i8* }* undef, metadata !690, metadata !DIExpression()), !dbg !1180
  call void @llvm.dbg.value(metadata i64 1, metadata !695, metadata !DIExpression()), !dbg !1180
  call void @llvm.dbg.value(metadata i8* %28, metadata !696, metadata !DIExpression()), !dbg !1182
  call void @llvm.dbg.value(metadata i8* %28, metadata !183, metadata !DIExpression()), !dbg !1183
  call void @llvm.dbg.value(metadata i64 1, metadata !184, metadata !DIExpression()), !dbg !1183
  %29 = getelementptr inbounds i8, i8* %iter2.sroa.0.0113, i64 7, !dbg !1185
  call void @llvm.dbg.value(metadata i8* %28, metadata !1098, metadata !DIExpression()), !dbg !1186
  call void @llvm.dbg.value(metadata i8* %28, metadata !1102, metadata !DIExpression()), !dbg !1187
  store i8 0, i8* %28, align 1, !dbg !1188
  call void @llvm.dbg.value(metadata i16 0, metadata !1094, metadata !DIExpression()), !dbg !1163
  call void @llvm.dbg.value(metadata { i8*, i8* }* undef, metadata !1096, metadata !DIExpression(DW_OP_deref)), !dbg !1172
  call void @llvm.dbg.value(metadata { i8*, i8* }* undef, metadata !669, metadata !DIExpression()), !dbg !1173
  call void @llvm.dbg.value(metadata i16 0, metadata !1094, metadata !DIExpression()), !dbg !1163
  call void @llvm.dbg.value(metadata { i8*, i8* }* undef, metadata !690, metadata !DIExpression()), !dbg !1180
  call void @llvm.dbg.value(metadata i64 1, metadata !695, metadata !DIExpression()), !dbg !1180
  call void @llvm.dbg.value(metadata i8* %29, metadata !696, metadata !DIExpression()), !dbg !1182
  call void @llvm.dbg.value(metadata i8* %29, metadata !183, metadata !DIExpression()), !dbg !1183
  call void @llvm.dbg.value(metadata i64 1, metadata !184, metadata !DIExpression()), !dbg !1183
  %30 = getelementptr inbounds i8, i8* %iter2.sroa.0.0113, i64 8, !dbg !1185
  call void @llvm.dbg.value(metadata i8* %29, metadata !1098, metadata !DIExpression()), !dbg !1186
  call void @llvm.dbg.value(metadata i8* %29, metadata !1102, metadata !DIExpression()), !dbg !1187
  store i8 0, i8* %29, align 1, !dbg !1188
  call void @llvm.dbg.value(metadata i16 0, metadata !1094, metadata !DIExpression()), !dbg !1163
  call void @llvm.dbg.value(metadata { i8*, i8* }* undef, metadata !1096, metadata !DIExpression(DW_OP_deref)), !dbg !1172
  call void @llvm.dbg.value(metadata { i8*, i8* }* undef, metadata !669, metadata !DIExpression()), !dbg !1173
  %_13.i.7 = icmp eq i8* %30, %13, !dbg !1175
  br i1 %_13.i.7, label %bb6.loopexit, label %bb17, !dbg !1176
}

; iterator_bench::zip_chunks_exact_unknown_size_impl
; Function Attrs: noinline nonlazybind uwtable
define void @_ZN14iterator_bench34zip_chunks_exact_unknown_size_impl17h5ce289f572621fc4E([0 x i8]* nonnull align 1 %output.0, i64 %output.1, [0 x i16]* noalias nonnull readonly align 2 %input.0, i64 %input.1) unnamed_addr #1 personality i32 (i32, i32, i64, %"unwind::libunwind::_Unwind_Exception"*, %"unwind::libunwind::_Unwind_Context"*)* @rust_eh_personality !dbg !1192 {
_ZN4core4iter6traits8iterator8Iterator3zip17hbd84c1e91fef80f8E.exit:
  call void @llvm.dbg.value(metadata [0 x i8]* %output.0, metadata !1194, metadata !DIExpression(DW_OP_LLVM_fragment, 0, 64)), !dbg !1218
  call void @llvm.dbg.value(metadata i64 %output.1, metadata !1194, metadata !DIExpression(DW_OP_LLVM_fragment, 64, 64)), !dbg !1218
  call void @llvm.dbg.value(metadata [0 x i16]* %input.0, metadata !1195, metadata !DIExpression(DW_OP_LLVM_fragment, 0, 64)), !dbg !1218
  call void @llvm.dbg.value(metadata i64 %input.1, metadata !1195, metadata !DIExpression(DW_OP_LLVM_fragment, 64, 64)), !dbg !1218
  call void @llvm.dbg.value(metadata [0 x i8]* %output.0, metadata !192, metadata !DIExpression()), !dbg !1219
  call void @llvm.dbg.value(metadata i64 %output.1, metadata !193, metadata !DIExpression(DW_OP_constu, 18446744073709551614, DW_OP_and, DW_OP_stack_value)), !dbg !1219
  call void @llvm.dbg.value(metadata [0 x i8]* %output.0, metadata !183, metadata !DIExpression()), !dbg !1250
  call void @llvm.dbg.value(metadata i64 %output.1, metadata !184, metadata !DIExpression(DW_OP_constu, 18446744073709551614, DW_OP_and, DW_OP_stack_value)), !dbg !1250
  call void @llvm.dbg.value(metadata [0 x i8]* %output.0, metadata !1252, metadata !DIExpression(DW_OP_LLVM_fragment, 0, 64)), !dbg !1260
  call void @llvm.dbg.value(metadata i64 %output.1, metadata !1252, metadata !DIExpression(DW_OP_constu, 18446744073709551614, DW_OP_and, DW_OP_stack_value, DW_OP_LLVM_fragment, 64, 64)), !dbg !1260
  call void @llvm.dbg.value(metadata i8* undef, metadata !1252, metadata !DIExpression(DW_OP_LLVM_fragment, 128, 64)), !dbg !1260
  call void @llvm.dbg.value(metadata i64 %output.1, metadata !1252, metadata !DIExpression(DW_OP_constu, 1, DW_OP_and, DW_OP_stack_value, DW_OP_LLVM_fragment, 192, 64)), !dbg !1260
  call void @llvm.dbg.value(metadata i64 2, metadata !1252, metadata !DIExpression(DW_OP_LLVM_fragment, 256, 64)), !dbg !1260
  call void @llvm.dbg.value(metadata [0 x i16]* %input.0, metadata !1257, metadata !DIExpression(DW_OP_LLVM_fragment, 0, 64)), !dbg !1260
  call void @llvm.dbg.value(metadata [0 x i8]* %output.0, metadata !1262, metadata !DIExpression(DW_OP_LLVM_fragment, 0, 64)), !dbg !1266
  call void @llvm.dbg.value(metadata i64 %output.1, metadata !1262, metadata !DIExpression(DW_OP_constu, 18446744073709551614, DW_OP_and, DW_OP_stack_value, DW_OP_LLVM_fragment, 64, 64)), !dbg !1266
  call void @llvm.dbg.value(metadata i64 2, metadata !1262, metadata !DIExpression(DW_OP_LLVM_fragment, 256, 64)), !dbg !1266
  call void @llvm.dbg.value(metadata [0 x i16]* %input.0, metadata !1265, metadata !DIExpression(DW_OP_LLVM_fragment, 0, 64)), !dbg !1266
  call void @llvm.dbg.value(metadata i64 %output.1, metadata !1268, metadata !DIExpression(DW_OP_constu, 18446744073709551614, DW_OP_and, DW_OP_stack_value, DW_OP_LLVM_fragment, 64, 64)), !dbg !1274
  call void @llvm.dbg.value(metadata i64 2, metadata !1268, metadata !DIExpression(DW_OP_LLVM_fragment, 256, 64)), !dbg !1274
  %output.0100 = ptrtoint [0 x i8]* %output.0 to i64
  %n.i.i.i.i.i = lshr i64 %output.1, 1, !dbg !1276
  call void @llvm.dbg.value(metadata i64 %input.1, metadata !753, metadata !DIExpression()), !dbg !1303
  call void @llvm.dbg.value(metadata i64 %n.i.i.i.i.i, metadata !756, metadata !DIExpression()), !dbg !1303
  call void @llvm.dbg.value(metadata i64 %input.1, metadata !759, metadata !DIExpression()), !dbg !1305
  call void @llvm.dbg.value(metadata i64 %n.i.i.i.i.i, metadata !762, metadata !DIExpression()), !dbg !1305
  call void @llvm.dbg.value(metadata i64 %input.1, metadata !765, metadata !DIExpression()), !dbg !1307
  call void @llvm.dbg.value(metadata i64 %n.i.i.i.i.i, metadata !768, metadata !DIExpression()), !dbg !1307
  %0 = icmp ult i64 %n.i.i.i.i.i, %input.1, !dbg !1309
  call void @llvm.dbg.value(metadata i64 %n.i.i.i.i.i, metadata !768, metadata !DIExpression()), !dbg !1307
  call void @llvm.dbg.value(metadata i64 %input.1, metadata !765, metadata !DIExpression()), !dbg !1307
  %.0.i.i.i.i.i.i = select i1 %0, i64 %n.i.i.i.i.i, i64 %input.1, !dbg !1309
  call void @llvm.dbg.value(metadata %"core::iter::adapters::zip::Zip<core::slice::Iter<u16>, core::slice::ChunksExactMut<u8>>"* undef, metadata !1196, metadata !DIExpression(DW_OP_deref)), !dbg !1310
  call void @llvm.dbg.value(metadata %"core::iter::adapters::zip::Zip<core::slice::Iter<u16>, core::slice::ChunksExactMut<u8>>"* undef, metadata !1311, metadata !DIExpression()), !dbg !1317
  call void @llvm.dbg.value(metadata %"core::iter::adapters::zip::Zip<core::slice::Iter<u16>, core::slice::ChunksExactMut<u8>>"* undef, metadata !1319, metadata !DIExpression()), !dbg !1324
  %_2.i.i98 = icmp eq i64 %.0.i.i.i.i.i.i, 0, !dbg !1326
  br i1 %_2.i.i98, label %bb7, label %bb9.preheader, !dbg !1327

bb9.preheader:                                    ; preds = %_ZN4core4iter6traits8iterator8Iterator3zip17hbd84c1e91fef80f8E.exit
  %min.iters.check = icmp ult i64 %.0.i.i.i.i.i.i, 8, !dbg !1327
  br i1 %min.iters.check, label %bb9.preheader105, label %vector.scevcheck, !dbg !1327

bb9.preheader105:                                 ; preds = %middle.block, %vector.scevcheck, %bb9.preheader
  %iter.sroa.11.099.ph = phi i64 [ 0, %vector.scevcheck ], [ 0, %bb9.preheader ], [ %n.vec, %middle.block ]
  br label %bb9, !dbg !1327

vector.scevcheck:                                 ; preds = %bb9.preheader
  %1 = add nsw i64 %.0.i.i.i.i.i.i, -1, !dbg !1327
  %mul = call { i64, i1 } @llvm.umul.with.overflow.i64(i64 %1, i64 2), !dbg !1327
  %mul.result = extractvalue { i64, i1 } %mul, 0, !dbg !1327
  %mul.overflow = extractvalue { i64, i1 } %mul, 1, !dbg !1327
  %2 = xor i64 %output.0100, -1, !dbg !1327
  %3 = icmp ugt i64 %mul.result, %2, !dbg !1327
  %4 = or i1 %3, %mul.overflow, !dbg !1327
  %scevgep = getelementptr [0 x i8], [0 x i8]* %output.0, i64 0, i64 1, !dbg !1327
  %scevgep101 = ptrtoint i8* %scevgep to i64
  %mul102 = call { i64, i1 } @llvm.umul.with.overflow.i64(i64 %1, i64 2), !dbg !1327
  %mul.result103 = extractvalue { i64, i1 } %mul102, 0, !dbg !1327
  %mul.overflow104 = extractvalue { i64, i1 } %mul102, 1, !dbg !1327
  %5 = xor i64 %scevgep101, -1, !dbg !1327
  %6 = icmp ugt i64 %mul.result103, %5, !dbg !1327
  %7 = or i1 %6, %mul.overflow104, !dbg !1327
  %8 = or i1 %4, %7, !dbg !1327
  br i1 %8, label %bb9.preheader105, label %vector.ph, !dbg !1327

vector.ph:                                        ; preds = %vector.scevcheck
  %n.vec = and i64 %.0.i.i.i.i.i.i, 9223372036854775800, !dbg !1327
  %9 = add nsw i64 %n.vec, -8, !dbg !1327
  %10 = lshr exact i64 %9, 3, !dbg !1327
  %11 = add nuw nsw i64 %10, 1, !dbg !1327
  %xtraiter = and i64 %11, 1, !dbg !1327
  %12 = icmp eq i64 %9, 0, !dbg !1327
  br i1 %12, label %middle.block.unr-lcssa, label %vector.ph.new, !dbg !1327

vector.ph.new:                                    ; preds = %vector.ph
  %unroll_iter = sub nuw nsw i64 %11, %xtraiter, !dbg !1327
  br label %vector.body, !dbg !1327

vector.body:                                      ; preds = %vector.body, %vector.ph.new
  %index = phi i64 [ 0, %vector.ph.new ], [ %index.next.1, %vector.body ], !dbg !1328
  %niter = phi i64 [ %unroll_iter, %vector.ph.new ], [ %niter.nsub.1, %vector.body ]
  %13 = getelementptr inbounds [0 x i16], [0 x i16]* %input.0, i64 0, i64 %index, !dbg !1329
  %14 = shl i64 %index, 1, !dbg !1333
  %15 = getelementptr inbounds [0 x i8], [0 x i8]* %output.0, i64 0, i64 %14, !dbg !1344
  %16 = bitcast i16* %13 to <8 x i16>*, !dbg !1347
  %wide.load = load <8 x i16>, <8 x i16>* %16, align 2, !dbg !1347
  %17 = trunc <8 x i16> %wide.load to <8 x i8>, !dbg !1348
  %18 = lshr <8 x i16> %wide.load, <i16 8, i16 8, i16 8, i16 8, i16 8, i16 8, i16 8, i16 8>, !dbg !1349
  %19 = trunc <8 x i16> %18 to <8 x i8>, !dbg !1350
  %20 = bitcast i8* %15 to <16 x i8>*, !dbg !1350
  %interleaved.vec = shufflevector <8 x i8> %17, <8 x i8> %19, <16 x i32> <i32 0, i32 8, i32 1, i32 9, i32 2, i32 10, i32 3, i32 11, i32 4, i32 12, i32 5, i32 13, i32 6, i32 14, i32 7, i32 15>, !dbg !1350
  store <16 x i8> %interleaved.vec, <16 x i8>* %20, align 1, !dbg !1350
  %index.next = or i64 %index, 8, !dbg !1328
  %21 = getelementptr inbounds [0 x i16], [0 x i16]* %input.0, i64 0, i64 %index.next, !dbg !1329
  %22 = shl i64 %index.next, 1, !dbg !1333
  %23 = getelementptr inbounds [0 x i8], [0 x i8]* %output.0, i64 0, i64 %22, !dbg !1344
  %24 = bitcast i16* %21 to <8 x i16>*, !dbg !1347
  %wide.load.1 = load <8 x i16>, <8 x i16>* %24, align 2, !dbg !1347
  %25 = trunc <8 x i16> %wide.load.1 to <8 x i8>, !dbg !1348
  %26 = lshr <8 x i16> %wide.load.1, <i16 8, i16 8, i16 8, i16 8, i16 8, i16 8, i16 8, i16 8>, !dbg !1349
  %27 = trunc <8 x i16> %26 to <8 x i8>, !dbg !1350
  %28 = bitcast i8* %23 to <16 x i8>*, !dbg !1350
  %interleaved.vec.1 = shufflevector <8 x i8> %25, <8 x i8> %27, <16 x i32> <i32 0, i32 8, i32 1, i32 9, i32 2, i32 10, i32 3, i32 11, i32 4, i32 12, i32 5, i32 13, i32 6, i32 14, i32 7, i32 15>, !dbg !1350
  store <16 x i8> %interleaved.vec.1, <16 x i8>* %28, align 1, !dbg !1350
  %index.next.1 = add i64 %index, 16, !dbg !1328
  %niter.nsub.1 = add i64 %niter, -2, !dbg !1328
  %niter.ncmp.1 = icmp eq i64 %niter.nsub.1, 0, !dbg !1328
  br i1 %niter.ncmp.1, label %middle.block.unr-lcssa, label %vector.body, !dbg !1328, !llvm.loop !1351

middle.block.unr-lcssa:                           ; preds = %vector.body, %vector.ph
  %index.unr = phi i64 [ 0, %vector.ph ], [ %index.next.1, %vector.body ]
  %lcmp.mod = icmp eq i64 %xtraiter, 0, !dbg !1328
  br i1 %lcmp.mod, label %middle.block, label %vector.body.epil, !dbg !1328

vector.body.epil:                                 ; preds = %middle.block.unr-lcssa
  %29 = getelementptr inbounds [0 x i16], [0 x i16]* %input.0, i64 0, i64 %index.unr, !dbg !1329
  %30 = shl i64 %index.unr, 1, !dbg !1333
  %31 = getelementptr inbounds [0 x i8], [0 x i8]* %output.0, i64 0, i64 %30, !dbg !1344
  %32 = bitcast i16* %29 to <8 x i16>*, !dbg !1347
  %wide.load.epil = load <8 x i16>, <8 x i16>* %32, align 2, !dbg !1347
  %33 = trunc <8 x i16> %wide.load.epil to <8 x i8>, !dbg !1348
  %34 = lshr <8 x i16> %wide.load.epil, <i16 8, i16 8, i16 8, i16 8, i16 8, i16 8, i16 8, i16 8>, !dbg !1349
  %35 = trunc <8 x i16> %34 to <8 x i8>, !dbg !1350
  %36 = bitcast i8* %31 to <16 x i8>*, !dbg !1350
  %interleaved.vec.epil = shufflevector <8 x i8> %33, <8 x i8> %35, <16 x i32> <i32 0, i32 8, i32 1, i32 9, i32 2, i32 10, i32 3, i32 11, i32 4, i32 12, i32 5, i32 13, i32 6, i32 14, i32 7, i32 15>, !dbg !1350
  store <16 x i8> %interleaved.vec.epil, <16 x i8>* %36, align 1, !dbg !1350
  br label %middle.block, !dbg !1327

middle.block:                                     ; preds = %middle.block.unr-lcssa, %vector.body.epil
  %cmp.n = icmp eq i64 %.0.i.i.i.i.i.i, %n.vec, !dbg !1327
  br i1 %cmp.n, label %bb7, label %bb9.preheader105, !dbg !1327

bb7:                                              ; preds = %bb9, %middle.block, %_ZN4core4iter6traits8iterator8Iterator3zip17hbd84c1e91fef80f8E.exit
  ret void, !dbg !1352

bb9:                                              ; preds = %bb9.preheader105, %bb9
  %iter.sroa.11.099 = phi i64 [ %37, %bb9 ], [ %iter.sroa.11.099.ph, %bb9.preheader105 ]
  call void @llvm.dbg.value(metadata i64 %iter.sroa.11.099, metadata !1322, metadata !DIExpression()), !dbg !1353
  %37 = add nuw i64 %iter.sroa.11.099, 1, !dbg !1328
  call void @llvm.dbg.value(metadata i64 %iter.sroa.11.099, metadata !510, metadata !DIExpression()), !dbg !1354
  call void @llvm.dbg.value(metadata [0 x i16]* %input.0, metadata !501, metadata !DIExpression()), !dbg !1355
  call void @llvm.dbg.value(metadata i64 %iter.sroa.11.099, metadata !502, metadata !DIExpression()), !dbg !1355
  call void @llvm.dbg.value(metadata [0 x i16]* %input.0, metadata !494, metadata !DIExpression()), !dbg !1356
  call void @llvm.dbg.value(metadata i64 %iter.sroa.11.099, metadata !495, metadata !DIExpression()), !dbg !1356
  %38 = getelementptr inbounds [0 x i16], [0 x i16]* %input.0, i64 0, i64 %iter.sroa.11.099, !dbg !1329
  call void @llvm.dbg.value(metadata %"core::slice::ChunksExactMut<u8>"* undef, metadata !1339, metadata !DIExpression()), !dbg !1357
  call void @llvm.dbg.value(metadata i64 %iter.sroa.11.099, metadata !1340, metadata !DIExpression()), !dbg !1357
  %start1.i.i.i = shl i64 %iter.sroa.11.099, 1, !dbg !1333
  call void @llvm.dbg.value(metadata i64 %start1.i.i.i, metadata !1341, metadata !DIExpression()), !dbg !1358
  call void @llvm.dbg.value(metadata [0 x i8]* %output.0, metadata !192, metadata !DIExpression()), !dbg !1359
  call void @llvm.dbg.value(metadata i64 %start1.i.i.i, metadata !193, metadata !DIExpression()), !dbg !1359
  call void @llvm.dbg.value(metadata [0 x i8]* %output.0, metadata !183, metadata !DIExpression()), !dbg !1360
  call void @llvm.dbg.value(metadata i64 %start1.i.i.i, metadata !184, metadata !DIExpression()), !dbg !1360
  %39 = getelementptr inbounds [0 x i8], [0 x i8]* %output.0, i64 0, i64 %start1.i.i.i, !dbg !1344
  call void @llvm.dbg.value(metadata i16* %38, metadata !1211, metadata !DIExpression(DW_OP_LLVM_fragment, 0, 64)), !dbg !1361
  call void @llvm.dbg.value(metadata i8* %39, metadata !1211, metadata !DIExpression(DW_OP_LLVM_fragment, 64, 64)), !dbg !1361
  call void @llvm.dbg.value(metadata i16* %38, metadata !1215, metadata !DIExpression()), !dbg !1362
  call void @llvm.dbg.value(metadata i8* %39, metadata !1217, metadata !DIExpression(DW_OP_LLVM_fragment, 0, 64)), !dbg !1362
  %_20 = load i16, i16* %38, align 2, !dbg !1347
  %40 = trunc i16 %_20 to i8, !dbg !1348
  store i8 %40, i8* %39, align 1, !dbg !1348
  %_25 = lshr i16 %_20, 8, !dbg !1349
  %41 = getelementptr inbounds i8, i8* %39, i64 1, !dbg !1350
  %42 = trunc i16 %_25 to i8, !dbg !1350
  store i8 %42, i8* %41, align 1, !dbg !1350
  call void @llvm.dbg.value(metadata %"core::iter::adapters::zip::Zip<core::slice::Iter<u16>, core::slice::ChunksExactMut<u8>>"* undef, metadata !1196, metadata !DIExpression(DW_OP_deref)), !dbg !1310
  call void @llvm.dbg.value(metadata %"core::iter::adapters::zip::Zip<core::slice::Iter<u16>, core::slice::ChunksExactMut<u8>>"* undef, metadata !1311, metadata !DIExpression()), !dbg !1317
  call void @llvm.dbg.value(metadata %"core::iter::adapters::zip::Zip<core::slice::Iter<u16>, core::slice::ChunksExactMut<u8>>"* undef, metadata !1319, metadata !DIExpression()), !dbg !1324
  %_2.i.i = icmp ult i64 %37, %.0.i.i.i.i.i.i, !dbg !1326
  br i1 %_2.i.i, label %bb9, label %bb7, !dbg !1327, !llvm.loop !1363
}

; iterator_bench::zip_chunks_exact_unknown_size_slice_impl
; Function Attrs: noinline nonlazybind uwtable
define void @_ZN14iterator_bench40zip_chunks_exact_unknown_size_slice_impl17h406c09c4fbc83d32E([0 x i8]* nonnull align 1 %output.0, i64 %output.1, [0 x i16]* noalias nonnull readonly align 2 %input.0, i64 %input.1) unnamed_addr #1 personality i32 (i32, i32, i64, %"unwind::libunwind::_Unwind_Exception"*, %"unwind::libunwind::_Unwind_Context"*)* @rust_eh_personality !dbg !1364 {
_ZN4core4iter6traits8iterator8Iterator3zip17hbd84c1e91fef80f8E.exit:
  call void @llvm.dbg.value(metadata [0 x i8]* %output.0, metadata !1366, metadata !DIExpression(DW_OP_LLVM_fragment, 0, 64)), !dbg !1377
  call void @llvm.dbg.value(metadata i64 %output.1, metadata !1366, metadata !DIExpression(DW_OP_LLVM_fragment, 64, 64)), !dbg !1377
  call void @llvm.dbg.value(metadata [0 x i16]* %input.0, metadata !1367, metadata !DIExpression(DW_OP_LLVM_fragment, 0, 64)), !dbg !1377
  call void @llvm.dbg.value(metadata i64 %input.1, metadata !1367, metadata !DIExpression(DW_OP_LLVM_fragment, 64, 64)), !dbg !1377
  call void @llvm.dbg.value(metadata i64 320000, metadata !753, metadata !DIExpression()), !dbg !1378
  call void @llvm.dbg.value(metadata i64 %input.1, metadata !756, metadata !DIExpression()), !dbg !1378
  call void @llvm.dbg.value(metadata i64 320000, metadata !759, metadata !DIExpression()), !dbg !1380
  call void @llvm.dbg.value(metadata i64 %input.1, metadata !762, metadata !DIExpression()), !dbg !1380
  call void @llvm.dbg.value(metadata i64 320000, metadata !765, metadata !DIExpression()), !dbg !1382
  call void @llvm.dbg.value(metadata i64 %input.1, metadata !768, metadata !DIExpression()), !dbg !1382
  %output.0101 = ptrtoint [0 x i8]* %output.0 to i64
  %0 = icmp ult i64 %input.1, 320000, !dbg !1384
  call void @llvm.dbg.value(metadata i64 %input.1, metadata !768, metadata !DIExpression()), !dbg !1382
  call void @llvm.dbg.value(metadata i64 320000, metadata !765, metadata !DIExpression()), !dbg !1382
  %.0.i.i.i = select i1 %0, i64 %input.1, i64 320000, !dbg !1384
  call void @llvm.dbg.value(metadata [0 x i8]* %output.0, metadata !192, metadata !DIExpression()), !dbg !1385
  call void @llvm.dbg.value(metadata i64 %output.1, metadata !193, metadata !DIExpression(DW_OP_constu, 18446744073709551614, DW_OP_and, DW_OP_stack_value)), !dbg !1385
  call void @llvm.dbg.value(metadata [0 x i8]* %output.0, metadata !183, metadata !DIExpression()), !dbg !1389
  call void @llvm.dbg.value(metadata i64 %output.1, metadata !184, metadata !DIExpression(DW_OP_constu, 18446744073709551614, DW_OP_and, DW_OP_stack_value)), !dbg !1389
  call void @llvm.dbg.value(metadata [0 x i8]* %output.0, metadata !1252, metadata !DIExpression(DW_OP_LLVM_fragment, 0, 64)), !dbg !1391
  call void @llvm.dbg.value(metadata i64 %output.1, metadata !1252, metadata !DIExpression(DW_OP_constu, 18446744073709551614, DW_OP_and, DW_OP_stack_value, DW_OP_LLVM_fragment, 64, 64)), !dbg !1391
  call void @llvm.dbg.value(metadata i8* undef, metadata !1252, metadata !DIExpression(DW_OP_LLVM_fragment, 128, 64)), !dbg !1391
  call void @llvm.dbg.value(metadata i64 %output.1, metadata !1252, metadata !DIExpression(DW_OP_constu, 1, DW_OP_and, DW_OP_stack_value, DW_OP_LLVM_fragment, 192, 64)), !dbg !1391
  call void @llvm.dbg.value(metadata i64 2, metadata !1252, metadata !DIExpression(DW_OP_LLVM_fragment, 256, 64)), !dbg !1391
  call void @llvm.dbg.value(metadata [0 x i16]* %input.0, metadata !1257, metadata !DIExpression(DW_OP_LLVM_fragment, 0, 64)), !dbg !1391
  call void @llvm.dbg.value(metadata [0 x i8]* %output.0, metadata !1262, metadata !DIExpression(DW_OP_LLVM_fragment, 0, 64)), !dbg !1393
  call void @llvm.dbg.value(metadata i64 %output.1, metadata !1262, metadata !DIExpression(DW_OP_constu, 18446744073709551614, DW_OP_and, DW_OP_stack_value, DW_OP_LLVM_fragment, 64, 64)), !dbg !1393
  call void @llvm.dbg.value(metadata i64 2, metadata !1262, metadata !DIExpression(DW_OP_LLVM_fragment, 256, 64)), !dbg !1393
  call void @llvm.dbg.value(metadata [0 x i16]* %input.0, metadata !1265, metadata !DIExpression(DW_OP_LLVM_fragment, 0, 64)), !dbg !1393
  call void @llvm.dbg.value(metadata i64 %output.1, metadata !1268, metadata !DIExpression(DW_OP_constu, 18446744073709551614, DW_OP_and, DW_OP_stack_value, DW_OP_LLVM_fragment, 64, 64)), !dbg !1395
  call void @llvm.dbg.value(metadata i64 2, metadata !1268, metadata !DIExpression(DW_OP_LLVM_fragment, 256, 64)), !dbg !1395
  %n.i.i.i.i.i = lshr i64 %output.1, 1, !dbg !1397
  call void @llvm.dbg.value(metadata i64 %.0.i.i.i, metadata !753, metadata !DIExpression()), !dbg !1400
  call void @llvm.dbg.value(metadata i64 %n.i.i.i.i.i, metadata !756, metadata !DIExpression()), !dbg !1400
  call void @llvm.dbg.value(metadata i64 %.0.i.i.i, metadata !759, metadata !DIExpression()), !dbg !1402
  call void @llvm.dbg.value(metadata i64 %n.i.i.i.i.i, metadata !762, metadata !DIExpression()), !dbg !1402
  call void @llvm.dbg.value(metadata i64 %.0.i.i.i, metadata !765, metadata !DIExpression()), !dbg !1404
  call void @llvm.dbg.value(metadata i64 %n.i.i.i.i.i, metadata !768, metadata !DIExpression()), !dbg !1404
  %1 = icmp ugt i64 %.0.i.i.i, %n.i.i.i.i.i, !dbg !1406
  call void @llvm.dbg.value(metadata i64 %n.i.i.i.i.i, metadata !768, metadata !DIExpression()), !dbg !1404
  call void @llvm.dbg.value(metadata i64 %.0.i.i.i, metadata !765, metadata !DIExpression()), !dbg !1404
  %.0.i.i.i.i.i.i = select i1 %1, i64 %n.i.i.i.i.i, i64 %.0.i.i.i, !dbg !1406
  call void @llvm.dbg.value(metadata %"core::iter::adapters::zip::Zip<core::slice::Iter<u16>, core::slice::ChunksExactMut<u8>>"* undef, metadata !1368, metadata !DIExpression(DW_OP_deref)), !dbg !1407
  call void @llvm.dbg.value(metadata %"core::iter::adapters::zip::Zip<core::slice::Iter<u16>, core::slice::ChunksExactMut<u8>>"* undef, metadata !1311, metadata !DIExpression()), !dbg !1408
  call void @llvm.dbg.value(metadata %"core::iter::adapters::zip::Zip<core::slice::Iter<u16>, core::slice::ChunksExactMut<u8>>"* undef, metadata !1319, metadata !DIExpression()), !dbg !1410
  %_2.i.i99 = icmp eq i64 %.0.i.i.i.i.i.i, 0, !dbg !1412
  br i1 %_2.i.i99, label %bb10, label %bb12.preheader, !dbg !1413

bb12.preheader:                                   ; preds = %_ZN4core4iter6traits8iterator8Iterator3zip17hbd84c1e91fef80f8E.exit
  %min.iters.check = icmp ult i64 %.0.i.i.i.i.i.i, 8, !dbg !1413
  br i1 %min.iters.check, label %bb12.preheader106, label %vector.scevcheck, !dbg !1413

bb12.preheader106:                                ; preds = %middle.block, %vector.scevcheck, %bb12.preheader
  %iter.sroa.11.0100.ph = phi i64 [ 0, %vector.scevcheck ], [ 0, %bb12.preheader ], [ %n.vec, %middle.block ]
  br label %bb12, !dbg !1413

vector.scevcheck:                                 ; preds = %bb12.preheader
  %2 = add nsw i64 %.0.i.i.i.i.i.i, -1, !dbg !1413
  %mul = call { i64, i1 } @llvm.umul.with.overflow.i64(i64 %2, i64 2), !dbg !1413
  %mul.result = extractvalue { i64, i1 } %mul, 0, !dbg !1413
  %mul.overflow = extractvalue { i64, i1 } %mul, 1, !dbg !1413
  %3 = xor i64 %output.0101, -1, !dbg !1413
  %4 = icmp ugt i64 %mul.result, %3, !dbg !1413
  %5 = or i1 %4, %mul.overflow, !dbg !1413
  %scevgep = getelementptr [0 x i8], [0 x i8]* %output.0, i64 0, i64 1, !dbg !1413
  %scevgep102 = ptrtoint i8* %scevgep to i64
  %mul103 = call { i64, i1 } @llvm.umul.with.overflow.i64(i64 %2, i64 2), !dbg !1413
  %mul.result104 = extractvalue { i64, i1 } %mul103, 0, !dbg !1413
  %mul.overflow105 = extractvalue { i64, i1 } %mul103, 1, !dbg !1413
  %6 = xor i64 %scevgep102, -1, !dbg !1413
  %7 = icmp ugt i64 %mul.result104, %6, !dbg !1413
  %8 = or i1 %7, %mul.overflow105, !dbg !1413
  %9 = or i1 %5, %8, !dbg !1413
  br i1 %9, label %bb12.preheader106, label %vector.ph, !dbg !1413

vector.ph:                                        ; preds = %vector.scevcheck
  %n.vec = and i64 %.0.i.i.i.i.i.i, 524280, !dbg !1413
  %10 = add nsw i64 %n.vec, -8, !dbg !1413
  %11 = lshr exact i64 %10, 3, !dbg !1413
  %12 = add nuw nsw i64 %11, 1, !dbg !1413
  %xtraiter = and i64 %12, 1, !dbg !1413
  %13 = icmp eq i64 %10, 0, !dbg !1413
  br i1 %13, label %middle.block.unr-lcssa, label %vector.ph.new, !dbg !1413

vector.ph.new:                                    ; preds = %vector.ph
  %unroll_iter = sub nuw nsw i64 %12, %xtraiter, !dbg !1413
  br label %vector.body, !dbg !1413

vector.body:                                      ; preds = %vector.body, %vector.ph.new
  %index = phi i64 [ 0, %vector.ph.new ], [ %index.next.1, %vector.body ], !dbg !1414
  %niter = phi i64 [ %unroll_iter, %vector.ph.new ], [ %niter.nsub.1, %vector.body ]
  %14 = getelementptr inbounds [0 x i16], [0 x i16]* %input.0, i64 0, i64 %index, !dbg !1415
  %15 = shl i64 %index, 1, !dbg !1419
  %16 = getelementptr inbounds [0 x i8], [0 x i8]* %output.0, i64 0, i64 %15, !dbg !1421
  %17 = bitcast i16* %14 to <8 x i16>*, !dbg !1424
  %wide.load = load <8 x i16>, <8 x i16>* %17, align 2, !dbg !1424
  %18 = trunc <8 x i16> %wide.load to <8 x i8>, !dbg !1425
  %19 = lshr <8 x i16> %wide.load, <i16 8, i16 8, i16 8, i16 8, i16 8, i16 8, i16 8, i16 8>, !dbg !1426
  %20 = trunc <8 x i16> %19 to <8 x i8>, !dbg !1427
  %21 = bitcast i8* %16 to <16 x i8>*, !dbg !1427
  %interleaved.vec = shufflevector <8 x i8> %18, <8 x i8> %20, <16 x i32> <i32 0, i32 8, i32 1, i32 9, i32 2, i32 10, i32 3, i32 11, i32 4, i32 12, i32 5, i32 13, i32 6, i32 14, i32 7, i32 15>, !dbg !1427
  store <16 x i8> %interleaved.vec, <16 x i8>* %21, align 1, !dbg !1427
  %index.next = or i64 %index, 8, !dbg !1414
  %22 = getelementptr inbounds [0 x i16], [0 x i16]* %input.0, i64 0, i64 %index.next, !dbg !1415
  %23 = shl i64 %index.next, 1, !dbg !1419
  %24 = getelementptr inbounds [0 x i8], [0 x i8]* %output.0, i64 0, i64 %23, !dbg !1421
  %25 = bitcast i16* %22 to <8 x i16>*, !dbg !1424
  %wide.load.1 = load <8 x i16>, <8 x i16>* %25, align 2, !dbg !1424
  %26 = trunc <8 x i16> %wide.load.1 to <8 x i8>, !dbg !1425
  %27 = lshr <8 x i16> %wide.load.1, <i16 8, i16 8, i16 8, i16 8, i16 8, i16 8, i16 8, i16 8>, !dbg !1426
  %28 = trunc <8 x i16> %27 to <8 x i8>, !dbg !1427
  %29 = bitcast i8* %24 to <16 x i8>*, !dbg !1427
  %interleaved.vec.1 = shufflevector <8 x i8> %26, <8 x i8> %28, <16 x i32> <i32 0, i32 8, i32 1, i32 9, i32 2, i32 10, i32 3, i32 11, i32 4, i32 12, i32 5, i32 13, i32 6, i32 14, i32 7, i32 15>, !dbg !1427
  store <16 x i8> %interleaved.vec.1, <16 x i8>* %29, align 1, !dbg !1427
  %index.next.1 = add i64 %index, 16, !dbg !1414
  %niter.nsub.1 = add i64 %niter, -2, !dbg !1414
  %niter.ncmp.1 = icmp eq i64 %niter.nsub.1, 0, !dbg !1414
  br i1 %niter.ncmp.1, label %middle.block.unr-lcssa, label %vector.body, !dbg !1414, !llvm.loop !1428

middle.block.unr-lcssa:                           ; preds = %vector.body, %vector.ph
  %index.unr = phi i64 [ 0, %vector.ph ], [ %index.next.1, %vector.body ]
  %lcmp.mod = icmp eq i64 %xtraiter, 0, !dbg !1414
  br i1 %lcmp.mod, label %middle.block, label %vector.body.epil, !dbg !1414

vector.body.epil:                                 ; preds = %middle.block.unr-lcssa
  %30 = getelementptr inbounds [0 x i16], [0 x i16]* %input.0, i64 0, i64 %index.unr, !dbg !1415
  %31 = shl i64 %index.unr, 1, !dbg !1419
  %32 = getelementptr inbounds [0 x i8], [0 x i8]* %output.0, i64 0, i64 %31, !dbg !1421
  %33 = bitcast i16* %30 to <8 x i16>*, !dbg !1424
  %wide.load.epil = load <8 x i16>, <8 x i16>* %33, align 2, !dbg !1424
  %34 = trunc <8 x i16> %wide.load.epil to <8 x i8>, !dbg !1425
  %35 = lshr <8 x i16> %wide.load.epil, <i16 8, i16 8, i16 8, i16 8, i16 8, i16 8, i16 8, i16 8>, !dbg !1426
  %36 = trunc <8 x i16> %35 to <8 x i8>, !dbg !1427
  %37 = bitcast i8* %32 to <16 x i8>*, !dbg !1427
  %interleaved.vec.epil = shufflevector <8 x i8> %34, <8 x i8> %36, <16 x i32> <i32 0, i32 8, i32 1, i32 9, i32 2, i32 10, i32 3, i32 11, i32 4, i32 12, i32 5, i32 13, i32 6, i32 14, i32 7, i32 15>, !dbg !1427
  store <16 x i8> %interleaved.vec.epil, <16 x i8>* %37, align 1, !dbg !1427
  br label %middle.block, !dbg !1413

middle.block:                                     ; preds = %middle.block.unr-lcssa, %vector.body.epil
  %cmp.n = icmp eq i64 %.0.i.i.i.i.i.i, %n.vec, !dbg !1413
  br i1 %cmp.n, label %bb10, label %bb12.preheader106, !dbg !1413

bb10:                                             ; preds = %bb12, %middle.block, %_ZN4core4iter6traits8iterator8Iterator3zip17hbd84c1e91fef80f8E.exit
  ret void, !dbg !1429

bb12:                                             ; preds = %bb12.preheader106, %bb12
  %iter.sroa.11.0100 = phi i64 [ %38, %bb12 ], [ %iter.sroa.11.0100.ph, %bb12.preheader106 ]
  call void @llvm.dbg.value(metadata i64 %iter.sroa.11.0100, metadata !1322, metadata !DIExpression()), !dbg !1430
  %38 = add nuw i64 %iter.sroa.11.0100, 1, !dbg !1414
  call void @llvm.dbg.value(metadata i64 %iter.sroa.11.0100, metadata !510, metadata !DIExpression()), !dbg !1431
  call void @llvm.dbg.value(metadata [0 x i16]* %input.0, metadata !501, metadata !DIExpression()), !dbg !1432
  call void @llvm.dbg.value(metadata i64 %iter.sroa.11.0100, metadata !502, metadata !DIExpression()), !dbg !1432
  call void @llvm.dbg.value(metadata [0 x i16]* %input.0, metadata !494, metadata !DIExpression()), !dbg !1433
  call void @llvm.dbg.value(metadata i64 %iter.sroa.11.0100, metadata !495, metadata !DIExpression()), !dbg !1433
  %39 = getelementptr inbounds [0 x i16], [0 x i16]* %input.0, i64 0, i64 %iter.sroa.11.0100, !dbg !1415
  call void @llvm.dbg.value(metadata %"core::slice::ChunksExactMut<u8>"* undef, metadata !1339, metadata !DIExpression()), !dbg !1434
  call void @llvm.dbg.value(metadata i64 %iter.sroa.11.0100, metadata !1340, metadata !DIExpression()), !dbg !1434
  %start1.i.i.i = shl i64 %iter.sroa.11.0100, 1, !dbg !1419
  call void @llvm.dbg.value(metadata i64 %start1.i.i.i, metadata !1341, metadata !DIExpression()), !dbg !1435
  call void @llvm.dbg.value(metadata [0 x i8]* %output.0, metadata !192, metadata !DIExpression()), !dbg !1436
  call void @llvm.dbg.value(metadata i64 %start1.i.i.i, metadata !193, metadata !DIExpression()), !dbg !1436
  call void @llvm.dbg.value(metadata [0 x i8]* %output.0, metadata !183, metadata !DIExpression()), !dbg !1437
  call void @llvm.dbg.value(metadata i64 %start1.i.i.i, metadata !184, metadata !DIExpression()), !dbg !1437
  %40 = getelementptr inbounds [0 x i8], [0 x i8]* %output.0, i64 0, i64 %start1.i.i.i, !dbg !1421
  call void @llvm.dbg.value(metadata i16* %39, metadata !1370, metadata !DIExpression(DW_OP_LLVM_fragment, 0, 64)), !dbg !1438
  call void @llvm.dbg.value(metadata i8* %40, metadata !1370, metadata !DIExpression(DW_OP_LLVM_fragment, 64, 64)), !dbg !1438
  call void @llvm.dbg.value(metadata i16* %39, metadata !1374, metadata !DIExpression()), !dbg !1439
  call void @llvm.dbg.value(metadata i8* %40, metadata !1376, metadata !DIExpression(DW_OP_LLVM_fragment, 0, 64)), !dbg !1439
  %_26 = load i16, i16* %39, align 2, !dbg !1424
  %41 = trunc i16 %_26 to i8, !dbg !1425
  store i8 %41, i8* %40, align 1, !dbg !1425
  %_31 = lshr i16 %_26, 8, !dbg !1426
  %42 = getelementptr inbounds i8, i8* %40, i64 1, !dbg !1427
  %43 = trunc i16 %_31 to i8, !dbg !1427
  store i8 %43, i8* %42, align 1, !dbg !1427
  call void @llvm.dbg.value(metadata %"core::iter::adapters::zip::Zip<core::slice::Iter<u16>, core::slice::ChunksExactMut<u8>>"* undef, metadata !1368, metadata !DIExpression(DW_OP_deref)), !dbg !1407
  call void @llvm.dbg.value(metadata %"core::iter::adapters::zip::Zip<core::slice::Iter<u16>, core::slice::ChunksExactMut<u8>>"* undef, metadata !1311, metadata !DIExpression()), !dbg !1408
  call void @llvm.dbg.value(metadata %"core::iter::adapters::zip::Zip<core::slice::Iter<u16>, core::slice::ChunksExactMut<u8>>"* undef, metadata !1319, metadata !DIExpression()), !dbg !1410
  %_2.i.i = icmp ult i64 %38, %.0.i.i.i.i.i.i, !dbg !1412
  br i1 %_2.i.i, label %bb12, label %bb10, !dbg !1413, !llvm.loop !1440
}

; iterator_bench::zip_chunks_exact_unknown_size_take_impl
; Function Attrs: noinline nonlazybind uwtable
define void @_ZN14iterator_bench39zip_chunks_exact_unknown_size_take_impl17he23221a79d536bf8E([0 x i8]* nonnull align 1 %output.0, i64 %output.1, [0 x i16]* noalias nonnull readonly align 2 %input.0, i64 %input.1) unnamed_addr #1 personality i32 (i32, i32, i64, %"unwind::libunwind::_Unwind_Exception"*, %"unwind::libunwind::_Unwind_Context"*)* @rust_eh_personality !dbg !1441 {
_ZN4core4iter6traits8iterator8Iterator3zip17hbd84c1e91fef80f8E.exit:
  call void @llvm.dbg.value(metadata [0 x i8]* %output.0, metadata !1443, metadata !DIExpression(DW_OP_LLVM_fragment, 0, 64)), !dbg !1460
  call void @llvm.dbg.value(metadata i64 %output.1, metadata !1443, metadata !DIExpression(DW_OP_LLVM_fragment, 64, 64)), !dbg !1460
  call void @llvm.dbg.value(metadata [0 x i16]* %input.0, metadata !1444, metadata !DIExpression(DW_OP_LLVM_fragment, 0, 64)), !dbg !1460
  call void @llvm.dbg.value(metadata i64 %input.1, metadata !1444, metadata !DIExpression(DW_OP_LLVM_fragment, 64, 64)), !dbg !1460
  call void @llvm.dbg.value(metadata [0 x i8]* %output.0, metadata !192, metadata !DIExpression()), !dbg !1461
  call void @llvm.dbg.value(metadata i64 %output.1, metadata !193, metadata !DIExpression(DW_OP_constu, 18446744073709551614, DW_OP_and, DW_OP_stack_value)), !dbg !1461
  call void @llvm.dbg.value(metadata [0 x i8]* %output.0, metadata !183, metadata !DIExpression()), !dbg !1465
  call void @llvm.dbg.value(metadata i64 %output.1, metadata !184, metadata !DIExpression(DW_OP_constu, 18446744073709551614, DW_OP_and, DW_OP_stack_value)), !dbg !1465
  call void @llvm.dbg.value(metadata [0 x i8]* %output.0, metadata !1252, metadata !DIExpression(DW_OP_LLVM_fragment, 0, 64)), !dbg !1467
  call void @llvm.dbg.value(metadata i64 %output.1, metadata !1252, metadata !DIExpression(DW_OP_constu, 18446744073709551614, DW_OP_and, DW_OP_stack_value, DW_OP_LLVM_fragment, 64, 64)), !dbg !1467
  call void @llvm.dbg.value(metadata i8* undef, metadata !1252, metadata !DIExpression(DW_OP_LLVM_fragment, 128, 64)), !dbg !1467
  call void @llvm.dbg.value(metadata i64 %output.1, metadata !1252, metadata !DIExpression(DW_OP_constu, 1, DW_OP_and, DW_OP_stack_value, DW_OP_LLVM_fragment, 192, 64)), !dbg !1467
  call void @llvm.dbg.value(metadata i64 2, metadata !1252, metadata !DIExpression(DW_OP_LLVM_fragment, 256, 64)), !dbg !1467
  call void @llvm.dbg.value(metadata [0 x i16]* %input.0, metadata !1257, metadata !DIExpression(DW_OP_LLVM_fragment, 0, 64)), !dbg !1467
  call void @llvm.dbg.value(metadata [0 x i8]* %output.0, metadata !1262, metadata !DIExpression(DW_OP_LLVM_fragment, 0, 64)), !dbg !1469
  call void @llvm.dbg.value(metadata i64 %output.1, metadata !1262, metadata !DIExpression(DW_OP_constu, 18446744073709551614, DW_OP_and, DW_OP_stack_value, DW_OP_LLVM_fragment, 64, 64)), !dbg !1469
  call void @llvm.dbg.value(metadata i64 2, metadata !1262, metadata !DIExpression(DW_OP_LLVM_fragment, 256, 64)), !dbg !1469
  call void @llvm.dbg.value(metadata [0 x i16]* %input.0, metadata !1265, metadata !DIExpression(DW_OP_LLVM_fragment, 0, 64)), !dbg !1469
  call void @llvm.dbg.value(metadata i64 %output.1, metadata !1268, metadata !DIExpression(DW_OP_constu, 18446744073709551614, DW_OP_and, DW_OP_stack_value, DW_OP_LLVM_fragment, 64, 64)), !dbg !1471
  call void @llvm.dbg.value(metadata i64 2, metadata !1268, metadata !DIExpression(DW_OP_LLVM_fragment, 256, 64)), !dbg !1471
  %n.i.i.i.i.i = lshr i64 %output.1, 1, !dbg !1473
  call void @llvm.dbg.value(metadata i64 %input.1, metadata !753, metadata !DIExpression()), !dbg !1476
  call void @llvm.dbg.value(metadata i64 %n.i.i.i.i.i, metadata !756, metadata !DIExpression()), !dbg !1476
  call void @llvm.dbg.value(metadata i64 %input.1, metadata !759, metadata !DIExpression()), !dbg !1478
  call void @llvm.dbg.value(metadata i64 %n.i.i.i.i.i, metadata !762, metadata !DIExpression()), !dbg !1478
  call void @llvm.dbg.value(metadata i64 %input.1, metadata !765, metadata !DIExpression()), !dbg !1480
  call void @llvm.dbg.value(metadata i64 %n.i.i.i.i.i, metadata !768, metadata !DIExpression()), !dbg !1480
  %0 = icmp ult i64 %n.i.i.i.i.i, %input.1, !dbg !1482
  call void @llvm.dbg.value(metadata i64 %n.i.i.i.i.i, metadata !768, metadata !DIExpression()), !dbg !1480
  call void @llvm.dbg.value(metadata i64 %input.1, metadata !765, metadata !DIExpression()), !dbg !1480
  %.0.i.i.i.i.i.i = select i1 %0, i64 %n.i.i.i.i.i, i64 %input.1, !dbg !1482
  call void @llvm.dbg.value(metadata %"core::iter::adapters::Take<core::iter::adapters::zip::Zip<core::slice::Iter<u16>, core::slice::ChunksExactMut<u8>>>"* undef, metadata !1445, metadata !DIExpression(DW_OP_deref)), !dbg !1483
  call void @llvm.dbg.value(metadata %"core::iter::adapters::Take<core::iter::adapters::zip::Zip<core::slice::Iter<u16>, core::slice::ChunksExactMut<u8>>>"* undef, metadata !1484, metadata !DIExpression()), !dbg !1490
  %_2.i.i.i135 = icmp eq i64 %.0.i.i.i.i.i.i, 0, !dbg !1492
  call void @llvm.dbg.value(metadata %"core::iter::adapters::Take<core::iter::adapters::zip::Zip<core::slice::Iter<u16>, core::slice::ChunksExactMut<u8>>>"* undef, metadata !1311, metadata !DIExpression()), !dbg !1495
  call void @llvm.dbg.value(metadata %"core::iter::adapters::Take<core::iter::adapters::zip::Zip<core::slice::Iter<u16>, core::slice::ChunksExactMut<u8>>>"* undef, metadata !1319, metadata !DIExpression()), !dbg !1496
  br i1 %_2.i.i.i135, label %bb8, label %bb10.preheader, !dbg !1497

bb10.preheader:                                   ; preds = %_ZN4core4iter6traits8iterator8Iterator3zip17hbd84c1e91fef80f8E.exit
  %1 = add nsw i64 %.0.i.i.i.i.i.i, -1, !dbg !1497
  %2 = icmp ult i64 %1, 319999, !dbg !1497
  %umin = select i1 %2, i64 %1, i64 319999, !dbg !1497
  %3 = add nuw nsw i64 %umin, 1, !dbg !1497
  %min.iters.check = icmp ult i64 %3, 8, !dbg !1497
  br i1 %min.iters.check, label %bb10.preheader142, label %vector.ph, !dbg !1497

bb10.preheader142:                                ; preds = %middle.block, %bb10.preheader
  %iter.sroa.16.0137.ph = phi i64 [ 320000, %bb10.preheader ], [ %ind.end, %middle.block ]
  %iter.sroa.11.0136.ph = phi i64 [ 0, %bb10.preheader ], [ %n.vec, %middle.block ]
  br label %bb10, !dbg !1497

vector.ph:                                        ; preds = %bb10.preheader
  %n.vec = and i64 %3, 1048568, !dbg !1497
  %ind.end = sub nsw i64 320000, %n.vec, !dbg !1497
  %4 = add nsw i64 %n.vec, -8, !dbg !1497
  %5 = lshr exact i64 %4, 3, !dbg !1497
  %6 = add nuw nsw i64 %5, 1, !dbg !1497
  %xtraiter = and i64 %6, 1, !dbg !1497
  %7 = icmp eq i64 %4, 0, !dbg !1497
  br i1 %7, label %middle.block.unr-lcssa, label %vector.ph.new, !dbg !1497

vector.ph.new:                                    ; preds = %vector.ph
  %unroll_iter = sub nuw nsw i64 %6, %xtraiter, !dbg !1497
  br label %vector.body, !dbg !1497

vector.body:                                      ; preds = %vector.body, %vector.ph.new
  %index = phi i64 [ 0, %vector.ph.new ], [ %index.next.1, %vector.body ], !dbg !1498
  %niter = phi i64 [ %unroll_iter, %vector.ph.new ], [ %niter.nsub.1, %vector.body ]
  %8 = getelementptr inbounds [0 x i16], [0 x i16]* %input.0, i64 0, i64 %index, !dbg !1499
  %9 = shl nuw i64 %index, 1, !dbg !1503
  %10 = getelementptr inbounds [0 x i8], [0 x i8]* %output.0, i64 0, i64 %9, !dbg !1505
  %11 = bitcast i16* %8 to <8 x i16>*, !dbg !1508
  %wide.load = load <8 x i16>, <8 x i16>* %11, align 2, !dbg !1508
  %12 = trunc <8 x i16> %wide.load to <8 x i8>, !dbg !1509
  %13 = lshr <8 x i16> %wide.load, <i16 8, i16 8, i16 8, i16 8, i16 8, i16 8, i16 8, i16 8>, !dbg !1510
  %14 = trunc <8 x i16> %13 to <8 x i8>, !dbg !1511
  %15 = bitcast i8* %10 to <16 x i8>*, !dbg !1511
  %interleaved.vec = shufflevector <8 x i8> %12, <8 x i8> %14, <16 x i32> <i32 0, i32 8, i32 1, i32 9, i32 2, i32 10, i32 3, i32 11, i32 4, i32 12, i32 5, i32 13, i32 6, i32 14, i32 7, i32 15>, !dbg !1511
  store <16 x i8> %interleaved.vec, <16 x i8>* %15, align 1, !dbg !1511
  %index.next = or i64 %index, 8, !dbg !1498
  %16 = getelementptr inbounds [0 x i16], [0 x i16]* %input.0, i64 0, i64 %index.next, !dbg !1499
  %17 = shl nuw i64 %index.next, 1, !dbg !1503
  %18 = getelementptr inbounds [0 x i8], [0 x i8]* %output.0, i64 0, i64 %17, !dbg !1505
  %19 = bitcast i16* %16 to <8 x i16>*, !dbg !1508
  %wide.load.1 = load <8 x i16>, <8 x i16>* %19, align 2, !dbg !1508
  %20 = trunc <8 x i16> %wide.load.1 to <8 x i8>, !dbg !1509
  %21 = lshr <8 x i16> %wide.load.1, <i16 8, i16 8, i16 8, i16 8, i16 8, i16 8, i16 8, i16 8>, !dbg !1510
  %22 = trunc <8 x i16> %21 to <8 x i8>, !dbg !1511
  %23 = bitcast i8* %18 to <16 x i8>*, !dbg !1511
  %interleaved.vec.1 = shufflevector <8 x i8> %20, <8 x i8> %22, <16 x i32> <i32 0, i32 8, i32 1, i32 9, i32 2, i32 10, i32 3, i32 11, i32 4, i32 12, i32 5, i32 13, i32 6, i32 14, i32 7, i32 15>, !dbg !1511
  store <16 x i8> %interleaved.vec.1, <16 x i8>* %23, align 1, !dbg !1511
  %index.next.1 = add i64 %index, 16, !dbg !1498
  %niter.nsub.1 = add i64 %niter, -2, !dbg !1498
  %niter.ncmp.1 = icmp eq i64 %niter.nsub.1, 0, !dbg !1498
  br i1 %niter.ncmp.1, label %middle.block.unr-lcssa, label %vector.body, !dbg !1498, !llvm.loop !1512

middle.block.unr-lcssa:                           ; preds = %vector.body, %vector.ph
  %index.unr = phi i64 [ 0, %vector.ph ], [ %index.next.1, %vector.body ]
  %lcmp.mod = icmp eq i64 %xtraiter, 0, !dbg !1498
  br i1 %lcmp.mod, label %middle.block, label %vector.body.epil, !dbg !1498

vector.body.epil:                                 ; preds = %middle.block.unr-lcssa
  %24 = getelementptr inbounds [0 x i16], [0 x i16]* %input.0, i64 0, i64 %index.unr, !dbg !1499
  %25 = shl nuw i64 %index.unr, 1, !dbg !1503
  %26 = getelementptr inbounds [0 x i8], [0 x i8]* %output.0, i64 0, i64 %25, !dbg !1505
  %27 = bitcast i16* %24 to <8 x i16>*, !dbg !1508
  %wide.load.epil = load <8 x i16>, <8 x i16>* %27, align 2, !dbg !1508
  %28 = trunc <8 x i16> %wide.load.epil to <8 x i8>, !dbg !1509
  %29 = lshr <8 x i16> %wide.load.epil, <i16 8, i16 8, i16 8, i16 8, i16 8, i16 8, i16 8, i16 8>, !dbg !1510
  %30 = trunc <8 x i16> %29 to <8 x i8>, !dbg !1511
  %31 = bitcast i8* %26 to <16 x i8>*, !dbg !1511
  %interleaved.vec.epil = shufflevector <8 x i8> %28, <8 x i8> %30, <16 x i32> <i32 0, i32 8, i32 1, i32 9, i32 2, i32 10, i32 3, i32 11, i32 4, i32 12, i32 5, i32 13, i32 6, i32 14, i32 7, i32 15>, !dbg !1511
  store <16 x i8> %interleaved.vec.epil, <16 x i8>* %31, align 1, !dbg !1511
  br label %middle.block, !dbg !1497

middle.block:                                     ; preds = %middle.block.unr-lcssa, %vector.body.epil
  %cmp.n = icmp eq i64 %3, %n.vec, !dbg !1497
  br i1 %cmp.n, label %bb8, label %bb10.preheader142, !dbg !1497

bb8:                                              ; preds = %bb10, %middle.block, %_ZN4core4iter6traits8iterator8Iterator3zip17hbd84c1e91fef80f8E.exit
  ret void, !dbg !1513

bb10:                                             ; preds = %bb10.preheader142, %bb10
  %iter.sroa.16.0137 = phi i64 [ %32, %bb10 ], [ %iter.sroa.16.0137.ph, %bb10.preheader142 ]
  %iter.sroa.11.0136 = phi i64 [ %33, %bb10 ], [ %iter.sroa.11.0136.ph, %bb10.preheader142 ]
  %32 = add nsw i64 %iter.sroa.16.0137, -1, !dbg !1514
  call void @llvm.dbg.value(metadata %"core::iter::adapters::Take<core::iter::adapters::zip::Zip<core::slice::Iter<u16>, core::slice::ChunksExactMut<u8>>>"* undef, metadata !1311, metadata !DIExpression()), !dbg !1495
  call void @llvm.dbg.value(metadata %"core::iter::adapters::Take<core::iter::adapters::zip::Zip<core::slice::Iter<u16>, core::slice::ChunksExactMut<u8>>>"* undef, metadata !1319, metadata !DIExpression()), !dbg !1496
  call void @llvm.dbg.value(metadata i64 %iter.sroa.11.0136, metadata !1322, metadata !DIExpression()), !dbg !1515
  %33 = add nuw nsw i64 %iter.sroa.11.0136, 1, !dbg !1498
  call void @llvm.dbg.value(metadata i64 %iter.sroa.11.0136, metadata !510, metadata !DIExpression()), !dbg !1516
  call void @llvm.dbg.value(metadata [0 x i16]* %input.0, metadata !501, metadata !DIExpression()), !dbg !1517
  call void @llvm.dbg.value(metadata i64 %iter.sroa.11.0136, metadata !502, metadata !DIExpression()), !dbg !1517
  call void @llvm.dbg.value(metadata [0 x i16]* %input.0, metadata !494, metadata !DIExpression()), !dbg !1518
  call void @llvm.dbg.value(metadata i64 %iter.sroa.11.0136, metadata !495, metadata !DIExpression()), !dbg !1518
  %34 = getelementptr inbounds [0 x i16], [0 x i16]* %input.0, i64 0, i64 %iter.sroa.11.0136, !dbg !1499
  call void @llvm.dbg.value(metadata %"core::slice::ChunksExactMut<u8>"* undef, metadata !1339, metadata !DIExpression()), !dbg !1519
  call void @llvm.dbg.value(metadata i64 %iter.sroa.11.0136, metadata !1340, metadata !DIExpression()), !dbg !1519
  %start1.i.i.i.i = shl nuw i64 %iter.sroa.11.0136, 1, !dbg !1503
  call void @llvm.dbg.value(metadata i64 %start1.i.i.i.i, metadata !1341, metadata !DIExpression()), !dbg !1520
  call void @llvm.dbg.value(metadata [0 x i8]* %output.0, metadata !192, metadata !DIExpression()), !dbg !1521
  call void @llvm.dbg.value(metadata i64 %start1.i.i.i.i, metadata !193, metadata !DIExpression()), !dbg !1521
  call void @llvm.dbg.value(metadata [0 x i8]* %output.0, metadata !183, metadata !DIExpression()), !dbg !1522
  call void @llvm.dbg.value(metadata i64 %start1.i.i.i.i, metadata !184, metadata !DIExpression()), !dbg !1522
  %35 = getelementptr inbounds [0 x i8], [0 x i8]* %output.0, i64 0, i64 %start1.i.i.i.i, !dbg !1505
  call void @llvm.dbg.value(metadata i16* %34, metadata !1453, metadata !DIExpression(DW_OP_LLVM_fragment, 0, 64)), !dbg !1523
  call void @llvm.dbg.value(metadata i8* %35, metadata !1453, metadata !DIExpression(DW_OP_LLVM_fragment, 64, 64)), !dbg !1523
  call void @llvm.dbg.value(metadata i16* %34, metadata !1457, metadata !DIExpression()), !dbg !1524
  call void @llvm.dbg.value(metadata i8* %35, metadata !1459, metadata !DIExpression(DW_OP_LLVM_fragment, 0, 64)), !dbg !1524
  %_21 = load i16, i16* %34, align 2, !dbg !1508
  %36 = trunc i16 %_21 to i8, !dbg !1509
  store i8 %36, i8* %35, align 1, !dbg !1509
  %_26 = lshr i16 %_21, 8, !dbg !1510
  %37 = getelementptr inbounds i8, i8* %35, i64 1, !dbg !1511
  %38 = trunc i16 %_26 to i8, !dbg !1511
  store i8 %38, i8* %37, align 1, !dbg !1511
  call void @llvm.dbg.value(metadata %"core::iter::adapters::Take<core::iter::adapters::zip::Zip<core::slice::Iter<u16>, core::slice::ChunksExactMut<u8>>>"* undef, metadata !1445, metadata !DIExpression(DW_OP_deref)), !dbg !1483
  call void @llvm.dbg.value(metadata %"core::iter::adapters::Take<core::iter::adapters::zip::Zip<core::slice::Iter<u16>, core::slice::ChunksExactMut<u8>>>"* undef, metadata !1484, metadata !DIExpression()), !dbg !1490
  %_2.i = icmp ne i64 %32, 0, !dbg !1525
  %_2.i.i.i = icmp ult i64 %33, %.0.i.i.i.i.i.i, !dbg !1492
  %or.cond = and i1 %_2.i.i.i, %_2.i, !dbg !1497
  call void @llvm.dbg.value(metadata %"core::iter::adapters::Take<core::iter::adapters::zip::Zip<core::slice::Iter<u16>, core::slice::ChunksExactMut<u8>>>"* undef, metadata !1311, metadata !DIExpression()), !dbg !1495
  call void @llvm.dbg.value(metadata %"core::iter::adapters::Take<core::iter::adapters::zip::Zip<core::slice::Iter<u16>, core::slice::ChunksExactMut<u8>>>"* undef, metadata !1319, metadata !DIExpression()), !dbg !1496
  br i1 %or.cond, label %bb10, label %bb8, !dbg !1497, !llvm.loop !1526
}

; iterator_bench::zip_chunks_exact_unknown_size_take_iter_impl
; Function Attrs: noinline nonlazybind uwtable
define void @_ZN14iterator_bench44zip_chunks_exact_unknown_size_take_iter_impl17h8fd9ed478ec60c1fE([0 x i8]* nonnull align 1 %output.0, i64 %output.1, [0 x i16]* noalias nonnull readonly align 2 %input.0, i64 %input.1) unnamed_addr #1 personality i32 (i32, i32, i64, %"unwind::libunwind::_Unwind_Exception"*, %"unwind::libunwind::_Unwind_Context"*)* @rust_eh_personality !dbg !1527 {
_ZN4core4iter6traits8iterator8Iterator3zip17hbd84c1e91fef80f8E.exit:
  call void @llvm.dbg.value(metadata [0 x i8]* %output.0, metadata !1529, metadata !DIExpression(DW_OP_LLVM_fragment, 0, 64)), !dbg !1550
  call void @llvm.dbg.value(metadata i64 %output.1, metadata !1529, metadata !DIExpression(DW_OP_LLVM_fragment, 64, 64)), !dbg !1550
  call void @llvm.dbg.value(metadata [0 x i16]* %input.0, metadata !1530, metadata !DIExpression(DW_OP_LLVM_fragment, 0, 64)), !dbg !1550
  call void @llvm.dbg.value(metadata i64 %input.1, metadata !1530, metadata !DIExpression(DW_OP_LLVM_fragment, 64, 64)), !dbg !1550
  call void @llvm.dbg.value(metadata [0 x i8]* %output.0, metadata !192, metadata !DIExpression()), !dbg !1551
  call void @llvm.dbg.value(metadata i64 %output.1, metadata !193, metadata !DIExpression(DW_OP_constu, 18446744073709551614, DW_OP_and, DW_OP_stack_value)), !dbg !1551
  call void @llvm.dbg.value(metadata [0 x i8]* %output.0, metadata !183, metadata !DIExpression()), !dbg !1555
  call void @llvm.dbg.value(metadata i64 %output.1, metadata !184, metadata !DIExpression(DW_OP_constu, 18446744073709551614, DW_OP_and, DW_OP_stack_value)), !dbg !1555
  call void @llvm.dbg.value(metadata [0 x i8]* %output.0, metadata !1252, metadata !DIExpression(DW_OP_LLVM_fragment, 0, 64)), !dbg !1557
  call void @llvm.dbg.value(metadata i64 %output.1, metadata !1252, metadata !DIExpression(DW_OP_constu, 18446744073709551614, DW_OP_and, DW_OP_stack_value, DW_OP_LLVM_fragment, 64, 64)), !dbg !1557
  call void @llvm.dbg.value(metadata i8* undef, metadata !1252, metadata !DIExpression(DW_OP_LLVM_fragment, 128, 64)), !dbg !1557
  call void @llvm.dbg.value(metadata i64 %output.1, metadata !1252, metadata !DIExpression(DW_OP_constu, 1, DW_OP_and, DW_OP_stack_value, DW_OP_LLVM_fragment, 192, 64)), !dbg !1557
  call void @llvm.dbg.value(metadata i64 2, metadata !1252, metadata !DIExpression(DW_OP_LLVM_fragment, 256, 64)), !dbg !1557
  call void @llvm.dbg.value(metadata [0 x i16]* %input.0, metadata !1257, metadata !DIExpression(DW_OP_LLVM_fragment, 0, 64)), !dbg !1557
  call void @llvm.dbg.value(metadata [0 x i8]* %output.0, metadata !1262, metadata !DIExpression(DW_OP_LLVM_fragment, 0, 64)), !dbg !1559
  call void @llvm.dbg.value(metadata i64 %output.1, metadata !1262, metadata !DIExpression(DW_OP_constu, 18446744073709551614, DW_OP_and, DW_OP_stack_value, DW_OP_LLVM_fragment, 64, 64)), !dbg !1559
  call void @llvm.dbg.value(metadata i64 2, metadata !1262, metadata !DIExpression(DW_OP_LLVM_fragment, 256, 64)), !dbg !1559
  call void @llvm.dbg.value(metadata [0 x i16]* %input.0, metadata !1265, metadata !DIExpression(DW_OP_LLVM_fragment, 0, 64)), !dbg !1559
  call void @llvm.dbg.value(metadata i64 %output.1, metadata !1268, metadata !DIExpression(DW_OP_constu, 18446744073709551614, DW_OP_and, DW_OP_stack_value, DW_OP_LLVM_fragment, 64, 64)), !dbg !1561
  call void @llvm.dbg.value(metadata i64 2, metadata !1268, metadata !DIExpression(DW_OP_LLVM_fragment, 256, 64)), !dbg !1561
  %n.i.i.i.i.i = lshr i64 %output.1, 1, !dbg !1563
  call void @llvm.dbg.value(metadata i64 %input.1, metadata !753, metadata !DIExpression()), !dbg !1566
  call void @llvm.dbg.value(metadata i64 %n.i.i.i.i.i, metadata !756, metadata !DIExpression()), !dbg !1566
  call void @llvm.dbg.value(metadata i64 %input.1, metadata !759, metadata !DIExpression()), !dbg !1568
  call void @llvm.dbg.value(metadata i64 %n.i.i.i.i.i, metadata !762, metadata !DIExpression()), !dbg !1568
  call void @llvm.dbg.value(metadata i64 %input.1, metadata !765, metadata !DIExpression()), !dbg !1570
  call void @llvm.dbg.value(metadata i64 %n.i.i.i.i.i, metadata !768, metadata !DIExpression()), !dbg !1570
  %0 = icmp ult i64 %n.i.i.i.i.i, %input.1, !dbg !1572
  call void @llvm.dbg.value(metadata i64 %n.i.i.i.i.i, metadata !768, metadata !DIExpression()), !dbg !1570
  call void @llvm.dbg.value(metadata i64 %input.1, metadata !765, metadata !DIExpression()), !dbg !1570
  %.0.i.i.i.i.i.i = select i1 %0, i64 %n.i.i.i.i.i, i64 %input.1, !dbg !1572
  call void @llvm.dbg.value(metadata %"core::iter::adapters::Take<core::iter::adapters::zip::Zip<core::slice::Iter<u16>, core::slice::ChunksExactMut<u8>>>"* undef, metadata !1531, metadata !DIExpression(DW_OP_deref)), !dbg !1573
  call void @llvm.dbg.value(metadata %"core::iter::adapters::Take<core::iter::adapters::zip::Zip<core::slice::Iter<u16>, core::slice::ChunksExactMut<u8>>>"* undef, metadata !1484, metadata !DIExpression()), !dbg !1574
  br label %bb2.i, !dbg !1576

bb2.i:                                            ; preds = %bb10.1, %_ZN4core4iter6traits8iterator8Iterator3zip17hbd84c1e91fef80f8E.exit
  %iter.sroa.16.0149 = phi i64 [ 320000, %_ZN4core4iter6traits8iterator8Iterator3zip17hbd84c1e91fef80f8E.exit ], [ %7, %bb10.1 ]
  %iter.sroa.11.0148 = phi i64 [ 0, %_ZN4core4iter6traits8iterator8Iterator3zip17hbd84c1e91fef80f8E.exit ], [ %13, %bb10.1 ]
  call void @llvm.dbg.value(metadata %"core::iter::adapters::Take<core::iter::adapters::zip::Zip<core::slice::Iter<u16>, core::slice::ChunksExactMut<u8>>>"* undef, metadata !1311, metadata !DIExpression()), !dbg !1577
  call void @llvm.dbg.value(metadata %"core::iter::adapters::Take<core::iter::adapters::zip::Zip<core::slice::Iter<u16>, core::slice::ChunksExactMut<u8>>>"* undef, metadata !1319, metadata !DIExpression()), !dbg !1579
  %_2.i.i.i = icmp ult i64 %iter.sroa.11.0148, %.0.i.i.i.i.i.i, !dbg !1581
  br i1 %_2.i.i.i, label %bb10, label %bb8, !dbg !1582

bb8:                                              ; preds = %bb10.1, %bb10, %bb2.i
  ret void, !dbg !1583

bb10:                                             ; preds = %bb2.i
  call void @llvm.dbg.value(metadata %"core::iter::adapters::Take<core::iter::adapters::zip::Zip<core::slice::Iter<u16>, core::slice::ChunksExactMut<u8>>>"* undef, metadata !1311, metadata !DIExpression()), !dbg !1577
  call void @llvm.dbg.value(metadata %"core::iter::adapters::Take<core::iter::adapters::zip::Zip<core::slice::Iter<u16>, core::slice::ChunksExactMut<u8>>>"* undef, metadata !1319, metadata !DIExpression()), !dbg !1579
  call void @llvm.dbg.value(metadata i64 %iter.sroa.11.0148, metadata !1322, metadata !DIExpression()), !dbg !1584
  call void @llvm.dbg.value(metadata i64 %iter.sroa.11.0148, metadata !510, metadata !DIExpression()), !dbg !1585
  call void @llvm.dbg.value(metadata [0 x i16]* %input.0, metadata !501, metadata !DIExpression()), !dbg !1587
  call void @llvm.dbg.value(metadata i64 %iter.sroa.11.0148, metadata !502, metadata !DIExpression()), !dbg !1587
  call void @llvm.dbg.value(metadata [0 x i16]* %input.0, metadata !494, metadata !DIExpression()), !dbg !1589
  call void @llvm.dbg.value(metadata i64 %iter.sroa.11.0148, metadata !495, metadata !DIExpression()), !dbg !1589
  %1 = getelementptr inbounds [0 x i16], [0 x i16]* %input.0, i64 0, i64 %iter.sroa.11.0148, !dbg !1591
  call void @llvm.dbg.value(metadata %"core::slice::ChunksExactMut<u8>"* undef, metadata !1339, metadata !DIExpression()), !dbg !1592
  call void @llvm.dbg.value(metadata i64 %iter.sroa.11.0148, metadata !1340, metadata !DIExpression()), !dbg !1592
  %start1.i.i.i.i = shl nuw i64 %iter.sroa.11.0148, 1, !dbg !1594
  call void @llvm.dbg.value(metadata i64 %start1.i.i.i.i, metadata !1341, metadata !DIExpression()), !dbg !1595
  call void @llvm.dbg.value(metadata [0 x i8]* %output.0, metadata !192, metadata !DIExpression()), !dbg !1596
  call void @llvm.dbg.value(metadata i64 %start1.i.i.i.i, metadata !193, metadata !DIExpression()), !dbg !1596
  call void @llvm.dbg.value(metadata [0 x i8]* %output.0, metadata !183, metadata !DIExpression()), !dbg !1598
  call void @llvm.dbg.value(metadata i64 %start1.i.i.i.i, metadata !184, metadata !DIExpression()), !dbg !1598
  %2 = getelementptr inbounds [0 x i8], [0 x i8]* %output.0, i64 0, i64 %start1.i.i.i.i, !dbg !1600
  call void @llvm.dbg.value(metadata i16* %1, metadata !1533, metadata !DIExpression(DW_OP_LLVM_fragment, 0, 64)), !dbg !1601
  call void @llvm.dbg.value(metadata i8* %2, metadata !1533, metadata !DIExpression(DW_OP_LLVM_fragment, 64, 64)), !dbg !1601
  call void @llvm.dbg.value(metadata i64 2, metadata !1533, metadata !DIExpression(DW_OP_LLVM_fragment, 128, 64)), !dbg !1601
  call void @llvm.dbg.value(metadata i8* %2, metadata !1539, metadata !DIExpression(DW_OP_LLVM_fragment, 0, 64)), !dbg !1602
  call void @llvm.dbg.value(metadata i64 2, metadata !1539, metadata !DIExpression(DW_OP_LLVM_fragment, 64, 64)), !dbg !1602
  %b = load i16, i16* %1, align 2, !dbg !1603
  call void @llvm.dbg.value(metadata i16 %b, metadata !1537, metadata !DIExpression()), !dbg !1602
  call void @llvm.dbg.value(metadata i16 %b, metadata !1540, metadata !DIExpression()), !dbg !1604
  call void @llvm.dbg.value(metadata i8* %2, metadata !192, metadata !DIExpression()), !dbg !1605
  call void @llvm.dbg.value(metadata i64 2, metadata !193, metadata !DIExpression()), !dbg !1605
  call void @llvm.dbg.value(metadata i8* %2, metadata !183, metadata !DIExpression()), !dbg !1608
  call void @llvm.dbg.value(metadata i64 2, metadata !184, metadata !DIExpression()), !dbg !1608
  call void @llvm.dbg.value(metadata { i8*, i8* }* undef, metadata !1542, metadata !DIExpression(DW_OP_deref)), !dbg !1610
  call void @llvm.dbg.value(metadata i16 %b, metadata !1540, metadata !DIExpression()), !dbg !1604
  call void @llvm.dbg.value(metadata i8* %2, metadata !183, metadata !DIExpression()), !dbg !1611
  call void @llvm.dbg.value(metadata i64 1, metadata !184, metadata !DIExpression()), !dbg !1611
  call void @llvm.dbg.value(metadata i8* %2, metadata !1544, metadata !DIExpression()), !dbg !1615
  call void @llvm.dbg.value(metadata i8* %2, metadata !1548, metadata !DIExpression()), !dbg !1616
  %3 = trunc i16 %b to i8, !dbg !1617
  store i8 %3, i8* %2, align 1, !dbg !1617
  %4 = lshr i16 %b, 8, !dbg !1618
  call void @llvm.dbg.value(metadata i16 %4, metadata !1540, metadata !DIExpression()), !dbg !1604
  call void @llvm.dbg.value(metadata { i8*, i8* }* undef, metadata !1542, metadata !DIExpression(DW_OP_deref)), !dbg !1610
  call void @llvm.dbg.value(metadata i16 %4, metadata !1540, metadata !DIExpression()), !dbg !1604
  %iter2.sroa.0.0.ptr.1 = getelementptr inbounds i8, i8* %2, i64 1, !dbg !1604
  call void @llvm.dbg.value(metadata i8* %iter2.sroa.0.0.ptr.1, metadata !183, metadata !DIExpression()), !dbg !1611
  call void @llvm.dbg.value(metadata i64 1, metadata !184, metadata !DIExpression()), !dbg !1611
  call void @llvm.dbg.value(metadata i8* %iter2.sroa.0.0.ptr.1, metadata !1544, metadata !DIExpression()), !dbg !1615
  call void @llvm.dbg.value(metadata i8* %iter2.sroa.0.0.ptr.1, metadata !1548, metadata !DIExpression()), !dbg !1616
  %5 = trunc i16 %4 to i8, !dbg !1617
  store i8 %5, i8* %iter2.sroa.0.0.ptr.1, align 1, !dbg !1617
  call void @llvm.dbg.value(metadata i16 0, metadata !1540, metadata !DIExpression()), !dbg !1604
  call void @llvm.dbg.value(metadata { i8*, i8* }* undef, metadata !1542, metadata !DIExpression(DW_OP_deref)), !dbg !1610
  %6 = or i64 %iter.sroa.11.0148, 1, !dbg !1619
  call void @llvm.dbg.value(metadata %"core::iter::adapters::Take<core::iter::adapters::zip::Zip<core::slice::Iter<u16>, core::slice::ChunksExactMut<u8>>>"* undef, metadata !1531, metadata !DIExpression(DW_OP_deref)), !dbg !1573
  call void @llvm.dbg.value(metadata %"core::iter::adapters::Take<core::iter::adapters::zip::Zip<core::slice::Iter<u16>, core::slice::ChunksExactMut<u8>>>"* undef, metadata !1484, metadata !DIExpression()), !dbg !1574
  %7 = add nsw i64 %iter.sroa.16.0149, -2, !dbg !1620
  call void @llvm.dbg.value(metadata %"core::iter::adapters::Take<core::iter::adapters::zip::Zip<core::slice::Iter<u16>, core::slice::ChunksExactMut<u8>>>"* undef, metadata !1311, metadata !DIExpression()), !dbg !1577
  call void @llvm.dbg.value(metadata %"core::iter::adapters::Take<core::iter::adapters::zip::Zip<core::slice::Iter<u16>, core::slice::ChunksExactMut<u8>>>"* undef, metadata !1319, metadata !DIExpression()), !dbg !1579
  %_2.i.i.i.1 = icmp ult i64 %6, %.0.i.i.i.i.i.i, !dbg !1581
  br i1 %_2.i.i.i.1, label %bb10.1, label %bb8, !dbg !1582

bb10.1:                                           ; preds = %bb10
  call void @llvm.dbg.value(metadata %"core::iter::adapters::Take<core::iter::adapters::zip::Zip<core::slice::Iter<u16>, core::slice::ChunksExactMut<u8>>>"* undef, metadata !1311, metadata !DIExpression()), !dbg !1577
  call void @llvm.dbg.value(metadata %"core::iter::adapters::Take<core::iter::adapters::zip::Zip<core::slice::Iter<u16>, core::slice::ChunksExactMut<u8>>>"* undef, metadata !1319, metadata !DIExpression()), !dbg !1579
  call void @llvm.dbg.value(metadata i64 %6, metadata !1322, metadata !DIExpression()), !dbg !1584
  call void @llvm.dbg.value(metadata i64 %6, metadata !510, metadata !DIExpression()), !dbg !1585
  call void @llvm.dbg.value(metadata [0 x i16]* %input.0, metadata !501, metadata !DIExpression()), !dbg !1587
  call void @llvm.dbg.value(metadata i64 %6, metadata !502, metadata !DIExpression()), !dbg !1587
  call void @llvm.dbg.value(metadata [0 x i16]* %input.0, metadata !494, metadata !DIExpression()), !dbg !1589
  call void @llvm.dbg.value(metadata i64 %6, metadata !495, metadata !DIExpression()), !dbg !1589
  %8 = getelementptr inbounds [0 x i16], [0 x i16]* %input.0, i64 0, i64 %6, !dbg !1591
  call void @llvm.dbg.value(metadata %"core::slice::ChunksExactMut<u8>"* undef, metadata !1339, metadata !DIExpression()), !dbg !1592
  call void @llvm.dbg.value(metadata i64 %6, metadata !1340, metadata !DIExpression()), !dbg !1592
  %start1.i.i.i.i.1 = shl nuw i64 %6, 1, !dbg !1594
  call void @llvm.dbg.value(metadata i64 %start1.i.i.i.i.1, metadata !1341, metadata !DIExpression()), !dbg !1595
  call void @llvm.dbg.value(metadata [0 x i8]* %output.0, metadata !192, metadata !DIExpression()), !dbg !1596
  call void @llvm.dbg.value(metadata i64 %start1.i.i.i.i.1, metadata !193, metadata !DIExpression()), !dbg !1596
  call void @llvm.dbg.value(metadata [0 x i8]* %output.0, metadata !183, metadata !DIExpression()), !dbg !1598
  call void @llvm.dbg.value(metadata i64 %start1.i.i.i.i.1, metadata !184, metadata !DIExpression()), !dbg !1598
  %9 = getelementptr inbounds [0 x i8], [0 x i8]* %output.0, i64 0, i64 %start1.i.i.i.i.1, !dbg !1600
  call void @llvm.dbg.value(metadata i16* %8, metadata !1533, metadata !DIExpression(DW_OP_LLVM_fragment, 0, 64)), !dbg !1601
  call void @llvm.dbg.value(metadata i8* %9, metadata !1533, metadata !DIExpression(DW_OP_LLVM_fragment, 64, 64)), !dbg !1601
  call void @llvm.dbg.value(metadata i64 2, metadata !1533, metadata !DIExpression(DW_OP_LLVM_fragment, 128, 64)), !dbg !1601
  call void @llvm.dbg.value(metadata i8* %9, metadata !1539, metadata !DIExpression(DW_OP_LLVM_fragment, 0, 64)), !dbg !1602
  call void @llvm.dbg.value(metadata i64 2, metadata !1539, metadata !DIExpression(DW_OP_LLVM_fragment, 64, 64)), !dbg !1602
  %b.1 = load i16, i16* %8, align 2, !dbg !1603
  call void @llvm.dbg.value(metadata i16 %b.1, metadata !1537, metadata !DIExpression()), !dbg !1602
  call void @llvm.dbg.value(metadata i16 %b.1, metadata !1540, metadata !DIExpression()), !dbg !1604
  call void @llvm.dbg.value(metadata i8* %9, metadata !192, metadata !DIExpression()), !dbg !1605
  call void @llvm.dbg.value(metadata i64 2, metadata !193, metadata !DIExpression()), !dbg !1605
  call void @llvm.dbg.value(metadata i8* %9, metadata !183, metadata !DIExpression()), !dbg !1608
  call void @llvm.dbg.value(metadata i64 2, metadata !184, metadata !DIExpression()), !dbg !1608
  call void @llvm.dbg.value(metadata { i8*, i8* }* undef, metadata !1542, metadata !DIExpression(DW_OP_deref)), !dbg !1610
  call void @llvm.dbg.value(metadata i16 %b.1, metadata !1540, metadata !DIExpression()), !dbg !1604
  call void @llvm.dbg.value(metadata i8* %9, metadata !183, metadata !DIExpression()), !dbg !1611
  call void @llvm.dbg.value(metadata i64 1, metadata !184, metadata !DIExpression()), !dbg !1611
  call void @llvm.dbg.value(metadata i8* %9, metadata !1544, metadata !DIExpression()), !dbg !1615
  call void @llvm.dbg.value(metadata i8* %9, metadata !1548, metadata !DIExpression()), !dbg !1616
  %10 = trunc i16 %b.1 to i8, !dbg !1617
  store i8 %10, i8* %9, align 1, !dbg !1617
  %11 = lshr i16 %b.1, 8, !dbg !1618
  call void @llvm.dbg.value(metadata i16 %11, metadata !1540, metadata !DIExpression()), !dbg !1604
  call void @llvm.dbg.value(metadata { i8*, i8* }* undef, metadata !1542, metadata !DIExpression(DW_OP_deref)), !dbg !1610
  call void @llvm.dbg.value(metadata i16 %11, metadata !1540, metadata !DIExpression()), !dbg !1604
  %iter2.sroa.0.0.ptr.1.1 = getelementptr inbounds i8, i8* %9, i64 1, !dbg !1604
  call void @llvm.dbg.value(metadata i8* %iter2.sroa.0.0.ptr.1.1, metadata !183, metadata !DIExpression()), !dbg !1611
  call void @llvm.dbg.value(metadata i64 1, metadata !184, metadata !DIExpression()), !dbg !1611
  call void @llvm.dbg.value(metadata i8* %iter2.sroa.0.0.ptr.1.1, metadata !1544, metadata !DIExpression()), !dbg !1615
  call void @llvm.dbg.value(metadata i8* %iter2.sroa.0.0.ptr.1.1, metadata !1548, metadata !DIExpression()), !dbg !1616
  %12 = trunc i16 %11 to i8, !dbg !1617
  store i8 %12, i8* %iter2.sroa.0.0.ptr.1.1, align 1, !dbg !1617
  call void @llvm.dbg.value(metadata i16 0, metadata !1540, metadata !DIExpression()), !dbg !1604
  call void @llvm.dbg.value(metadata { i8*, i8* }* undef, metadata !1542, metadata !DIExpression(DW_OP_deref)), !dbg !1610
  %13 = add nuw nsw i64 %iter.sroa.11.0148, 2, !dbg !1619
  call void @llvm.dbg.value(metadata %"core::iter::adapters::Take<core::iter::adapters::zip::Zip<core::slice::Iter<u16>, core::slice::ChunksExactMut<u8>>>"* undef, metadata !1531, metadata !DIExpression(DW_OP_deref)), !dbg !1573
  call void @llvm.dbg.value(metadata %"core::iter::adapters::Take<core::iter::adapters::zip::Zip<core::slice::Iter<u16>, core::slice::ChunksExactMut<u8>>>"* undef, metadata !1484, metadata !DIExpression()), !dbg !1574
  %_2.i.1 = icmp eq i64 %7, 0, !dbg !1621
  br i1 %_2.i.1, label %bb8, label %bb2.i, !dbg !1576
}

; Function Attrs: nounwind nonlazybind uwtable
declare i32 @rust_eh_personality(i32, i32, i64, %"unwind::libunwind::_Unwind_Exception"*, %"unwind::libunwind::_Unwind_Context"*) unnamed_addr #2

; Function Attrs: nounwind readnone speculatable
declare void @llvm.dbg.value(metadata, metadata, metadata) #3

; Function Attrs: nounwind readnone speculatable
declare { i64, i1 } @llvm.umul.with.overflow.i64(i64, i64) #3

attributes #0 = { noinline nounwind nonlazybind uwtable "probe-stack"="__rust_probestack" "target-cpu"="x86-64" }
attributes #1 = { noinline nonlazybind uwtable "probe-stack"="__rust_probestack" "target-cpu"="x86-64" }
attributes #2 = { nounwind nonlazybind uwtable "probe-stack"="__rust_probestack" "target-cpu"="x86-64" }
attributes #3 = { nounwind readnone speculatable }
attributes #4 = { nounwind }

!llvm.module.flags = !{!0, !1, !2}
!llvm.dbg.cu = !{!3}

!0 = !{i32 7, !"PIC Level", i32 2}
!1 = !{i32 2, !"RtLibUseGOT", i32 1}
!2 = !{i32 2, !"Debug Info Version", i32 3}
!3 = distinct !DICompileUnit(language: DW_LANG_Rust, file: !4, producer: "clang LLVM (rustc version 1.46.0-dev)", isOptimized: true, runtimeVersion: 0, emissionKind: FullDebug, enums: !5, globals: !30)
!4 = !DIFile(filename: "src/lib.rs", directory: "/benchdata/rust/assume_true/iterator_bench")
!5 = !{!6, !14, !23}
!6 = !DICompositeType(tag: DW_TAG_enumeration_type, name: "Result", scope: !8, file: !7, baseType: !10, size: 8, align: 8, flags: DIFlagEnumClass, elements: !11)
!7 = !DIFile(filename: "<unknown>", directory: "")
!8 = !DINamespace(name: "result", scope: !9)
!9 = !DINamespace(name: "core", scope: null)
!10 = !DIBasicType(name: "u8", size: 8, encoding: DW_ATE_unsigned)
!11 = !{!12, !13}
!12 = !DIEnumerator(name: "Ok", value: 0)
!13 = !DIEnumerator(name: "Err", value: 1)
!14 = !DICompositeType(tag: DW_TAG_enumeration_type, name: "Alignment", scope: !15, file: !7, baseType: !10, size: 8, align: 8, flags: DIFlagEnumClass, elements: !18)
!15 = !DINamespace(name: "v1", scope: !16)
!16 = !DINamespace(name: "rt", scope: !17)
!17 = !DINamespace(name: "fmt", scope: !9)
!18 = !{!19, !20, !21, !22}
!19 = !DIEnumerator(name: "Left", value: 0)
!20 = !DIEnumerator(name: "Right", value: 1)
!21 = !DIEnumerator(name: "Center", value: 2)
!22 = !DIEnumerator(name: "Unknown", value: 3)
!23 = !DICompositeType(tag: DW_TAG_enumeration_type, name: "Ordering", scope: !24, file: !7, baseType: !25, size: 8, align: 8, flags: DIFlagEnumClass, elements: !26)
!24 = !DINamespace(name: "cmp", scope: !9)
!25 = !DIBasicType(name: "i8", size: 8, encoding: DW_ATE_signed)
!26 = !{!27, !28, !29}
!27 = !DIEnumerator(name: "Less", value: -1)
!28 = !DIEnumerator(name: "Equal", value: 0)
!29 = !DIEnumerator(name: "Greater", value: 1)
!30 = !{!31}
!31 = !DIGlobalVariableExpression(var: !32, expr: !DIExpression())
!32 = distinct !DIGlobalVariable(name: "vtable", scope: null, file: !7, type: !33, isLocal: true, isDefinition: true)
!33 = !DICompositeType(tag: DW_TAG_structure_type, name: "vtable", file: !7, align: 64, flags: DIFlagArtificial, elements: !34, vtableHolder: !35, identifier: "vtable")
!34 = !{}
!35 = !DIDerivedType(tag: DW_TAG_pointer_type, name: "&usize", baseType: !36, size: 64, align: 64, dwarfAddressSpace: 0)
!36 = !DIBasicType(name: "usize", size: 64, encoding: DW_ATE_unsigned)
!37 = distinct !DISubprogram(name: "optimal_unsafe_impl", linkageName: "_ZN14iterator_bench19optimal_unsafe_impl17h43d230ec30bc4b7bE", scope: !39, file: !38, line: 132, type: !40, scopeLine: 132, flags: DIFlagPrototyped, spFlags: DISPFlagDefinition | DISPFlagOptimized, unit: !3, templateParams: !34, retainedNodes: !51)
!38 = !DIFile(filename: "src/lib.rs", directory: "/benchdata/rust/assume_true/iterator_bench", checksumkind: CSK_MD5, checksum: "a8dc37aaa783cb836f824ed3391fd70d")
!39 = !DINamespace(name: "iterator_bench", scope: null)
!40 = !DISubroutineType(types: !41)
!41 = !{null, !42, !46}
!42 = !DIDerivedType(tag: DW_TAG_pointer_type, name: "&mut [u8; 640000]", baseType: !43, size: 64, align: 64, dwarfAddressSpace: 0)
!43 = !DICompositeType(tag: DW_TAG_array_type, baseType: !10, size: 5120000, align: 8, elements: !44)
!44 = !{!45}
!45 = !DISubrange(count: 640000)
!46 = !DIDerivedType(tag: DW_TAG_pointer_type, name: "&[u16; 320000]", baseType: !47, size: 64, align: 64, dwarfAddressSpace: 0)
!47 = !DICompositeType(tag: DW_TAG_array_type, baseType: !48, size: 5120000, align: 16, elements: !49)
!48 = !DIBasicType(name: "u16", size: 16, encoding: DW_ATE_unsigned)
!49 = !{!50}
!50 = !DISubrange(count: 320000)
!51 = !{!52, !53, !54, !64, !66, !68, !70}
!52 = !DILocalVariable(name: "output", arg: 1, scope: !37, file: !38, line: 132, type: !42)
!53 = !DILocalVariable(name: "input", arg: 2, scope: !37, file: !38, line: 132, type: !46)
!54 = !DILocalVariable(name: "iter", scope: !55, file: !38, line: 133, type: !56, align: 8)
!55 = distinct !DILexicalBlock(scope: !37, file: !38, line: 133, column: 17)
!56 = !DICompositeType(tag: DW_TAG_structure_type, name: "Range<usize>", scope: !57, file: !7, size: 128, align: 64, elements: !59, templateParams: !62, identifier: "4be1f8843c4abc6e6b0755e50f9e3873")
!57 = !DINamespace(name: "range", scope: !58)
!58 = !DINamespace(name: "ops", scope: !9)
!59 = !{!60, !61}
!60 = !DIDerivedType(tag: DW_TAG_member, name: "start", scope: !56, file: !7, baseType: !36, size: 64, align: 64)
!61 = !DIDerivedType(tag: DW_TAG_member, name: "end", scope: !56, file: !7, baseType: !36, size: 64, align: 64, offset: 64)
!62 = !{!63}
!63 = !DITemplateTypeParameter(name: "Idx", type: !36)
!64 = !DILocalVariable(name: "__next", scope: !65, file: !38, line: 133, type: !36, align: 8)
!65 = distinct !DILexicalBlock(scope: !55, file: !38, line: 133, column: 26)
!66 = !DILocalVariable(name: "val", scope: !67, file: !38, line: 133, type: !36, align: 8)
!67 = distinct !DILexicalBlock(scope: !65, file: !38, line: 133, column: 21)
!68 = !DILocalVariable(name: "i", scope: !69, file: !38, line: 133, type: !36, align: 8)
!69 = distinct !DILexicalBlock(scope: !65, file: !38, line: 133, column: 26)
!70 = !DILocalVariable(name: "b", scope: !71, file: !38, line: 135, type: !48, align: 2)
!71 = distinct !DILexicalBlock(scope: !69, file: !38, line: 135, column: 25)
!72 = !DILocation(line: 0, scope: !37)
!73 = !DILocation(line: 0, scope: !55)
!74 = !DILocalVariable(name: "self", arg: 1, scope: !75, file: !76, line: 504, type: !97)
!75 = distinct !DISubprogram(name: "next<usize>", linkageName: "_ZN4core4iter5range101_$LT$impl$u20$core..iter..traits..iterator..Iterator$u20$for$u20$core..ops..range..Range$LT$A$GT$$GT$4next17h25cbe90ff389d789E", scope: !77, file: !76, line: 504, type: !80, scopeLine: 504, flags: DIFlagPrototyped, spFlags: DISPFlagLocalToUnit | DISPFlagDefinition | DISPFlagOptimized, unit: !3, templateParams: !101, retainedNodes: !98)
!76 = !DIFile(filename: "/benchdata/rust/rust-bcrm/src/libcore/iter/range.rs", directory: "", checksumkind: CSK_MD5, checksum: "cccabf57d1b2ffaf9873830757e526c9")
!77 = !DINamespace(name: "{{impl}}", scope: !78)
!78 = !DINamespace(name: "range", scope: !79)
!79 = !DINamespace(name: "iter", scope: !9)
!80 = !DISubroutineType(types: !81)
!81 = !{!82, !97}
!82 = !DICompositeType(tag: DW_TAG_structure_type, name: "Option<usize>", scope: !83, file: !7, size: 128, align: 64, elements: !84, identifier: "edae92f6aa2d4d3d8225245fd9f15299")
!83 = !DINamespace(name: "option", scope: !9)
!84 = !{!85}
!85 = !DICompositeType(tag: DW_TAG_variant_part, scope: !83, file: !7, size: 128, align: 64, elements: !86, templateParams: !89, identifier: "edae92f6aa2d4d3d8225245fd9f15299_variant_part", discriminator: !95)
!86 = !{!87, !91}
!87 = !DIDerivedType(tag: DW_TAG_member, name: "None", scope: !85, file: !7, baseType: !88, size: 128, align: 64, extraData: i64 0)
!88 = !DICompositeType(tag: DW_TAG_structure_type, name: "None", scope: !82, file: !7, size: 128, align: 64, elements: !34, templateParams: !89, identifier: "edae92f6aa2d4d3d8225245fd9f15299::None")
!89 = !{!90}
!90 = !DITemplateTypeParameter(name: "T", type: !36)
!91 = !DIDerivedType(tag: DW_TAG_member, name: "Some", scope: !85, file: !7, baseType: !92, size: 128, align: 64, extraData: i64 1)
!92 = !DICompositeType(tag: DW_TAG_structure_type, name: "Some", scope: !82, file: !7, size: 128, align: 64, elements: !93, templateParams: !89, identifier: "edae92f6aa2d4d3d8225245fd9f15299::Some")
!93 = !{!94}
!94 = !DIDerivedType(tag: DW_TAG_member, name: "__0", scope: !92, file: !7, baseType: !36, size: 64, align: 64, offset: 64)
!95 = !DIDerivedType(tag: DW_TAG_member, scope: !83, file: !7, baseType: !96, size: 64, align: 64, flags: DIFlagArtificial)
!96 = !DIBasicType(name: "u64", size: 64, encoding: DW_ATE_unsigned)
!97 = !DIDerivedType(tag: DW_TAG_pointer_type, name: "&mut core::ops::range::Range<usize>", baseType: !56, size: 64, align: 64, dwarfAddressSpace: 0)
!98 = !{!74, !99}
!99 = !DILocalVariable(name: "n", scope: !100, file: !76, line: 510, type: !36, align: 8)
!100 = distinct !DILexicalBlock(scope: !75, file: !76, line: 510, column: 13)
!101 = !{!102}
!102 = !DITemplateTypeParameter(name: "A", type: !36)
!103 = !DILocation(line: 0, scope: !75, inlinedAt: !104)
!104 = distinct !DILocation(line: 133, column: 26, scope: !65)
!105 = !DILocation(line: 505, column: 9, scope: !75, inlinedAt: !104)
!106 = !DILocation(line: 3025, column: 26, scope: !107, inlinedAt: !116)
!107 = distinct !DISubprogram(name: "unchecked_add", linkageName: "_ZN4core3num23_$LT$impl$u20$usize$GT$13unchecked_add17he27be0fa2186d468E", scope: !109, file: !108, line: 3022, type: !111, scopeLine: 3022, flags: DIFlagPrototyped, spFlags: DISPFlagLocalToUnit | DISPFlagDefinition | DISPFlagOptimized, unit: !3, templateParams: !34, retainedNodes: !113)
!108 = !DIFile(filename: "/benchdata/rust/rust-bcrm/src/libcore/num/mod.rs", directory: "", checksumkind: CSK_MD5, checksum: "b610d63e687c1bb61890b7290628f313")
!109 = !DINamespace(name: "{{impl}}", scope: !110)
!110 = !DINamespace(name: "num", scope: !9)
!111 = !DISubroutineType(types: !112)
!112 = !{!36, !36, !36}
!113 = !{!114, !115}
!114 = !DILocalVariable(name: "self", arg: 1, scope: !107, file: !108, line: 3022, type: !36)
!115 = !DILocalVariable(name: "rhs", arg: 2, scope: !107, file: !108, line: 3022, type: !36)
!116 = distinct !DILocation(line: 193, column: 22, scope: !117, inlinedAt: !121)
!117 = distinct !DISubprogram(name: "forward_unchecked", linkageName: "_ZN49_$LT$usize$u20$as$u20$core..iter..range..Step$GT$17forward_unchecked17hf3e4aa5239d3229aE", scope: !77, file: !76, line: 191, type: !111, scopeLine: 191, flags: DIFlagPrototyped, spFlags: DISPFlagLocalToUnit | DISPFlagDefinition | DISPFlagOptimized, unit: !3, templateParams: !34, retainedNodes: !118)
!118 = !{!119, !120}
!119 = !DILocalVariable(name: "start", arg: 1, scope: !117, file: !76, line: 191, type: !36)
!120 = !DILocalVariable(name: "n", arg: 2, scope: !117, file: !76, line: 191, type: !36)
!121 = distinct !DILocation(line: 510, column: 30, scope: !75, inlinedAt: !104)
!122 = !DILocation(line: 163, column: 18, scope: !123, inlinedAt: !137)
!123 = distinct !DISubprogram(name: "offset<u16>", linkageName: "_ZN4core3ptr9const_ptr33_$LT$impl$u20$$BP$const$u20$T$GT$6offset17h1ea7951510b1da58E", scope: !125, file: !124, line: 158, type: !128, scopeLine: 158, flags: DIFlagPrototyped, spFlags: DISPFlagLocalToUnit | DISPFlagDefinition | DISPFlagOptimized, unit: !3, templateParams: !135, retainedNodes: !132)
!124 = !DIFile(filename: "/benchdata/rust/rust-bcrm/src/libcore/ptr/const_ptr.rs", directory: "", checksumkind: CSK_MD5, checksum: "1029a80e51f3b78113c12b9a07d56765")
!125 = !DINamespace(name: "{{impl}}", scope: !126)
!126 = !DINamespace(name: "const_ptr", scope: !127)
!127 = !DINamespace(name: "ptr", scope: !9)
!128 = !DISubroutineType(types: !129)
!129 = !{!130, !130, !131}
!130 = !DIDerivedType(tag: DW_TAG_pointer_type, name: "*const u16", baseType: !48, size: 64, align: 64, dwarfAddressSpace: 0)
!131 = !DIBasicType(name: "isize", size: 64, encoding: DW_ATE_signed)
!132 = !{!133, !134}
!133 = !DILocalVariable(name: "self", arg: 1, scope: !123, file: !124, line: 158, type: !130)
!134 = !DILocalVariable(name: "count", arg: 2, scope: !123, file: !124, line: 158, type: !131)
!135 = !{!136}
!136 = !DITemplateTypeParameter(name: "T", type: !48)
!137 = distinct !DILocation(line: 479, column: 18, scope: !138, inlinedAt: !144)
!138 = distinct !DISubprogram(name: "add<u16>", linkageName: "_ZN4core3ptr9const_ptr33_$LT$impl$u20$$BP$const$u20$T$GT$3add17h84407a6ec849255eE", scope: !125, file: !124, line: 474, type: !139, scopeLine: 474, flags: DIFlagPrototyped, spFlags: DISPFlagLocalToUnit | DISPFlagDefinition | DISPFlagOptimized, unit: !3, templateParams: !135, retainedNodes: !141)
!139 = !DISubroutineType(types: !140)
!140 = !{!130, !130, !36}
!141 = !{!142, !143}
!142 = !DILocalVariable(name: "self", arg: 1, scope: !138, file: !124, line: 474, type: !130)
!143 = !DILocalVariable(name: "count", arg: 2, scope: !138, file: !124, line: 474, type: !36)
!144 = distinct !DILocation(line: 2991, column: 20, scope: !145, inlinedAt: !159)
!145 = distinct !DISubprogram(name: "get_unchecked<u16>", linkageName: "_ZN68_$LT$usize$u20$as$u20$core..slice..SliceIndex$LT$$u5b$T$u5d$$GT$$GT$13get_unchecked17h925a23a01d2de901E", scope: !147, file: !146, line: 2985, type: !149, scopeLine: 2985, flags: DIFlagPrototyped, spFlags: DISPFlagLocalToUnit | DISPFlagDefinition | DISPFlagOptimized, unit: !3, templateParams: !135, retainedNodes: !156)
!146 = !DIFile(filename: "/benchdata/rust/rust-bcrm/src/libcore/slice/mod.rs", directory: "", checksumkind: CSK_MD5, checksum: "9fd93c8a41addff7ba15d9096da1df6c")
!147 = !DINamespace(name: "{{impl}}", scope: !148)
!148 = !DINamespace(name: "slice", scope: !9)
!149 = !DISubroutineType(types: !150)
!150 = !{!151, !36, !152}
!151 = !DIDerivedType(tag: DW_TAG_pointer_type, name: "&u16", baseType: !48, size: 64, align: 64, dwarfAddressSpace: 0)
!152 = !DICompositeType(tag: DW_TAG_structure_type, name: "&[u16]", file: !7, size: 128, align: 64, elements: !153, templateParams: !34, identifier: "b0357cfe37f5889afcc00fbae608b8c")
!153 = !{!154, !155}
!154 = !DIDerivedType(tag: DW_TAG_member, name: "data_ptr", scope: !152, file: !7, baseType: !130, size: 64, align: 64)
!155 = !DIDerivedType(tag: DW_TAG_member, name: "length", scope: !152, file: !7, baseType: !36, size: 64, align: 64, offset: 64)
!156 = !{!157, !158}
!157 = !DILocalVariable(name: "self", arg: 1, scope: !145, file: !146, line: 2985, type: !36)
!158 = !DILocalVariable(name: "slice", arg: 2, scope: !145, file: !146, line: 2985, type: !152)
!159 = distinct !DILocation(line: 314, column: 18, scope: !160, inlinedAt: !168)
!160 = distinct !DISubprogram(name: "get_unchecked<u16,usize>", linkageName: "_ZN4core5slice29_$LT$impl$u20$$u5b$T$u5d$$GT$13get_unchecked17hf20048a1e3baefd0E", scope: !147, file: !146, line: 309, type: !161, scopeLine: 309, flags: DIFlagPrototyped, spFlags: DISPFlagLocalToUnit | DISPFlagDefinition | DISPFlagOptimized, unit: !3, templateParams: !166, retainedNodes: !163)
!161 = !DISubroutineType(types: !162)
!162 = !{!151, !152, !36}
!163 = !{!164, !165}
!164 = !DILocalVariable(name: "self", arg: 1, scope: !160, file: !146, line: 309, type: !152)
!165 = !DILocalVariable(name: "index", arg: 2, scope: !160, file: !146, line: 309, type: !36)
!166 = !{!136, !167}
!167 = !DITemplateTypeParameter(name: "I", type: !36)
!168 = distinct !DILocation(line: 135, column: 34, scope: !69)
!169 = !DILocation(line: 135, column: 33, scope: !69)
!170 = !DILocation(line: 136, column: 51, scope: !71)
!171 = !DILocation(line: 136, column: 25, scope: !71)
!172 = !DILocation(line: 137, column: 65, scope: !71)
!173 = !DILocation(line: 137, column: 51, scope: !71)
!174 = !DILocation(line: 159, column: 18, scope: !175, inlinedAt: !187)
!175 = distinct !DISubprogram(name: "offset<u8>", linkageName: "_ZN4core3ptr7mut_ptr31_$LT$impl$u20$$BP$mut$u20$T$GT$6offset17ha8eaf047cf6f2f2dE", scope: !177, file: !176, line: 152, type: !179, scopeLine: 152, flags: DIFlagPrototyped, spFlags: DISPFlagLocalToUnit | DISPFlagDefinition | DISPFlagOptimized, unit: !3, templateParams: !185, retainedNodes: !182)
!176 = !DIFile(filename: "/benchdata/rust/rust-bcrm/src/libcore/ptr/mut_ptr.rs", directory: "", checksumkind: CSK_MD5, checksum: "238dec856f48b4ef677669c578abb280")
!177 = !DINamespace(name: "{{impl}}", scope: !178)
!178 = !DINamespace(name: "mut_ptr", scope: !127)
!179 = !DISubroutineType(types: !180)
!180 = !{!181, !181, !131}
!181 = !DIDerivedType(tag: DW_TAG_pointer_type, name: "*mut u8", baseType: !10, size: 64, align: 64, dwarfAddressSpace: 0)
!182 = !{!183, !184}
!183 = !DILocalVariable(name: "self", arg: 1, scope: !175, file: !176, line: 152, type: !181)
!184 = !DILocalVariable(name: "count", arg: 2, scope: !175, file: !176, line: 152, type: !131)
!185 = !{!186}
!186 = !DITemplateTypeParameter(name: "T", type: !10)
!187 = distinct !DILocation(line: 530, column: 18, scope: !188, inlinedAt: !194)
!188 = distinct !DISubprogram(name: "add<u8>", linkageName: "_ZN4core3ptr7mut_ptr31_$LT$impl$u20$$BP$mut$u20$T$GT$3add17h5cc7c4b4a4fd234aE", scope: !177, file: !176, line: 525, type: !189, scopeLine: 525, flags: DIFlagPrototyped, spFlags: DISPFlagLocalToUnit | DISPFlagDefinition | DISPFlagOptimized, unit: !3, templateParams: !185, retainedNodes: !191)
!189 = !DISubroutineType(types: !190)
!190 = !{!181, !181, !36}
!191 = !{!192, !193}
!192 = !DILocalVariable(name: "self", arg: 1, scope: !188, file: !176, line: 525, type: !181)
!193 = !DILocalVariable(name: "count", arg: 2, scope: !188, file: !176, line: 525, type: !36)
!194 = distinct !DILocation(line: 2997, column: 24, scope: !195, inlinedAt: !207)
!195 = distinct !DISubprogram(name: "get_unchecked_mut<u8>", linkageName: "_ZN68_$LT$usize$u20$as$u20$core..slice..SliceIndex$LT$$u5b$T$u5d$$GT$$GT$17get_unchecked_mut17h6a1e0588c0dc2c16E", scope: !147, file: !146, line: 2995, type: !196, scopeLine: 2995, flags: DIFlagPrototyped, spFlags: DISPFlagLocalToUnit | DISPFlagDefinition | DISPFlagOptimized, unit: !3, templateParams: !185, retainedNodes: !204)
!196 = !DISubroutineType(types: !197)
!197 = !{!198, !36, !199}
!198 = !DIDerivedType(tag: DW_TAG_pointer_type, name: "&mut u8", baseType: !10, size: 64, align: 64, dwarfAddressSpace: 0)
!199 = !DICompositeType(tag: DW_TAG_structure_type, name: "&mut [u8]", file: !7, size: 128, align: 64, elements: !200, templateParams: !34, identifier: "7596319ecf86f60af9b48d8c05ebf9f7")
!200 = !{!201, !203}
!201 = !DIDerivedType(tag: DW_TAG_member, name: "data_ptr", scope: !199, file: !7, baseType: !202, size: 64, align: 64)
!202 = !DIDerivedType(tag: DW_TAG_pointer_type, name: "*const u8", baseType: !10, size: 64, align: 64, dwarfAddressSpace: 0)
!203 = !DIDerivedType(tag: DW_TAG_member, name: "length", scope: !199, file: !7, baseType: !36, size: 64, align: 64, offset: 64)
!204 = !{!205, !206}
!205 = !DILocalVariable(name: "self", arg: 1, scope: !195, file: !146, line: 2995, type: !36)
!206 = !DILocalVariable(name: "slice", arg: 2, scope: !195, file: !146, line: 2995, type: !199)
!207 = distinct !DILocation(line: 346, column: 18, scope: !208, inlinedAt: !215)
!208 = distinct !DISubprogram(name: "get_unchecked_mut<u8,usize>", linkageName: "_ZN4core5slice29_$LT$impl$u20$$u5b$T$u5d$$GT$17get_unchecked_mut17h3271901634b764d2E", scope: !147, file: !146, line: 341, type: !209, scopeLine: 341, flags: DIFlagPrototyped, spFlags: DISPFlagLocalToUnit | DISPFlagDefinition | DISPFlagOptimized, unit: !3, templateParams: !214, retainedNodes: !211)
!209 = !DISubroutineType(types: !210)
!210 = !{!198, !199, !36}
!211 = !{!212, !213}
!212 = !DILocalVariable(name: "self", arg: 1, scope: !208, file: !146, line: 341, type: !199)
!213 = !DILocalVariable(name: "index", arg: 2, scope: !208, file: !146, line: 341, type: !36)
!214 = !{!186, !167}
!215 = distinct !DILocation(line: 137, column: 26, scope: !71)
!216 = !DILocation(line: 137, column: 25, scope: !71)
!217 = distinct !{!217, !218}
!218 = !{!"llvm.loop.isvectorized", i32 1}
!219 = !DILocation(line: 140, column: 14, scope: !37)
!220 = distinct !DISubprogram(name: "c_style_input_size_fixed_impl", linkageName: "_ZN14iterator_bench29c_style_input_size_fixed_impl17hcfe426a147d1500bE", scope: !39, file: !38, line: 265, type: !221, scopeLine: 265, flags: DIFlagPrototyped, spFlags: DISPFlagDefinition | DISPFlagOptimized, unit: !3, templateParams: !34, retainedNodes: !223)
!221 = !DISubroutineType(types: !222)
!222 = !{null, !199, !46}
!223 = !{!224, !225, !226, !228, !230, !232, !234}
!224 = !DILocalVariable(name: "output", arg: 1, scope: !220, file: !38, line: 265, type: !199)
