	.text
	.file	"forpaper.5r7vwc02-cgu.0"


	.section	.llvmbc,"e",@progbits
	.section	.llvmcmd,"e",@progbits



	.section	.text.fixed_size,"ax",@progbits
	.globl	fixed_size
	.p2align	4, 0x90
	.type	fixed_size,@function
fixed_size:
.Lfunc_begin0:
	.file	1 "/benchdata/rust/assume_true/forpaper/src/lib.rs"
	.loc	1 4 0
	.cfi_startproc
	pushq	%rax
	.cfi_def_cfa_offset 16
	movq	%rdi, %rax
.Ltmp0:
	.loc	1 6 9 prologue_end
	movl	$320000, %edx
	movq	%rsi, %rdi
.Ltmp1:
	movq	%rax, %rsi
.Ltmp2:
	callq	*memcpy@GOTPCREL(%rip)
.Ltmp3:
	.loc	1 8 2
	popq	%rax
	.cfi_def_cfa_offset 8
	retq
.Ltmp4:
.Lfunc_end0:
	.size	fixed_size, .Lfunc_end0-fixed_size
	.cfi_endproc

	.section	.text.unknown_size,"ax",@progbits
	.globl	unknown_size
	.p2align	4, 0x90
	.type	unknown_size,@function
unknown_size:
.Lfunc_begin1:
	.loc	1 13 0
	.cfi_startproc
	pushq	%rax
	.cfi_def_cfa_offset 16
.Ltmp5:
	.file	2 "/benchdata/rust/rust/src/libcore/cmp.rs"
	.loc	2 1137 52 prologue_end
	testq	%rsi, %rsi
.Ltmp6:
	.file	3 "/benchdata/rust/rust/src/libcore/iter/range.rs"
	.loc	3 505 9
	je	.LBB1_4
.Ltmp7:
	.loc	3 0 9 is_stmt 0
	xorl	%r8d, %r8d
.Ltmp8:
	.p2align	4, 0x90
.LBB1_2:
	.loc	1 15 9 is_stmt 1
	cmpq	%r8, %rcx
	je	.LBB1_5
.Ltmp9:
	.loc	1 15 18 is_stmt 0
	movzbl	(%rdi,%r8), %eax
	.loc	1 15 9
	movb	%al, (%rdx,%r8)
.Ltmp10:
	.file	4 "/benchdata/rust/rust/src/libcore/num/mod.rs"
	.loc	4 3025 26 is_stmt 1
	addq	$1, %r8
.Ltmp11:
	.loc	2 1137 52
	cmpq	%r8, %rsi
.Ltmp12:
	.loc	3 505 9
	jne	.LBB1_2
.Ltmp13:
.LBB1_4:
	.loc	1 17 2
	popq	%rax
	.cfi_def_cfa_offset 8
	retq
.Ltmp14:
.LBB1_5:
	.cfi_def_cfa_offset 16
	.loc	1 15 9
	leaq	.Lanon.d62cc2e2cab8848b43651c01c4572629.1(%rip), %rdx
.Ltmp15:
	movq	%rcx, %rdi
.Ltmp16:
	movq	%rcx, %rsi
.Ltmp17:
	callq	*_ZN4core9panicking18panic_bounds_check17h566454b12ba8f623E@GOTPCREL(%rip)
.Ltmp18:
	ud2
.Ltmp19:
.Lfunc_end1:
	.size	unknown_size, .Lfunc_end1-unknown_size
	.cfi_endproc

	.section	.text.perf_mot,"ax",@progbits
	.globl	perf_mot
	.p2align	4, 0x90
	.type	perf_mot,@function
perf_mot:
.Lfunc_begin2:
	.loc	1 22 0
	.cfi_startproc
	movq	%rsi, %rax
.Ltmp20:
	.loc	2 1137 52 prologue_end
	testq	%rsi, %rsi
.Ltmp21:
	.loc	3 505 9
	je	.LBB2_2
.Ltmp22:
	pushq	%rax
	.cfi_def_cfa_offset 16
	movq	%rdi, %rsi
.Ltmp23:
	.loc	1 25 13
	movq	%rdx, %rdi
	movq	%rax, %rdx
.Ltmp24:
	callq	*memcpy@GOTPCREL(%rip)
.Ltmp25:
	.loc	1 0 13 is_stmt 0
	addq	$8, %rsp
	.cfi_def_cfa_offset 8
.Ltmp26:
.LBB2_2:
	.loc	1 28 2 is_stmt 1
	retq
.Ltmp27:
.Lfunc_end2:
	.size	perf_mot, .Lfunc_end2-perf_mot
	.cfi_endproc

	.section	.text.transformation,"ax",@progbits
	.globl	transformation
	.p2align	4, 0x90
	.type	transformation,@function
transformation:
.Lfunc_begin3:
	.loc	1 33 0
	.cfi_startproc
	pushq	%rax
	.cfi_def_cfa_offset 16
.Ltmp28:
	.loc	1 34 8 prologue_end
	cmpq	%rcx, %rsi
	.loc	1 34 5 is_stmt 0
	jne	.LBB3_1
.Ltmp29:
	.loc	1 0 0
	testq	%rsi, %rsi
.Ltmp30:
	.loc	3 505 9 is_stmt 1
	je	.LBB3_9
.Ltmp31:
	.loc	3 0 9 is_stmt 0
	xorl	%eax, %eax
.Ltmp32:
	.p2align	4, 0x90
.LBB3_7:
	.loc	1 36 13 is_stmt 1
	cmpq	%rax, %rsi
	je	.LBB3_10
.Ltmp33:
	.loc	1 36 22 is_stmt 0
	movzbl	(%rdi,%rax), %ecx
.Ltmp34:
	.loc	1 36 13
	movb	%cl, (%rdx,%rax)
.Ltmp35:
	.loc	4 3025 26 is_stmt 1
	addq	$1, %rax
.Ltmp36:
	.loc	2 1137 52
	cmpq	%rax, %rsi
.Ltmp37:
	.loc	3 505 9
	jne	.LBB3_7
	jmp	.LBB3_9
.Ltmp38:
.LBB3_1:
	.loc	1 0 0 is_stmt 0
	testq	%rsi, %rsi
.Ltmp39:
	.loc	3 505 9
	je	.LBB3_9
.Ltmp40:
	.loc	3 0 9
	xorl	%r8d, %r8d
.Ltmp41:
	.p2align	4, 0x90
.LBB3_3:
	.loc	1 40 13 is_stmt 1
	cmpq	%r8, %rcx
	je	.LBB3_11
.Ltmp42:
	.loc	1 40 22 is_stmt 0
	movzbl	(%rdi,%r8), %eax
	.loc	1 40 13
	movb	%al, (%rdx,%r8)
.Ltmp43:
	.loc	4 3025 26 is_stmt 1
	addq	$1, %r8
.Ltmp44:
	.loc	2 1137 52
	cmpq	%r8, %rsi
	jne	.LBB3_3
.Ltmp45:
.LBB3_9:
	.loc	1 43 2
	popq	%rax
	.cfi_def_cfa_offset 8
	retq
.Ltmp46:
.LBB3_10:
	.cfi_def_cfa_offset 16
	.loc	1 36 13
	leaq	.Lanon.d62cc2e2cab8848b43651c01c4572629.2(%rip), %rdx
.Ltmp47:
	movq	%rsi, %rdi
.Ltmp48:
	callq	*_ZN4core9panicking18panic_bounds_check17h566454b12ba8f623E@GOTPCREL(%rip)
.Ltmp49:
	ud2
.Ltmp50:
.LBB3_11:
	.loc	1 40 13
	leaq	.Lanon.d62cc2e2cab8848b43651c01c4572629.3(%rip), %rdx
.Ltmp51:
	movq	%rcx, %rdi
.Ltmp52:
	movq	%rcx, %rsi
.Ltmp53:
	callq	*_ZN4core9panicking18panic_bounds_check17h566454b12ba8f623E@GOTPCREL(%rip)
.Ltmp54:
	ud2
.Ltmp55:
.Lfunc_end3:
	.size	transformation, .Lfunc_end3-transformation
	.cfi_endproc

	.type	.Lanon.d62cc2e2cab8848b43651c01c4572629.0,@object
	.section	.rodata..Lanon.d62cc2e2cab8848b43651c01c4572629.0,"a",@progbits
.Lanon.d62cc2e2cab8848b43651c01c4572629.0:
	.ascii	"src/lib.rs"
	.size	.Lanon.d62cc2e2cab8848b43651c01c4572629.0, 10

	.type	.Lanon.d62cc2e2cab8848b43651c01c4572629.1,@object
	.section	.data.rel.ro..Lanon.d62cc2e2cab8848b43651c01c4572629.1,"aw",@progbits
	.p2align	3
.Lanon.d62cc2e2cab8848b43651c01c4572629.1:
	.quad	.Lanon.d62cc2e2cab8848b43651c01c4572629.0
	.asciz	"\n\000\000\000\000\000\000\000\017\000\000\000\t\000\000"
	.size	.Lanon.d62cc2e2cab8848b43651c01c4572629.1, 24

	.type	.Lanon.d62cc2e2cab8848b43651c01c4572629.2,@object
	.section	.data.rel.ro..Lanon.d62cc2e2cab8848b43651c01c4572629.2,"aw",@progbits
	.p2align	3
.Lanon.d62cc2e2cab8848b43651c01c4572629.2:
	.quad	.Lanon.d62cc2e2cab8848b43651c01c4572629.0
	.asciz	"\n\000\000\000\000\000\000\000$\000\000\000\r\000\000"
	.size	.Lanon.d62cc2e2cab8848b43651c01c4572629.2, 24

	.type	.Lanon.d62cc2e2cab8848b43651c01c4572629.3,@object
	.section	.data.rel.ro..Lanon.d62cc2e2cab8848b43651c01c4572629.3,"aw",@progbits
	.p2align	3
.Lanon.d62cc2e2cab8848b43651c01c4572629.3:
	.quad	.Lanon.d62cc2e2cab8848b43651c01c4572629.0
	.asciz	"\n\000\000\000\000\000\000\000(\000\000\000\r\000\000"
	.size	.Lanon.d62cc2e2cab8848b43651c01c4572629.3, 24

	.type	.Lrustc.embedded.module,@object
	.section	.llvmbc,"e",@progbits
	.p2align	4
.Lrustc.embedded.module:
	.asciz	"BC\300\3365\024\000\000\005\000\000\000b\f0$IY\276f\357\323~-D\0012\005\000\000\000\000!\f\000\000\027\b\000\000\013\002!\000\002\000\000\000\026\000\000\000\007\201#\221A\310\004I\006\02029\222\001\204\f%\005\b\031\036\004\213b\200\030E\002B\222\013B\304\0202\0248\b\030K\n2b\210Hp\304!#D\022\207\214\020A\222\002d\310\b\261\024 CF\210 \311\0012b\204\030*(*\2201|\260\\\221 \306\310\000\000\000\211 \000\000I\000\000\0002\"\210\t d\205\004\023#\244\204\004\023#\343\204\241\220\024\022L\214\214\013\204\304L\020\264\301\034\001\222\n\200\r\002\022\bH\b\300\nDA\306\b@\002\022O\000\224\224\001Q\024Z\022\000\240f\216\000\024J\2018\217\363\0204G\020\224\002!\210G\242i\216\000\f\022\340\241\255\fHu\021\226\006\317LdP\017\356p\017\351\340\016\344\240\007z\300\016\351 \016\365\340\016\367\220\016\356@\016z\240\007\277P\013\356p\017\351\340\016\344\360\013\245\200\017\343P\016\360@\017\351\360\016\356\200\016\353\2612K\263f\022\203zp\207{H\007w \007=\320\003vH\007q\250\007w\270\207tp\007r\320\003=\370\205Zp\207{H\007w \207_\030\205wp\007z(\007|\240\007\0244\304\025\243\252\252\347\352\3103\202\363$@5S5\016\357 \017\345\240\007z\000\017\341\340\016\3510\016z\240\007\254\360\016\343\020\016\364\220\016\357\340\016\350\260\300\260\n\253\220\304B \3173\0229\020P\b\3044M:I2\302\363\220:\005\000\000Q\030\000\000_\000\000\000\033\360 \370\377\377\377\377\001x\2000 \340A\036\336A\034\312\241\r\346\201\036\302a\034\326\001\370\205_\220\207z\230\007z\370\005x\220\207w\020\207r\230\007z\b\207qX\007\200\240\207p\220\207s(\007zh\203q\200\207z\000\360\001\017\354\240\r\354\200\016\200\r\216\020\000\t\260\000U\020\004A\032\2000\236lP\006\001X\202 \b\322\000\204\361dCC\004@\002,\300\031\000U\020\004\033\222b\000\026\340\f\202 \330\240\007\306\377\377\377\377\017\200\004<@\030\020\360 \017\357 \016\345\320\006\363@\017\3410\016\353\000\374\302/\310C=\314\003=\374\002<\310\303;\210C9\314\003=\204\3038\254\003@\320C8\310\3039\224\003=\264\3018\300C=\000\370\200\007v\320\006v@\007\300\006\343\370\377\377\377\377\001h\003@\332` \001\260\000t\260\301H\004`\001\252\r\204B\000|\260\301\017\226\377\377\377\377\037\0002\000\034 \002\036 \f\bx\220\207w\020\207rh\203y\240\207p\030\207u\000~\341\027\344\241\036\346\201\036~\001\036\344\341\035\304\241\034\346\201\036\302a\034\326\001 \350!\034\344\341\034\312\201\036\332`\034\340\241\036\000|\300\003;h\003;\240\003`\003\303\f@\002TA\200\004i\200m@\232\377\377\377\377\037\000\t\240\200:\330p8\001p\006A\020l8\036\0018\203 \b\000\000\000\000I\030\000\000\t\000\000\000\023\206@\030&\f\001QL\030\f\242\230@\034H\242L\b\214\t\302\302L\b\232\t\202\363L\b\030\000\000\000\000\0230|\300\003;\370\005;\240\2036\250\007wX\007wx\207{p\2076`\207tp\207z\300\20768\007w\250\207\reP\016m\320\016zP\016m\220\016v@\007z`\007t\320\006\346\200\007p\240\007q \007x\320\006\356\200\007z\020\007v\240\007s \007z`\007t\320\006\263\020\007r\200\007J\017\b\021\222A\206\214\024\031\0014B\230\234^\346\267\034\036\206\227\345\256\232\374f\277\217a\262\326\370\\w\301vH\300\031\b\003\226\004\000\000\004\000\000\000\301\031\000;\24438\003c\350\022\002\000\200\000\000\000 8\003`\207\344\ng`\f^B\000\000\020\000\000\000\004g\000\354\220\352\341\f\214\341K\b\000\000\002\000\000\200\340\f\200!\025O(\013\000\000\001\000\000@\000\000\000\240\000\300\031\000C*\263` \000\000\004\000\000\200\000\000\000@\001\2003\000\206Tr\201@\000\000\f\000\000\000\001\000\000\200\002\000g\000\f\251\364\302\201\000\000\020\000\000\000\002\000\000\000\005\000\316\000\030R\241F6\001\001@\000\000\000\000\000\000\000\000\000\234\0010\244\n\217\311\003\002\240\000\000\000\b\000\000\000\000\0008\003`HE\037z@\006@\000\030\000\000\000\001\000\000\000\000\000g\000\f\251\334\3049\003 \000\016\000\000\000\000\000\000\000\000\2003\000$6\b\024\236@\000\000\310\002\001\"\000\000\0002\036\230\030\031\021L\220\214\t&G\306\004Cz\n\020\361d\004\240\004\250\032\001(\207\"(\2012\230\001(\320\017\nR\231\223\033{aK\023s\221\233#\001\003\213\210\241\022a\000\252\247z\252\207\212\204\024\000\000\000\000\000\000\000\036\000\000\000\022\000\000\000\022R\000\000\000\000\000\000\000 \001\000\000h\000\000\000HH\001\000\000\000\000\000\000\000\005\000\000\240\001\000\000\200\f\024\260\f\005LC\001\333(\035\001\240u\006\000\000\000\000\000\261\030\000\000\211\000\000\0003\b\200\034\304\341\034f\024\001=\210C8\204\303\214B\200\007yx\007s\230q\f\346\000\017\355\020\016\364\200\0163\fB\036\302\301\035\316\241\034f0\005=\210C8\204\203\033\314\003=\310C=\214\003=\314x\214tp\007{\b\007yH\207pp\007zp\003vx\207p \207\031\314\021\016\354\220\016\3410\017n0\017\343\360\016\360P\0163\020\304\035\336!\034\330!\035\302a\036f0\211;\274\203;\320C9\264\003<\274\203<\204\003;\314\360\024v`\007{h\0077h\207rh\0077\200\207p\220\207p`\007v(\007v\370\005vx\207w\200\207_\b\207q\030\207r\230\207y\230\201,\356\360\016\356\340\016\365\300\016\3540\003b\310\241\034\344\241\034\314\241\034\344\241\034\334a\034\312!\034\304\201\035\312a\006\326\220C9\310C9\230C9\310C9\270\3038\224C8\210\003;\224\303/\274\203<\374\202;\324\003;\260\303\f\307i\207pX\207rp\203th\007x`\207t\030\207t\240\207\031\316S\017\356\000\017\362P\016\344\220\016\343@\017\341 \016\354P\0163 (\035\334\301\036\302A\036\322!\034\334\201\036\334\340\034\344\341\035\352\001\036f\030Q8\260C:\234\203;\314P$v`\007{h\0077`\207wx\007x\230QL\364\220\017\360P\0163\036j\036\312a\034\350!\035\336\301\035~\001\036\344\241\034\314!\035\360a\006T\205\2038\314\303;\260C=\320C9\374\302<\344C;\210\303;\260\303\214\305\n\207y\230\207w\030\207t\b\007z(\007r\230\201\\\343\020\016\354\300\016\345P\016\3630#\301\322A\036\344\341\027\330\341\035\336\001\036fH\031;\260\203=\264\203\033\204\3038\214C9\314\303<\270\3019\310\303;\324\003<\314H\264q\b\007v`\007q\b\207qX\207\031\333\306\016\354`\017\355\340\006\360 \017\3450\017\345 \017\366P\016n\020\016\3430\016\3450\017\363\340\006\351\340\016\344P\016\370\000\000\000\000y \000\000|\002\000\000r\036H C\210\f\031\tr2H #\201\214\221\221\321D\240\020(d<12B\216\220!\243h\n\250@\257\001\000\000\311\")dP\006`\200\b\303@$\304P0E1\f``\fA\201$\006\030$`@\270\001\030\214\001\262\320\204\321\020\201\031\020\203\031\264\301\000\006Ap\006`0\024\0029\020F\021\365\302\032\200\301\320\240\302\340\000\000\000\000PIC LevelRtLibUseGOTDebug Info Versionsrc/lib.rs/benchdata/rust/assume_true/forpaperclang LLVM (rustc version 1.46.0-dev)7ef5767a139611e772e5867ff07caf3fforpaperu8srcdstiter<unknown>coreopsrangeRange<usize>startusizeendIdx4be1f8843c4abc6e6b0755e50f9e3873__nextvali&[u8]data_ptr*const u8length585202bcfc7dfd1dd72e8befe2491ee4&mut [u8]7596319ecf86f60af9b48d8c05ebf9f7self/benchdata/rust/rust/src/libcore/iter/range.rscccabf57d1b2ffaf9873830757e526c9&mut core::ops::range::Range<usize>{{impl}}next<usize>_ZN4core4iter5range101_$LT$impl$u20$core..iter..traits..iterator..Iterator$u20$for$u20$core..ops..range..Range$LT$A$GT$$GT$4next17h40129f595cf302abEoptionOption<usize>NoneTedae92f6aa2d4d3d8225245fd9f15299::NoneSome__0edae92f6aa2d4d3d8225245fd9f15299::Someedae92f6aa2d4d3d8225245fd9f15299_variant_partu64edae92f6aa2d4d3d8225245fd9f15299nA/benchdata/rust/rust/src/libcore/cmp.rsa4329b033234040c2caa81654f112278cmpimplslt_ZN4core3cmp5impls57_$LT$impl$u20$core..cmp..PartialOrd$u20$for$u20$usize$GT$2lt17h697d7385366f3475Ebool&usizeotherforward_unchecked_ZN49_$LT$usize$u20$as$u20$core..iter..range..Step$GT$17forward_unchecked17hf3e4aa5239d3229aE/benchdata/rust/rust/src/libcore/num/mod.rsb610d63e687c1bb61890b7290628f313numunchecked_add_ZN4core3num23_$LT$impl$u20$usize$GT$13unchecked_add17he27be0fa2186d468Erhsbranch_weights\346\311\001\000\000\000\000\0000\202PA#\bU4\202PI#\b\3254\202\260\006`0\202PQ#\bO3\202\3608#\bU5\324\024p\271`\004\000\000\004\272\000\000\000\000\000\001\000\214U\004\262\200\017\376\323L%\035\375`\006g\200\017\370\343\022\370\003p\000\210\300\202L\0000\001\000SI\207M\344\201\036\314D<\006:\021\217\001\300\001 \002\013\272\000\364\004\000L%\035\375\340\007\177\200\017\177\001\026\177\001p\000\210\300\202.\000b\001\000SI\207Y\214\002)\214\205\353\013`\341\372\002\300\001 \002\013\272\000\240\005\000\3140\234B\200\n3\f\250 \244\302\f\003*\f\2520P\001\020\005\000\314\000\fT\000D\021\034\203\r\000\200\314s\000d\220 \300\001\fT\000\r\000\000\203\r\000\340\f6\000\277\360\f6\000\340\000\315s\000d0\201\002p\000\0235@#\371\002\200\016\342\000\n\240\000\000\0000Q\0034\224/\000\350 \016\240\000\n\240\000\000\300\f\3028\220\303d\003P\211\303\f\2019\214\024\tS\344\013@8\000 \001\n\000P\016\000p\016\0260]`L'\030\306D\r\360p\000\000\364\002(\200\002\000\000\301D\r\320l\276\000\274\303:\200\002(\000\000\000L\324\000M\347\013\300;\210\003(\200\002(\000\0000\203\300\016\3550R$L\232/\000\000\000\022\240\000\000\356\000\000\272\340\001\0235@\263\371\0020\017\353\000\n\240\000\000\0000Q\0034\235/\000\363 \016\240\000\n\240\000\000\300\f\002<\304\303H\2210}\276\000\000\000H\200\002\000\310\003\000\350\002\030\0003\f\300;\314\303L\204\000\320\0030\035a\200 \001\200\302t\204\001\202\004(\200\302@\005 \006@0\006\0235\300C\006\000\000\240\003(\200\002\000\000\301p\211 \013a\200\017\370\223\017\001\000\f6\000\277\300\f6\000\373\000\r6\000\374P\006\203\r\300/\240\301d\003\260\006\3420C\360\017#E\302\244\006\276\000\260\004\000\022\240\000\000\272\000\000 \301\006\300D\r\320\250\201/\000*\021\022 \001\n\000\320\n\300D\r\320\270\201/\000%!\016\240\000\n\240\000\000\300\f\301H\214\024\tS\033\370\002\300\022\000H\200\002\000\220\004\000\200\304\033\000\0235@\323\006\276\000\250DI\200\004(\000\200+\0003\b\"a\022\363\034\000\031\304\001(\000\0070Q\0034\200/\000\376\200\022\240\000\n\000(\000\300H\2210\007\200/\000\376\000\200\004(\000\300I\000\000H\300AJ\314\020\250\304H\2210\245\201/\000\376\000\200\004(\000\300J\000\000 \007\300\f\002K\344\303L\204\000\264\0040\\\"\304\302\034\340\203\377\210\003\000 3\b\372\360\022\223\r\000\035\210\303\fAL\fT\000u\000\004v0\330\000\374\302\035\f6\0004\201\007\203\r@M\224\301<\007@\006{\200\000\0020Q\003<|\000\000\2008\200\002(\000\000\020\3140\334\004N\340\304L\204\000\344\0040\\\"\314B\030\314D<\0068\021\000\300p\2110\013}0\023\361\030\340\204\000\0003\b;\301\023\303%\002-H\370\360\027\342\020\000\300\f\2038\210\2038\314D\b\300O\000\303%\002-\314\001>\374\2058\b\0000\203\340\023a1P\001\200\002\020\204\302p\211P\013a0\026\256/\210C\000\000\203\r\300/\210\302`\003P\026e0\\\"\324B)\214\205\353\013\342 \000\300\f\002Y\234\305\f\203)\244\302+\3348\000\034\307qh\300q\034\347\022\240\340\027\252\341\027\252\341\006n\340\006n\000\271\201\030\200\202\033\210\001\032\240\201)\360\203H\240\001\032p:aq\360\300\017\"\201\0064\301\017\"\201\006:\341\006n\240\007\240\240\007\366@\016h\200\006n\340\006n\300\231\005J\240\004g\026(\201\006\254 \022l\301\201\005\032\270\0019\240\201\033pz\340\006n\340\006\246`\017t\340\006\352\240\016h\340\013t\340\006\344\200\006z\240\016n\340\006\352\200\0062\022\230\240\214\330\330\354\332\\\332\336\310\352\330\312\\\314\330\302\316\346F\031j\301\026n!\02766\2736\0272\2613\227\261\272Q\202W\000\000\251\030\000\000\013\000\000\000\013\nr(\207w\200\007zXp\230C=\270\3038\260C9\320\303\202\346\034\306\241\r\350A\036\302\301\035\346!\035\350!\035\336\301\035\000\321\020\000\000\006\000\000\000\007\314<\244\203;\234\003;\224\003=\240\203<\224C8\220\303\001\000\000\000a \000\000\204\000\000\000\023\004A,\020\000\000\000\001\000\000\000$\215\000\000\3610\000\000B\000\000\000\"G\310\220Q\016\004\033\000\000\000\000J\023\001\000fixed_size&[u8; 320000]&mut [u8; 320000]\023\204\207\231U\004p\261\013\2053\253\b\340b\027\212dV\021\304\305.\024\316\254\"\220\213](\212U\322\301\013j\001\354\002\221\027\004\200\001 \002\013\272\000\200\006\000\254\031\204\266\0006\004s1)\022\002\000\000\200^\000A\322\025\020\000\240\013\000\000\000`Q\003<k\001\000@]\200\002(\000\000\020,j\200\207-\000\000\250\013P\000\005\000\000\202\r\003`\027w\261\211\020\000\274\000\306%\202\\(\273@\330E\000\000\343\022A.\226] \356B\000\200q\211\020\027\314.\024\350\000\000\310\270D\200\213k\027\nq\000\000d\\\"\274\005\266\013\2058\000\0002.\021\334\"\333\205B\034\000\000\331`\350\305^\360E_\370\305_L\020\2240\230 (b\000\000\000#\006\007\000\202`p\006\031\271\377\377\377\017\353\376\377\377?\360\375\377\377\3770cP\000\200\\\000\300\210\301\001\200 \030\234A6\356\377\377\377\203\272\377\377\377\017|\377\377\377?L\030\000#\006\007\000\202`p\006\231\356\377\377\377\017\351\376\377\377?\354\375\377\377\3770cP\000@\\\000@O\006\341\272z2\020\0306b\200  \b\006\223'\004\3320cP\030\211[\000\300\210\301\001\200 \030\234\301\266\373\377\377\377\203\272\377\377\377\017~\377\377\377?\314\030\024\000\000\027\0000bp\000 \b\006g\260\355\376\377\377\377\200\356\377\377\377\203\337\377\377\377\0173\006\005\000\270\005\000\214\030\034\000\b\202\301\031l\273\377\377\377?\254\373\377\377\377\320\367\377\377\377\303\214A\001\000q\001\000:cP \202\\\000@@\f\000\002\000\000\000[\004 .\000\000\000\000\000\000\000\000a \000\000\334\000\000\000\023\004E,\020\000\000\000\002\000\000\0004\332\036\001\000\000\000\000\3610\000\0003\000\000\000\"G\310\220Q\006\004\004\f\000\000\000unknown_size\263\212\240-v\301qf\025A[\354\202\223\314*\002\267\330\005\307\231U\004o\261\013N\261J:xA-\200]h\352\241\0010\000D`A\027\000\275\000\000\235\007\022\310\020\"CFB;\016l\001\350\374a\210\005\270\320\376\343\021\013p\241C\303b\026\344\302\270Dx\013e\027\232w\b\000`\\\"\274\305\262\013\315<\b\0000.\021\334\202\331\005\007\035\000\000\031\227\bmq\355\202#\016\000\200\214K\004\266\300v\301\021\007\000@\306%\302Zd\273\340\210\003\000 \033\f\272\250\013\273\270\013\274\310\213\t\202\023\006\023\204G\f&\b\316\030L\020\0362\230 <g\000\000#\006\007\000\202`p\006\033\273\377\377\377\017\363\376\377\377?\304\375\377\377\3770cP\000\300[\000\300\210\301\001\200 \030\234\301\266\356\377\377\377\303\274\377\377\377\017p\377\377\377?L\030\000#\006\007\000\202`p\006\233\272\377\377\377\017\362\376\377\377?\304\375\377\377\3770a\000\214\030\034\000\b\202\301\031l\351\376\377\377?\310\373\377\377\377\000\367\377\377\377\303\204\0010bp\000 \b\006g\260\361\376\377\377\377\020\357\377\377\377C\337\377\377\377\0173\006\005\000\270\005\000\214\030\034\000\b\202\301\031l\274\377\377\377?\264\375\377\377\377\340\367\377\377\377\303\214A\001\000\262\000\027\300p\003\221\201\301\214A\021\217\001\035\314B\\\000\263\f\201\020\314\030\024\371\223\310\002\\\000:cPD\302[\000\300@\305S\ft\000\214\030\034\000\b\202\301\031t\352\376\377\377?\254\374\377\377\377\000\372\377\377\377\303\214A\001\000\264 \027\300\210\301\001\200 \030\234A\267\373\377\377\377\003\312\377\377\377\017\240\377\377\377?L\030\000#\006\007\000\202`p\006\235\272\377\377\377\017%\377\377\377?\200\376\377\377\3770cP\000@-\314\0050bp\000 \b\006g\320\355\376\377\377\377 \362\377\377\377\003\350\377\377\377\017\023\006\300\210\301\001\200 \030\234A\247\356\377\377\377\203\274\377\377\377\017\240\377\377\377?\314\030\024\000\320\026\0000bp\000 \b\006g\320\251\373\377\377\377\000\357\377\377\377\003\350\377\377\377\0173\006\005\000\254\005\000\f7\004\004\030\314\030\024O\262\026\0000\313@\f\301\204\001\200\302\006\0013\006E\354\013Z-\314\005\320\233!\351\206\031\203\342\221\326\002\000(\000\302\204\001\320\233!\371\212\031\203\342I\326\002\000\206\r\210@\b\200\t\003`\304\340\000@\020\f\316@\f\306\377\377\377\177\300\367\377\377\377\201\364\377\377\377\207\031\203\002\000\334\002\000F\f\016\000\004\301\340\f\304`\374\377\377\377\007\272\377\377\377\037J\377\377\377\177\2301(\000@\026\340\002\030n \0260\2301(\3421\240\203Y\210\013`\226!\020\202\031\203\"\177\022Y\200\013`\304\340\000@\020\f\316`\f\342\375\377\377\177\210\371\377\377\377\301\364\377\377\377\207\031\203\002\000hA.\200\021\203#\tA0 \0032P\224d\306\240x\222\265\000\000\2360\000\002b\000\000\000\000\003\000\000\000[\004\300-\266\f\221\200\026\000\000\000\000\000\000\000a \000\000\227\000\000\000\023\004C,\020\000\000\000\001\000\000\000$\215\000\000\3610\000\000.\000\000\000\"G\310\220Q\006\004\003\b\000\000\000perf_mot\263\212\240-v\341rf\025A[\354\302\225\314*\002\267\330\205\313\231U\004o\261\013W\261J:xA-\200]\260\352\301\0020\000D`A\027\000\274\000\000\235\007\022\310\020\"CFB_\016l\001\350\374a\210\005\2700.\021\336B\331\005\353\035\002\000\030\227\bo\261\354\2025\017\002\000\214K\004\267`v\341B\007\000@\306%B[\\\273p\211\003\000 \343\022\201-\260]\270\304\001\000\220q\211\260\026\331.\\\342\000\000\310\006C.\346\202.\352\302.\356b\202\340\204\301\004\341\021\203\t\2023\006\023\204\207\f\000\000#\006\007\000\202`p\006\233\273\377\377\377\017\365\376\377\377?\304\375\377\377\3770cP\000\300[\000\300\210\301\001\200 \030\234\301\326\356\377\377\377C\275\377\377\377\017p\377\377\377?L\030\000#\006\007\000\202`p\006\033\273\377\377\377\017\364\376\377\377?\304\375\377\377\3770a\000\214\030\034\000\b\202\301\031l\353\376\377\377?\320\373\377\377\377\000\367\377\377\377\303\204\0010bp\000 \b\006g\260\361\376\377\377\3770\357\377\377\377C\337\377\377\377\0173\006\005\000\270\005\000\214\030\034\000\b\202\301\031l\274\377\377\377?\264\375\377\377\377\340\367\377\377\377\303\214A\001\000\262\000\027\300p\003\221\201\301\214A\021\217\001\035\314B\\\000\263\fB\020\314\030\024\371\223\310\002\\\000\275\031\fM\353\315Pl\333\210\001\202\200 \030La\020\b\0071cPd\315Z\000\300\210\301\001\200 \030\234\201\347\373\377\377\377C\275\377\377\377\017\241\377\377\377?\314\030\024\000\320\026\0000bp\000 \b\006g\340\371\376\377\377\3770\357\377\377\377C\350\377\377\377\0173\006\005\000\254\005\000\214\030\034\000\b\202\301\031x\276\377\377\377?\330\373\377\377\377\000\372\377\377\377\303\214A\001\000n\001\000#\006\007\000\202`p\006\236\357\377\377\377\017p\377\377\377?\204\376\377\377\3770cP\000\200,\300\0050K \314\030\024\234\360\026\000\240\023\006@@\f\000\000\000\002\000\000\000[\004\300-\000\000\000\000\000\000\000\000a \000\000\177\001\000\000\023\004J,\020\000\000\000\002\000\000\0004\332\036\002\266\307\000\000\3610\000\000S\000\000\000\"G\310\220Q\006\204\004\016\000\000\000transformation\000\000\263\212\240-v\341\f\244YE\320\026\273p\006\315\254\"p\213]8\003iV\021\314\305.\234A2\253\b\342b\027\306@\232U\004q\261\013c\320\314*\002\271\330\2051\220f\025\301\\\354\302\030$\253\244\203\027\324\002\330\2050\250\2070\0000\000D`A\027\000\323\000\000\235\007\022\310\020\"CFB\237\201\004[\000z\f$\340\002\320\376\343\021\013u\241C\303b\026\354B\347\017C,\324\205\366\037\217X\240\013\035\032\026\263\220\027:\177\030b\201.\214K\204\271Pv!\f\336!\000\200q\2110\027\313.\204\301<\b\0000.\021\344\202\331\2051@\007\000@\306%B\\\\\2730\006\342\000\000\310\270D\200\013l\027\306@\034\000\000\031\227\bo\221\355\302\030\210\003\000 \343\022\301-\230]8\003t\000\000d\\\"\264\305\265\013g \016\000\200\214K\004\266\300v\341\f\304\001\000\220q\211\260\026\331.\234\2018\000\000\262A\341\213\276\360\213\277\000\215\320\020\215\321 \215\322\230 8a0Ax\304`\202\340\214\301\004\341!\203\t\302\223\006\023\204\007\016\000\000\000\000#\006\007\000\202`p\006\\\270\377\377\377\017\354\376\377\377?\310\375\377\377\3770cP\000\300\\\000\300\210\301\001\200 \030\234\001\007\356\377\377\377\003\273\377\377\377\017q\377\377\377?L\030\000#\006\007\000\202`p\006\334\257\377\377\377\017\353\376\377\377?\310\375\377\377\3770a\000\214\030\034\000\b\202\301\031p\276\376\377\377?\254\373\377\377\377\020\367\377\377\377\303\204\0010\334P\f`0cP\210\0012\027\0000\334`la0cP\000\300\\\000\300,\203\020\b3\006\205\030\024s\001\000#\006\007\000\202`p\006\336\357\377\377\377\017\350\376\377\377?\200\376\377\377\3770cP\000\200[\000\300\210\301\001\200 \030\234\201\367\373\377\377\377\003\334\377\377\377\017\241\377\377\377?\314\030\024\000 \013t\001\3142\024G0cP\344O\"\013t\001\214\030\034\000\b\202\301\031x\277\377\377\377?\260\373\377\377\377\000\372\377\377\377\303\214A\001\000r\001\000#\006\007\000\202`p\006\336\357\377\377\377\017p\377\377\377?\204\376\377\377\3770cP\000\200,\324\0050\3130\034\301\214A\221?\211,\324\0050P\361\024\004\036\b#\006\007\000\202`p\006\037\270\377\377\377\017-\377\377\377?\210\376\377\377\3770cP\000\000-\330\0050bp\000 \b\006g\360\365\376\377\377\377\240\362\377\377\377\203\350\377\377\377\017\023\006\300\210\301\001\200 \030\234\301\007\356\377\377\377\303\311\377\377\377\017\242\377\377\377?\314\030\024\000P\013w\001\214\030\034\000\b\202\301\031|\275\377\377\377?\220\374\377\377\377 \372\377\377\377\303\204\0010bp\000 \b\006g\360\201\373\377\377\377\300\356\377\377\377\203\350\377\377\377\0173\006\005\000\304\005\000\214\030\034\000\b\202\301\031|\340\376\377\377?\250\373\377\377\377 \372\377\377\377\303\214A\001\000o\001\000\303\r\001\002\0063\006\005\0314o\001\000\263\f\b\021L\030\000(t\0200cP\304\276\240\325\302]\000\275\031\226o\2301(\310\300z\013\000\240\000\b\023\006@o\206%\f\212\031\203\202\f\232\267\000\200a\003\"\020\002`\302\000\03018\000\020\004\2033 \203\362\377\377\377\037\344\375\377\377\1770\375\377\377\377a\306\240\000\000\271\000\200\021\203\003\000A08\0032(\377\377\377\377\301\356\377\377\377\207\323\377\377\377\037f\f\n\000\220\205\272\000\206\033\210\006\ff\f\212x\f\350`\026\360\002\230e8\206`\306\240\310\237D\026\352\002\030\250x\n\303\024\202\021\203\003\000A08\00330\367\377\377\377\201\346\377\377\377\207\324\377\377\377\037f\f\n\000\240\205\274\000F\f\016\000\004\301\340\f\314\200\374\377\377\377\207\230\377\377\377\037R\377\377\377\177\2300\000F\f\016\000\004\301\340\f\314\300\334\377\377\377\007\227\377\377\377\037R\377\377\377\177\2301(\000\240\026\364\002\03018\000\020\004\20330\003\362\377\377\377\037V\376\377\377\177H\375\377\377\377a\302\000\03018\000\020\004\20330\003s\377\377\377\037\336\375\377\377\177H\375\377\377\377a\306\240\000\200\266\000\200\021\203\003\000A08\00330\367\377\377\377\241\335\377\377\377\207\324\377\377\377\037f\f\n\000X\013\000\030n\b\0320\2301(\320\240Y\013\000\230eH\214`\302\000@\201\f `\306\240\210}A\253\005\275\000z3Hf0\314\030\024h`\255\005\000P\000\204\t\003\2407\203\204\006\305\214A\201\006\315Z\000\300\260\001\021\b\0010a\000\214\030\034\000\b\202\301\031\254\001\373\377\377\377\017\365\376\377\377?\264\376\377\377\3770cP\000\200[\000\300\210\301\001\200 \030\234\301\032\260\377\377\377\377\320\367\377\377\377\203\353\377\377\377\0173\006\005\000\310\002]\000\303\r\004\005\0063\006E<\006t0\013{\001\3142\034E0cP\344O\"\013t\001\350\214A\261\006\302\\\000\300\210\301\001\200 \030\234\001\033\300\373\377\377\377\240\363\377\377\377\303\353\377\377\377\0173\006\005\000\320\202]\000#\006G\022\202`@\006mPU\322\214AA\006\315[\000\000O\030\000#\006\007\000\202`p\006l\340\356\377\377\377\203\316\377\377\377\017\257\377\377\377?\314\030\024\000@\013y\001\214\030\034I\b\202\001\031\264\3014E3\006\005\0324k\001\000<a\000\004\304\000\000\004\000\000\000[\004@.\266\f\225\200\026[\2063\020\320\002\000\000\000\000\000\241 \000\000\034\000\000\000\243\004\307P\001 \252\000!2\204\210\020!B\304\b\211\032@\210\f!\"D\210\0201BR\016\020\"c\204\304\274 D\206\210\021\022\362\200\020\031BRZ\020\"d\204\212\000 \200\000\b\022\252\000x\000\001\030\022\002\024\312\0008\200\000\b\022\352\000\360\200\001 \022\004\006\024\f\000\025\202\001\013@\005a\000\300\004PA\030\000\260\001T\020\006\000\000\000\000q \000\000\005\000\000\0002\016\020\"\204\004\367\bX\320\237\200\006\333\013x@\317\000\000\213\nw\307Gv`E\261\266=q^\325\330\016\320\3316\355]\000u?>\371\000\000e\f\000\000a\000\000\000\022\003\224\370\002\000\000\000\002\000\000\000<\001\000\000.\000\000\000L\000\000\000\001\000\000\000X\000\000\000\000\000\000\000X\000\000\000\f\000\000\000x\001\000\000\000\000\000\000j\001\000\000\030\000\000\000\202\001\000\000\027\000\000\000'\000\000\000\000\000\000\000x\001\000\000\000\000\000\000\000\000\000\000\f\000\000\000\000\000\000\000\234\000\000\000\n\000\000\000\234\000\000\000\n\000\000\000\377\377\377\377\0004\000\000\246\000\000\000\f\000\000\000\246\000\000\000\f\000\000\000\377\377\377\377\0004\000\000\262\000\000\000\b\000\000\000\262\000\000\000\b\000\000\000\377\377\377\377\0004\000\000\272\000\000\000\016\000\000\000\272\000\000\000\016\000\000\000\377\377\377\377\0004\000\000\310\000\000\000\031\000\000\000\310\000\000\000\031\000\000\000\377\377\377\377\b,\000\000\341\000\000\000\023\000\000\000\341\000\000\000\023\000\000\000\377\377\377\377\b4\000\000\364\000\000\000:\000\000\000\364\000\000\000:\000\000\000\377\377\377\377\b4\000\000.\001\000\000\016\000\000\000.\001\000\000\016\000\000\000\377\377\377\377\b,\000\000\231\001\000\000)\000\000\000\000\000\000\000'\000\000\000\377\377\377\377\000\030\000\000\302\001\000\000)\000\000\000'\000\000\000'\000\000\000\377\377\377\377\000\030\000\000\353\001\000\000)\000\000\000N\000\000\000'\000\000\000\377\377\377\377\000\030\000\000\024\002\000\000)\000\000\000u\000\000\000'\000\000\000\377\377\377\377\000\030\000\000\000\000\000\000]\f\000\000\223\000\000\000\022\003\224}\004\000\000\000anon.d62cc2e2cab8848b43651c01c4572629.0anon.d62cc2e2cab8848b43651c01c4572629.1anon.d62cc2e2cab8848b43651c01c4572629.2anon.d62cc2e2cab8848b43651c01c4572629.3fixed_sizeunknown_sizeperf_mottransformationllvm.memcpy.p0i8.p0i8.i64rust_eh_personality_ZN4core9panicking18panic_bounds_check17h566454b12ba8f623Ellvm.dbg.value9.0.1 3a0b17654ab1f63b7ef1b49c8c3d4d01214c93a4x86_64-unknown-linux-gnuforpaper.5r7vwc02-cgu.0.Lanon.d62cc2e2cab8848b43651c01c4572629.0.Lanon.d62cc2e2cab8848b43651c01c4572629.1.Lanon.d62cc2e2cab8848b43651c01c4572629.2.Lanon.d62cc2e2cab8848b43651c01c4572629.3\000\000\000\000\000\000"
	.size	.Lrustc.embedded.module, 9316

	.type	.Lrustc.embedded.cmdline,@object
	.section	.llvmcmd,"e",@progbits
.Lrustc.embedded.cmdline:
	.size	.Lrustc.embedded.cmdline, 0

	.section	.text.fixed_size,"ax",@progbits
.Lsec_end0:
	.section	.text.unknown_size,"ax",@progbits
.Lsec_end1:
	.section	.text.perf_mot,"ax",@progbits
.Lsec_end2:
	.section	.text.transformation,"ax",@progbits
.Lsec_end3:
	.section	".note.GNU-stack","",@progbits