; ModuleID = 'iterator_bench.5f6e6zhf-cgu.0'
source_filename = "iterator_bench.5f6e6zhf-cgu.0"
target datalayout = "e-m:e-i64:64-f80:128-n8:16:32:64-S128"
target triple = "x86_64-unknown-linux-gnu"

%"core::panic::Location" = type { [0 x i64], { [0 x i8]*, i64 }, [0 x i32], i32, [0 x i32], i32, [0 x i32] }
%"core::iter::adapters::zip::Zip<core::slice::Iter<u16>, core::slice::ChunksMut<u8>>" = type { [0 x i64], { i16*, i16* }, [0 x i64], %"core::slice::ChunksMut<u8>", [0 x i64], i64, [0 x i64], i64, [0 x i64] }
%"core::slice::ChunksMut<u8>" = type { [0 x i64], { [0 x i8]*, i64 }, [0 x i64], i64, [0 x i64] }
%"core::iter::adapters::Take<core::iter::adapters::zip::Zip<core::slice::Iter<u16>, core::slice::ChunksMut<u8>>>" = type { [0 x i64], %"core::iter::adapters::zip::Zip<core::slice::Iter<u16>, core::slice::ChunksMut<u8>>", [0 x i64], i64, [0 x i64] }
%"core::iter::adapters::zip::Zip<core::slice::Iter<u16>, core::slice::ChunksExactMut<u8>>" = type { [0 x i64], { i16*, i16* }, [0 x i64], %"core::slice::ChunksExactMut<u8>", [0 x i64], i64, [0 x i64], i64, [0 x i64] }
%"core::slice::ChunksExactMut<u8>" = type { [0 x i64], { [0 x i8]*, i64 }, [0 x i64], { [0 x i8]*, i64 }, [0 x i64], i64, [0 x i64] }
%"core::iter::adapters::Take<core::iter::adapters::zip::Zip<core::slice::Iter<u16>, core::slice::ChunksExactMut<u8>>>" = type { [0 x i64], %"core::iter::adapters::zip::Zip<core::slice::Iter<u16>, core::slice::ChunksExactMut<u8>>", [0 x i64], i64, [0 x i64] }
%"unwind::libunwind::_Unwind_Exception" = type { [0 x i64], i64, [0 x i64], void (i32, %"unwind::libunwind::_Unwind_Exception"*)*, [0 x i64], [6 x i64], [0 x i64] }
%"unwind::libunwind::_Unwind_Context" = type { [0 x i8] }

@alloc120 = private unnamed_addr constant <{ [10 x i8] }> <{ [10 x i8] c"src/lib.rs" }>, align 1
@alloc63 = private unnamed_addr constant <{ i8*, [16 x i8] }> <{ i8* getelementptr inbounds (<{ [10 x i8] }>, <{ [10 x i8] }>* @alloc120, i32 0, i32 0, i32 0), [16 x i8] c"\0A\00\00\00\00\00\00\00\0C\01\00\00\15\00\00\00" }>, align 8
@alloc65 = private unnamed_addr constant <{ i8*, [16 x i8] }> <{ i8* getelementptr inbounds (<{ [10 x i8] }>, <{ [10 x i8] }>* @alloc120, i32 0, i32 0, i32 0), [16 x i8] c"\0A\00\00\00\00\00\00\00\0D\01\00\00\15\00\00\00" }>, align 8
@alloc69 = private unnamed_addr constant <{ i8*, [16 x i8] }> <{ i8* getelementptr inbounds (<{ [10 x i8] }>, <{ [10 x i8] }>* @alloc120, i32 0, i32 0, i32 0), [16 x i8] c"\0A\00\00\00\00\00\00\00I\01\00\00\15\00\00\00" }>, align 8
@alloc75 = private unnamed_addr constant <{ i8*, [16 x i8] }> <{ i8* getelementptr inbounds (<{ [10 x i8] }>, <{ [10 x i8] }>* @alloc120, i32 0, i32 0, i32 0), [16 x i8] c"\0A\00\00\00\00\00\00\00\83\01\00\00\15\00\00\00" }>, align 8
@alloc77 = private unnamed_addr constant <{ i8*, [16 x i8] }> <{ i8* getelementptr inbounds (<{ [10 x i8] }>, <{ [10 x i8] }>* @alloc120, i32 0, i32 0, i32 0), [16 x i8] c"\0A\00\00\00\00\00\00\00\84\01\00\00\15\00\00\00" }>, align 8
@alloc79 = private unnamed_addr constant <{ i8*, [16 x i8] }> <{ i8* getelementptr inbounds (<{ [10 x i8] }>, <{ [10 x i8] }>* @alloc120, i32 0, i32 0, i32 0), [16 x i8] c"\0A\00\00\00\00\00\00\00\C0\01\00\00\1D\00\00\00" }>, align 8
@alloc81 = private unnamed_addr constant <{ i8*, [16 x i8] }> <{ i8* getelementptr inbounds (<{ [10 x i8] }>, <{ [10 x i8] }>* @alloc120, i32 0, i32 0, i32 0), [16 x i8] c"\0A\00\00\00\00\00\00\00\C1\01\00\00\15\00\00\00" }>, align 8
@alloc83 = private unnamed_addr constant <{ i8*, [16 x i8] }> <{ i8* getelementptr inbounds (<{ [10 x i8] }>, <{ [10 x i8] }>* @alloc120, i32 0, i32 0, i32 0), [16 x i8] c"\0A\00\00\00\00\00\00\00\C2\01\00\00\15\00\00\00" }>, align 8
@alloc93 = private unnamed_addr constant <{ i8*, [16 x i8] }> <{ i8* getelementptr inbounds (<{ [10 x i8] }>, <{ [10 x i8] }>* @alloc120, i32 0, i32 0, i32 0), [16 x i8] c"\0A\00\00\00\00\00\00\00\BC\02\00\00\15\00\00\00" }>, align 8
@alloc97 = private unnamed_addr constant <{ i8*, [16 x i8] }> <{ i8* getelementptr inbounds (<{ [10 x i8] }>, <{ [10 x i8] }>* @alloc120, i32 0, i32 0, i32 0), [16 x i8] c"\0A\00\00\00\00\00\00\00\FA\02\00\00\15\00\00\00" }>, align 8
@alloc99 = private unnamed_addr constant <{ i8*, [16 x i8] }> <{ i8* getelementptr inbounds (<{ [10 x i8] }>, <{ [10 x i8] }>* @alloc120, i32 0, i32 0, i32 0), [16 x i8] c"\0A\00\00\00\00\00\00\00\FB\02\00\00\15\00\00\00" }>, align 8
@alloc101 = private unnamed_addr constant <{ i8*, [16 x i8] }> <{ i8* getelementptr inbounds (<{ [10 x i8] }>, <{ [10 x i8] }>* @alloc120, i32 0, i32 0, i32 0), [16 x i8] c"\0A\00\00\00\00\00\00\002\03\00\00\15\00\00\00" }>, align 8
@alloc103 = private unnamed_addr constant <{ i8*, [16 x i8] }> <{ i8* getelementptr inbounds (<{ [10 x i8] }>, <{ [10 x i8] }>* @alloc120, i32 0, i32 0, i32 0), [16 x i8] c"\0A\00\00\00\00\00\00\003\03\00\00\15\00\00\00" }>, align 8
@alloc105 = private unnamed_addr constant <{ i8*, [16 x i8] }> <{ i8* getelementptr inbounds (<{ [10 x i8] }>, <{ [10 x i8] }>* @alloc120, i32 0, i32 0, i32 0), [16 x i8] c"\0A\00\00\00\00\00\00\00l\03\00\00\15\00\00\00" }>, align 8
@alloc107 = private unnamed_addr constant <{ i8*, [16 x i8] }> <{ i8* getelementptr inbounds (<{ [10 x i8] }>, <{ [10 x i8] }>* @alloc120, i32 0, i32 0, i32 0), [16 x i8] c"\0A\00\00\00\00\00\00\00m\03\00\00\15\00\00\00" }>, align 8

; iterator_bench::optimal_unsafe_impl
; Function Attrs: noinline nounwind nonlazybind uwtable
define void @_ZN14iterator_bench19optimal_unsafe_impl17h43d230ec30bc4b7bE([640000 x i8]* nocapture align 1 dereferenceable(640000) %output, [320000 x i16]* noalias nocapture readonly align 2 dereferenceable(640000) %input) unnamed_addr #0 personality i32 (i32, i32, i64, %"unwind::libunwind::_Unwind_Exception"*, %"unwind::libunwind::_Unwind_Context"*)* @rust_eh_personality !dbg !37 {
start:
  call void @llvm.dbg.value(metadata [640000 x i8]* %output, metadata !52, metadata !DIExpression()), !dbg !72
  call void @llvm.dbg.value(metadata [320000 x i16]* %input, metadata !53, metadata !DIExpression()), !dbg !72
  call void @llvm.dbg.value(metadata { i64, i64 }* undef, metadata !54, metadata !DIExpression(DW_OP_deref)), !dbg !73
  call void @llvm.dbg.value(metadata { i64, i64 }* undef, metadata !74, metadata !DIExpression()), !dbg !103
  br label %vector.body, !dbg !105

vector.body:                                      ; preds = %vector.body, %start
  %index = phi i64 [ 0, %start ], [ %index.next.1, %vector.body ], !dbg !106
  %0 = getelementptr inbounds [320000 x i16], [320000 x i16]* %input, i64 0, i64 %index, !dbg !122
  %1 = bitcast i16* %0 to <8 x i16>*, !dbg !169
  %wide.load = load <8 x i16>, <8 x i16>* %1, align 2, !dbg !169
  %2 = shl nuw i64 %index, 1, !dbg !170
  %3 = trunc <8 x i16> %wide.load to <8 x i8>, !dbg !171
  %4 = lshr <8 x i16> %wide.load, <i16 8, i16 8, i16 8, i16 8, i16 8, i16 8, i16 8, i16 8>, !dbg !172
  %5 = or i64 %2, 1, !dbg !173
  %6 = getelementptr inbounds [640000 x i8], [640000 x i8]* %output, i64 0, i64 %5, !dbg !174
  %7 = trunc <8 x i16> %4 to <8 x i8>, !dbg !216
  %8 = getelementptr inbounds i8, i8* %6, i64 -1, !dbg !174
  %9 = bitcast i8* %8 to <16 x i8>*, !dbg !174
  %interleaved.vec = shufflevector <8 x i8> %3, <8 x i8> %7, <16 x i32> <i32 0, i32 8, i32 1, i32 9, i32 2, i32 10, i32 3, i32 11, i32 4, i32 12, i32 5, i32 13, i32 6, i32 14, i32 7, i32 15>, !dbg !216
  store <16 x i8> %interleaved.vec, <16 x i8>* %9, align 1, !dbg !216
  %index.next = or i64 %index, 8, !dbg !106
  %10 = getelementptr inbounds [320000 x i16], [320000 x i16]* %input, i64 0, i64 %index.next, !dbg !122
  %11 = bitcast i16* %10 to <8 x i16>*, !dbg !169
  %wide.load.1 = load <8 x i16>, <8 x i16>* %11, align 2, !dbg !169
  %12 = shl nuw i64 %index.next, 1, !dbg !170
  %13 = trunc <8 x i16> %wide.load.1 to <8 x i8>, !dbg !171
  %14 = lshr <8 x i16> %wide.load.1, <i16 8, i16 8, i16 8, i16 8, i16 8, i16 8, i16 8, i16 8>, !dbg !172
  %15 = or i64 %12, 1, !dbg !173
  %16 = getelementptr inbounds [640000 x i8], [640000 x i8]* %output, i64 0, i64 %15, !dbg !174
  %17 = trunc <8 x i16> %14 to <8 x i8>, !dbg !216
  %18 = getelementptr inbounds i8, i8* %16, i64 -1, !dbg !174
  %19 = bitcast i8* %18 to <16 x i8>*, !dbg !174
  %interleaved.vec.1 = shufflevector <8 x i8> %13, <8 x i8> %17, <16 x i32> <i32 0, i32 8, i32 1, i32 9, i32 2, i32 10, i32 3, i32 11, i32 4, i32 12, i32 5, i32 13, i32 6, i32 14, i32 7, i32 15>, !dbg !216
  store <16 x i8> %interleaved.vec.1, <16 x i8>* %19, align 1, !dbg !216
  %index.next.1 = add nuw nsw i64 %index, 16, !dbg !106
  %20 = icmp eq i64 %index.next.1, 320000, !dbg !106
  br i1 %20, label %bb5, label %vector.body, !dbg !106, !llvm.loop !217

bb5:                                              ; preds = %vector.body
  ret void, !dbg !219
}

; iterator_bench::c_style_fixed_size_impl
; Function Attrs: noinline nonlazybind uwtable
define void @_ZN14iterator_bench23c_style_fixed_size_impl17h342585e2e19b3e4eE([640000 x i8]* nocapture align 1 dereferenceable(640000) %output, [320000 x i16]* noalias nocapture readonly align 2 dereferenceable(640000) %input) unnamed_addr #1 personality i32 (i32, i32, i64, %"unwind::libunwind::_Unwind_Exception"*, %"unwind::libunwind::_Unwind_Context"*)* @rust_eh_personality !dbg !220 {
start:
  call void @llvm.dbg.value(metadata [640000 x i8]* %output, metadata !222, metadata !DIExpression()), !dbg !234
  call void @llvm.dbg.value(metadata [320000 x i16]* %input, metadata !223, metadata !DIExpression()), !dbg !234
  call void @llvm.dbg.value(metadata { i64, i64 }* undef, metadata !224, metadata !DIExpression(DW_OP_deref)), !dbg !235
  call void @llvm.dbg.value(metadata { i64, i64 }* undef, metadata !74, metadata !DIExpression()), !dbg !236
  br label %vector.body, !dbg !238

vector.body:                                      ; preds = %vector.body, %start
  %index = phi i64 [ 0, %start ], [ %index.next.1, %vector.body ], !dbg !239
  %0 = getelementptr inbounds [320000 x i16], [320000 x i16]* %input, i64 0, i64 %index, !dbg !242
  %1 = bitcast i16* %0 to <8 x i16>*, !dbg !242
  %wide.load = load <8 x i16>, <8 x i16>* %1, align 2, !dbg !242
  %2 = shl nuw i64 %index, 1, !dbg !243
  %3 = trunc <8 x i16> %wide.load to <8 x i8>, !dbg !244
  %4 = or i64 %2, 1, !dbg !245
  %5 = lshr <8 x i16> %wide.load, <i16 8, i16 8, i16 8, i16 8, i16 8, i16 8, i16 8, i16 8>, !dbg !246
  %6 = getelementptr inbounds [640000 x i8], [640000 x i8]* %output, i64 0, i64 %4, !dbg !247
  %7 = trunc <8 x i16> %5 to <8 x i8>, !dbg !247
  %8 = getelementptr inbounds i8, i8* %6, i64 -1, !dbg !247
  %9 = bitcast i8* %8 to <16 x i8>*, !dbg !247
  %interleaved.vec = shufflevector <8 x i8> %3, <8 x i8> %7, <16 x i32> <i32 0, i32 8, i32 1, i32 9, i32 2, i32 10, i32 3, i32 11, i32 4, i32 12, i32 5, i32 13, i32 6, i32 14, i32 7, i32 15>, !dbg !247
  store <16 x i8> %interleaved.vec, <16 x i8>* %9, align 1, !dbg !247
  %index.next = or i64 %index, 8, !dbg !239
  %10 = getelementptr inbounds [320000 x i16], [320000 x i16]* %input, i64 0, i64 %index.next, !dbg !242
  %11 = bitcast i16* %10 to <8 x i16>*, !dbg !242
  %wide.load.1 = load <8 x i16>, <8 x i16>* %11, align 2, !dbg !242
  %12 = shl nuw i64 %index.next, 1, !dbg !243
  %13 = trunc <8 x i16> %wide.load.1 to <8 x i8>, !dbg !244
  %14 = or i64 %12, 1, !dbg !245
  %15 = lshr <8 x i16> %wide.load.1, <i16 8, i16 8, i16 8, i16 8, i16 8, i16 8, i16 8, i16 8>, !dbg !246
  %16 = getelementptr inbounds [640000 x i8], [640000 x i8]* %output, i64 0, i64 %14, !dbg !247
  %17 = trunc <8 x i16> %15 to <8 x i8>, !dbg !247
  %18 = getelementptr inbounds i8, i8* %16, i64 -1, !dbg !247
  %19 = bitcast i8* %18 to <16 x i8>*, !dbg !247
  %interleaved.vec.1 = shufflevector <8 x i8> %13, <8 x i8> %17, <16 x i32> <i32 0, i32 8, i32 1, i32 9, i32 2, i32 10, i32 3, i32 11, i32 4, i32 12, i32 5, i32 13, i32 6, i32 14, i32 7, i32 15>, !dbg !247
  store <16 x i8> %interleaved.vec.1, <16 x i8>* %19, align 1, !dbg !247
  %index.next.1 = add nuw nsw i64 %index, 16, !dbg !239
  %20 = icmp eq i64 %index.next.1, 320000, !dbg !239
  br i1 %20, label %bb5, label %vector.body, !dbg !239, !llvm.loop !248

bb5:                                              ; preds = %vector.body
  ret void, !dbg !249
}

; iterator_bench::c_style_input_size_fixed_impl
; Function Attrs: noinline nonlazybind uwtable
define void @_ZN14iterator_bench29c_style_input_size_fixed_impl17hcfe426a147d1500bE([0 x i8]* nocapture nonnull align 1 %output.0, i64 %output.1, [320000 x i16]* noalias nocapture readonly align 2 dereferenceable(640000) %input) unnamed_addr #1 personality i32 (i32, i32, i64, %"unwind::libunwind::_Unwind_Exception"*, %"unwind::libunwind::_Unwind_Context"*)* @rust_eh_personality !dbg !250 {
start:
  call void @llvm.dbg.value(metadata [0 x i8]* %output.0, metadata !254, metadata !DIExpression(DW_OP_LLVM_fragment, 0, 64)), !dbg !266
  call void @llvm.dbg.value(metadata i64 %output.1, metadata !254, metadata !DIExpression(DW_OP_LLVM_fragment, 64, 64)), !dbg !266
  call void @llvm.dbg.value(metadata [320000 x i16]* %input, metadata !255, metadata !DIExpression()), !dbg !266
  call void @llvm.dbg.value(metadata { i64, i64 }* undef, metadata !256, metadata !DIExpression(DW_OP_deref)), !dbg !267
  call void @llvm.dbg.value(metadata { i64, i64 }* undef, metadata !74, metadata !DIExpression()), !dbg !268
  br label %bb8, !dbg !270

bb5:                                              ; preds = %bb10.1
  ret void, !dbg !271

bb8:                                              ; preds = %bb10.1, %start
  %iter.sroa.0.015 = phi i64 [ 0, %start ], [ %6, %bb10.1 ]
  call void @llvm.dbg.value(metadata i64 %iter.sroa.0.015, metadata !119, metadata !DIExpression()), !dbg !272
  call void @llvm.dbg.value(metadata i64 1, metadata !120, metadata !DIExpression()), !dbg !272
  call void @llvm.dbg.value(metadata i64 %iter.sroa.0.015, metadata !114, metadata !DIExpression()), !dbg !274
  call void @llvm.dbg.value(metadata i64 1, metadata !115, metadata !DIExpression()), !dbg !274
  %0 = or i64 %iter.sroa.0.015, 1, !dbg !276
  call void @llvm.dbg.value(metadata i64 %iter.sroa.0.015, metadata !258, metadata !DIExpression()), !dbg !277
  call void @llvm.dbg.value(metadata i64 %iter.sroa.0.015, metadata !262, metadata !DIExpression()), !dbg !278
  %1 = getelementptr inbounds [320000 x i16], [320000 x i16]* %input, i64 0, i64 %iter.sroa.0.015, !dbg !279
  %b = load i16, i16* %1, align 2, !dbg !279
  call void @llvm.dbg.value(metadata i16 %b, metadata !264, metadata !DIExpression()), !dbg !280
  %_23 = shl nuw i64 %iter.sroa.0.015, 1, !dbg !281
  %_26 = icmp ult i64 %_23, %output.1, !dbg !282
  br i1 %_26, label %bb9, label %panic1, !dbg !282, !prof !283

bb9:                                              ; preds = %bb8
  %2 = getelementptr inbounds [0 x i8], [0 x i8]* %output.0, i64 0, i64 %_23, !dbg !282
  %3 = trunc i16 %b to i8, !dbg !282
  store i8 %3, i8* %2, align 1, !dbg !282
  %_30 = or i64 %_23, 1, !dbg !284
  %_34 = icmp ult i64 %_30, %output.1, !dbg !285
  br i1 %_34, label %bb10, label %panic2, !dbg !285, !prof !283

bb10:                                             ; preds = %bb9
  %_28 = lshr i16 %b, 8, !dbg !286
  %4 = getelementptr inbounds [0 x i8], [0 x i8]* %output.0, i64 0, i64 %_30, !dbg !285
  %5 = trunc i16 %_28 to i8, !dbg !285
  store i8 %5, i8* %4, align 1, !dbg !285
  call void @llvm.dbg.value(metadata { i64, i64 }* undef, metadata !256, metadata !DIExpression(DW_OP_deref)), !dbg !267
  call void @llvm.dbg.value(metadata { i64, i64 }* undef, metadata !74, metadata !DIExpression()), !dbg !268
  call void @llvm.dbg.value(metadata i64 %0, metadata !119, metadata !DIExpression()), !dbg !272
  call void @llvm.dbg.value(metadata i64 1, metadata !120, metadata !DIExpression()), !dbg !272
  call void @llvm.dbg.value(metadata i64 %0, metadata !114, metadata !DIExpression()), !dbg !274
  call void @llvm.dbg.value(metadata i64 1, metadata !115, metadata !DIExpression()), !dbg !274
  %6 = add nuw nsw i64 %iter.sroa.0.015, 2, !dbg !276
  call void @llvm.dbg.value(metadata i64 %0, metadata !258, metadata !DIExpression()), !dbg !277
  call void @llvm.dbg.value(metadata i64 %0, metadata !262, metadata !DIExpression()), !dbg !278
  %7 = getelementptr inbounds [320000 x i16], [320000 x i16]* %input, i64 0, i64 %0, !dbg !279
  %b.1 = load i16, i16* %7, align 2, !dbg !279
  call void @llvm.dbg.value(metadata i16 %b.1, metadata !264, metadata !DIExpression()), !dbg !280
  %_23.1 = shl nuw i64 %0, 1, !dbg !281
  %_26.1 = icmp ult i64 %_23.1, %output.1, !dbg !282
  br i1 %_26.1, label %bb9.1, label %panic1, !dbg !282, !prof !283

panic1:                                           ; preds = %bb10, %bb8
  %_23.lcssa = phi i64 [ %_23, %bb8 ], [ %_23.1, %bb10 ], !dbg !281
; call core::panicking::panic_bounds_check
  tail call void @_ZN4core9panicking18panic_bounds_check17h566454b12ba8f623E(i64 %_23.lcssa, i64 %output.1, %"core::panic::Location"* noalias readonly align 8 dereferenceable(24) bitcast (<{ i8*, [16 x i8] }>* @alloc63 to %"core::panic::Location"*)), !dbg !282
  unreachable, !dbg !282

panic2:                                           ; preds = %bb9.1, %bb9
  %_30.lcssa = phi i64 [ %_30, %bb9 ], [ %_30.1, %bb9.1 ], !dbg !284
; call core::panicking::panic_bounds_check
  tail call void @_ZN4core9panicking18panic_bounds_check17h566454b12ba8f623E(i64 %_30.lcssa, i64 %output.1, %"core::panic::Location"* noalias readonly align 8 dereferenceable(24) bitcast (<{ i8*, [16 x i8] }>* @alloc65 to %"core::panic::Location"*)), !dbg !285
  unreachable, !dbg !285

bb9.1:                                            ; preds = %bb10
  %8 = getelementptr inbounds [0 x i8], [0 x i8]* %output.0, i64 0, i64 %_23.1, !dbg !282
  %9 = trunc i16 %b.1 to i8, !dbg !282
  store i8 %9, i8* %8, align 1, !dbg !282
  %_30.1 = or i64 %_23.1, 1, !dbg !284
  %_34.1 = icmp ult i64 %_30.1, %output.1, !dbg !285
  br i1 %_34.1, label %bb10.1, label %panic2, !dbg !285, !prof !283

bb10.1:                                           ; preds = %bb9.1
  %_28.1 = lshr i16 %b.1, 8, !dbg !286
  %10 = getelementptr inbounds [0 x i8], [0 x i8]* %output.0, i64 0, i64 %_30.1, !dbg !285
  %11 = trunc i16 %_28.1 to i8, !dbg !285
  store i8 %11, i8* %10, align 1, !dbg !285
  call void @llvm.dbg.value(metadata { i64, i64 }* undef, metadata !256, metadata !DIExpression(DW_OP_deref)), !dbg !267
  call void @llvm.dbg.value(metadata { i64, i64 }* undef, metadata !74, metadata !DIExpression()), !dbg !268
  %exitcond.1 = icmp eq i64 %6, 320000, !dbg !287
  br i1 %exitcond.1, label %bb5, label %bb8, !dbg !270
}

; iterator_bench::c_style_output_size_fixed_impl
; Function Attrs: noinline nonlazybind uwtable
define void @_ZN14iterator_bench30c_style_output_size_fixed_impl17hf1905e2e3293ab9bE([640000 x i8]* nocapture align 1 dereferenceable(640000) %output, [0 x i16]* noalias nocapture nonnull readonly align 2 %input.0, i64 %input.1) unnamed_addr #1 personality i32 (i32, i32, i64, %"unwind::libunwind::_Unwind_Exception"*, %"unwind::libunwind::_Unwind_Context"*)* @rust_eh_personality !dbg !299 {
start:
  call void @llvm.dbg.value(metadata [640000 x i8]* %output, metadata !303, metadata !DIExpression()), !dbg !315
  call void @llvm.dbg.value(metadata [0 x i16]* %input.0, metadata !304, metadata !DIExpression(DW_OP_LLVM_fragment, 0, 64)), !dbg !315
  call void @llvm.dbg.value(metadata i64 %input.1, metadata !304, metadata !DIExpression(DW_OP_LLVM_fragment, 64, 64)), !dbg !315
  call void @llvm.dbg.value(metadata { i64, i64 }* undef, metadata !305, metadata !DIExpression(DW_OP_deref)), !dbg !316
  call void @llvm.dbg.value(metadata { i64, i64 }* undef, metadata !74, metadata !DIExpression()), !dbg !317
  %0 = icmp eq i64 %input.1, 0, !dbg !319
  br i1 %0, label %bb5, label %bb8, !dbg !321

bb5:                                              ; preds = %bb10, %start
  ret void, !dbg !322

bb8:                                              ; preds = %start, %bb10
  %iter.sroa.0.015 = phi i64 [ %1, %bb10 ], [ 0, %start ]
  call void @llvm.dbg.value(metadata i64 %iter.sroa.0.015, metadata !119, metadata !DIExpression()), !dbg !323
  call void @llvm.dbg.value(metadata i64 1, metadata !120, metadata !DIExpression()), !dbg !323
  call void @llvm.dbg.value(metadata i64 %iter.sroa.0.015, metadata !114, metadata !DIExpression()), !dbg !325
  call void @llvm.dbg.value(metadata i64 1, metadata !115, metadata !DIExpression()), !dbg !325
  %1 = add nuw nsw i64 %iter.sroa.0.015, 1, !dbg !327
  call void @llvm.dbg.value(metadata i64 %iter.sroa.0.015, metadata !307, metadata !DIExpression()), !dbg !328
  call void @llvm.dbg.value(metadata i64 %iter.sroa.0.015, metadata !311, metadata !DIExpression()), !dbg !329
  %2 = getelementptr inbounds [0 x i16], [0 x i16]* %input.0, i64 0, i64 %iter.sroa.0.015, !dbg !330
  %b = load i16, i16* %2, align 2, !dbg !330
  call void @llvm.dbg.value(metadata i16 %b, metadata !313, metadata !DIExpression()), !dbg !331
  %_22 = shl nuw i64 %iter.sroa.0.015, 1, !dbg !332
  %exitcond = icmp eq i64 %iter.sroa.0.015, 320000, !dbg !333
  br i1 %exitcond, label %panic1, label %bb10, !dbg !333, !prof !334

bb10:                                             ; preds = %bb8
  %3 = getelementptr inbounds [640000 x i8], [640000 x i8]* %output, i64 0, i64 %_22, !dbg !333
  %4 = trunc i16 %b to i8, !dbg !333
  store i8 %4, i8* %3, align 1, !dbg !333
  %_29 = or i64 %_22, 1, !dbg !335
  %_27 = lshr i16 %b, 8, !dbg !336
  %5 = getelementptr inbounds [640000 x i8], [640000 x i8]* %output, i64 0, i64 %_29, !dbg !337
  %6 = trunc i16 %_27 to i8, !dbg !337
  store i8 %6, i8* %5, align 1, !dbg !337
  call void @llvm.dbg.value(metadata { i64, i64 }* undef, metadata !305, metadata !DIExpression(DW_OP_deref)), !dbg !316
  call void @llvm.dbg.value(metadata { i64, i64 }* undef, metadata !74, metadata !DIExpression()), !dbg !317
  %exitcond20 = icmp eq i64 %1, %input.1, !dbg !319
  br i1 %exitcond20, label %bb5, label %bb8, !dbg !321

panic1:                                           ; preds = %bb8
; call core::panicking::panic_bounds_check
  tail call void @_ZN4core9panicking18panic_bounds_check17h566454b12ba8f623E(i64 %_22, i64 640000, %"core::panic::Location"* noalias readonly align 8 dereferenceable(24) bitcast (<{ i8*, [16 x i8] }>* @alloc69 to %"core::panic::Location"*)), !dbg !333
  unreachable, !dbg !333
}

; iterator_bench::c_style_unknown_size_impl
; Function Attrs: noinline nonlazybind uwtable
define void @_ZN14iterator_bench25c_style_unknown_size_impl17ha4507c1657d6df17E([0 x i8]* nocapture nonnull align 1 %output.0, i64 %output.1, [0 x i16]* noalias nocapture nonnull readonly align 2 %input.0, i64 %input.1) unnamed_addr #1 personality i32 (i32, i32, i64, %"unwind::libunwind::_Unwind_Exception"*, %"unwind::libunwind::_Unwind_Context"*)* @rust_eh_personality !dbg !338 {
start:
  call void @llvm.dbg.value(metadata [0 x i8]* %output.0, metadata !342, metadata !DIExpression(DW_OP_LLVM_fragment, 0, 64)), !dbg !354
  call void @llvm.dbg.value(metadata i64 %output.1, metadata !342, metadata !DIExpression(DW_OP_LLVM_fragment, 64, 64)), !dbg !354
  call void @llvm.dbg.value(metadata [0 x i16]* %input.0, metadata !343, metadata !DIExpression(DW_OP_LLVM_fragment, 0, 64)), !dbg !354
  call void @llvm.dbg.value(metadata i64 %input.1, metadata !343, metadata !DIExpression(DW_OP_LLVM_fragment, 64, 64)), !dbg !354
  call void @llvm.dbg.value(metadata { i64, i64 }* undef, metadata !344, metadata !DIExpression(DW_OP_deref)), !dbg !355
  call void @llvm.dbg.value(metadata { i64, i64 }* undef, metadata !74, metadata !DIExpression()), !dbg !356
  %0 = icmp eq i64 %input.1, 0, !dbg !358
  br i1 %0, label %bb5, label %bb8, !dbg !360

bb5:                                              ; preds = %bb10, %start
  ret void, !dbg !361

bb8:                                              ; preds = %start, %bb10
  %iter.sroa.0.015 = phi i64 [ %1, %bb10 ], [ 0, %start ]
  call void @llvm.dbg.value(metadata i64 %iter.sroa.0.015, metadata !119, metadata !DIExpression()), !dbg !362
  call void @llvm.dbg.value(metadata i64 1, metadata !120, metadata !DIExpression()), !dbg !362
  call void @llvm.dbg.value(metadata i64 %iter.sroa.0.015, metadata !114, metadata !DIExpression()), !dbg !364
  call void @llvm.dbg.value(metadata i64 1, metadata !115, metadata !DIExpression()), !dbg !364
  %1 = add nuw i64 %iter.sroa.0.015, 1, !dbg !366
  call void @llvm.dbg.value(metadata i64 %iter.sroa.0.015, metadata !346, metadata !DIExpression()), !dbg !367
  call void @llvm.dbg.value(metadata i64 %iter.sroa.0.015, metadata !350, metadata !DIExpression()), !dbg !368
  %2 = getelementptr inbounds [0 x i16], [0 x i16]* %input.0, i64 0, i64 %iter.sroa.0.015, !dbg !369
  %b = load i16, i16* %2, align 2, !dbg !369
  call void @llvm.dbg.value(metadata i16 %b, metadata !352, metadata !DIExpression()), !dbg !370
  %_22 = shl i64 %iter.sroa.0.015, 1, !dbg !371
  %_25 = icmp ult i64 %_22, %output.1, !dbg !372
  br i1 %_25, label %bb9, label %panic1, !dbg !372, !prof !283

bb9:                                              ; preds = %bb8
  %3 = getelementptr inbounds [0 x i8], [0 x i8]* %output.0, i64 0, i64 %_22, !dbg !372
  %4 = trunc i16 %b to i8, !dbg !372
  store i8 %4, i8* %3, align 1, !dbg !372
  %_29 = or i64 %_22, 1, !dbg !373
  %_33 = icmp ult i64 %_29, %output.1, !dbg !374
  br i1 %_33, label %bb10, label %panic2, !dbg !374, !prof !283

bb10:                                             ; preds = %bb9
  %_27 = lshr i16 %b, 8, !dbg !375
  %5 = getelementptr inbounds [0 x i8], [0 x i8]* %output.0, i64 0, i64 %_29, !dbg !374
  %6 = trunc i16 %_27 to i8, !dbg !374
  store i8 %6, i8* %5, align 1, !dbg !374
  call void @llvm.dbg.value(metadata { i64, i64 }* undef, metadata !344, metadata !DIExpression(DW_OP_deref)), !dbg !355
  call void @llvm.dbg.value(metadata { i64, i64 }* undef, metadata !74, metadata !DIExpression()), !dbg !356
  %exitcond = icmp eq i64 %1, %input.1, !dbg !358
  br i1 %exitcond, label %bb5, label %bb8, !dbg !360

panic1:                                           ; preds = %bb8
; call core::panicking::panic_bounds_check
  tail call void @_ZN4core9panicking18panic_bounds_check17h566454b12ba8f623E(i64 %_22, i64 %output.1, %"core::panic::Location"* noalias readonly align 8 dereferenceable(24) bitcast (<{ i8*, [16 x i8] }>* @alloc75 to %"core::panic::Location"*)), !dbg !372
  unreachable, !dbg !372

panic2:                                           ; preds = %bb9
; call core::panicking::panic_bounds_check
  tail call void @_ZN4core9panicking18panic_bounds_check17h566454b12ba8f623E(i64 %_29, i64 %output.1, %"core::panic::Location"* noalias readonly align 8 dereferenceable(24) bitcast (<{ i8*, [16 x i8] }>* @alloc77 to %"core::panic::Location"*)), !dbg !374
  unreachable, !dbg !374
}

; iterator_bench::c_style_unknown_size_limit_impl
; Function Attrs: noinline nonlazybind uwtable
define void @_ZN14iterator_bench31c_style_unknown_size_limit_impl17h959ca8c4442b3f9cE([0 x i8]* nocapture nonnull align 1 %output.0, i64 %output.1, [0 x i16]* noalias nocapture nonnull readonly align 2 %input.0, i64 %input.1) unnamed_addr #1 personality i32 (i32, i32, i64, %"unwind::libunwind::_Unwind_Exception"*, %"unwind::libunwind::_Unwind_Context"*)* @rust_eh_personality !dbg !376 {
start:
  call void @llvm.dbg.value(metadata [0 x i8]* %output.0, metadata !378, metadata !DIExpression(DW_OP_LLVM_fragment, 0, 64)), !dbg !390
  call void @llvm.dbg.value(metadata i64 %output.1, metadata !378, metadata !DIExpression(DW_OP_LLVM_fragment, 64, 64)), !dbg !390
  call void @llvm.dbg.value(metadata [0 x i16]* %input.0, metadata !379, metadata !DIExpression(DW_OP_LLVM_fragment, 0, 64)), !dbg !390
  call void @llvm.dbg.value(metadata i64 %input.1, metadata !379, metadata !DIExpression(DW_OP_LLVM_fragment, 64, 64)), !dbg !390
  call void @llvm.dbg.value(metadata i64 320000, metadata !391, metadata !DIExpression()), !dbg !395
  call void @llvm.dbg.value(metadata i64 %input.1, metadata !394, metadata !DIExpression()), !dbg !395
  call void @llvm.dbg.value(metadata i64 320000, metadata !397, metadata !DIExpression()), !dbg !404
  call void @llvm.dbg.value(metadata i64 %input.1, metadata !401, metadata !DIExpression()), !dbg !404
  call void @llvm.dbg.value(metadata i64 320000, metadata !406, metadata !DIExpression()), !dbg !418
  call void @llvm.dbg.value(metadata i64 %input.1, metadata !414, metadata !DIExpression()), !dbg !418
  %0 = icmp ugt i64 %input.1, 320000, !dbg !418
  %.0.sroa.speculated.i.i.i = select i1 %0, i64 %input.1, i64 320000, !dbg !418
  call void @llvm.dbg.value(metadata { i64, i64 }* undef, metadata !380, metadata !DIExpression(DW_OP_deref)), !dbg !420
  call void @llvm.dbg.value(metadata { i64, i64 }* undef, metadata !74, metadata !DIExpression()), !dbg !421
  br label %bb8, !dbg !423

bb6:                                              ; preds = %bb11
  ret void, !dbg !424

bb8:                                              ; preds = %start, %bb11
  %iter.sroa.0.018 = phi i64 [ 0, %start ], [ %1, %bb11 ]
  call void @llvm.dbg.value(metadata i64 %iter.sroa.0.018, metadata !119, metadata !DIExpression()), !dbg !425
  call void @llvm.dbg.value(metadata i64 1, metadata !120, metadata !DIExpression()), !dbg !425
  call void @llvm.dbg.value(metadata i64 %iter.sroa.0.018, metadata !114, metadata !DIExpression()), !dbg !427
  call void @llvm.dbg.value(metadata i64 1, metadata !115, metadata !DIExpression()), !dbg !427
  %1 = add nuw i64 %iter.sroa.0.018, 1, !dbg !429
  call void @llvm.dbg.value(metadata i64 %iter.sroa.0.018, metadata !382, metadata !DIExpression()), !dbg !430
  call void @llvm.dbg.value(metadata i64 %iter.sroa.0.018, metadata !386, metadata !DIExpression()), !dbg !431
  %exitcond = icmp eq i64 %iter.sroa.0.018, %input.1, !dbg !432
  br i1 %exitcond, label %panic, label %bb9, !dbg !432, !prof !334

bb9:                                              ; preds = %bb8
  %2 = getelementptr inbounds [0 x i16], [0 x i16]* %input.0, i64 0, i64 %iter.sroa.0.018, !dbg !432
  %b = load i16, i16* %2, align 2, !dbg !432
  call void @llvm.dbg.value(metadata i16 %b, metadata !388, metadata !DIExpression()), !dbg !433
  %_23 = shl i64 %iter.sroa.0.018, 1, !dbg !434
  %_26 = icmp ult i64 %_23, %output.1, !dbg !435
  br i1 %_26, label %bb10, label %panic1, !dbg !435, !prof !283

bb10:                                             ; preds = %bb9
  %3 = getelementptr inbounds [0 x i8], [0 x i8]* %output.0, i64 0, i64 %_23, !dbg !435
  %4 = trunc i16 %b to i8, !dbg !435
  store i8 %4, i8* %3, align 1, !dbg !435
  %_30 = or i64 %_23, 1, !dbg !436
  %_34 = icmp ult i64 %_30, %output.1, !dbg !437
  br i1 %_34, label %bb11, label %panic2, !dbg !437, !prof !283

bb11:                                             ; preds = %bb10
  %_28 = lshr i16 %b, 8, !dbg !438
  %5 = getelementptr inbounds [0 x i8], [0 x i8]* %output.0, i64 0, i64 %_30, !dbg !437
  %6 = trunc i16 %_28 to i8, !dbg !437
  store i8 %6, i8* %5, align 1, !dbg !437
  call void @llvm.dbg.value(metadata { i64, i64 }* undef, metadata !380, metadata !DIExpression(DW_OP_deref)), !dbg !420
  call void @llvm.dbg.value(metadata { i64, i64 }* undef, metadata !74, metadata !DIExpression()), !dbg !421
  %7 = icmp ult i64 %1, %.0.sroa.speculated.i.i.i, !dbg !439
  br i1 %7, label %bb8, label %bb6, !dbg !423

panic:                                            ; preds = %bb8
  call void @llvm.dbg.value(metadata i64 %input.1, metadata !119, metadata !DIExpression()), !dbg !425
; call core::panicking::panic_bounds_check
  tail call void @_ZN4core9panicking18panic_bounds_check17h566454b12ba8f623E(i64 %input.1, i64 %input.1, %"core::panic::Location"* noalias readonly align 8 dereferenceable(24) bitcast (<{ i8*, [16 x i8] }>* @alloc79 to %"core::panic::Location"*)), !dbg !432
  unreachable, !dbg !432

panic1:                                           ; preds = %bb9
; call core::panicking::panic_bounds_check
  tail call void @_ZN4core9panicking18panic_bounds_check17h566454b12ba8f623E(i64 %_23, i64 %output.1, %"core::panic::Location"* noalias readonly align 8 dereferenceable(24) bitcast (<{ i8*, [16 x i8] }>* @alloc81 to %"core::panic::Location"*)), !dbg !435
  unreachable, !dbg !435

panic2:                                           ; preds = %bb10
; call core::panicking::panic_bounds_check
  tail call void @_ZN4core9panicking18panic_bounds_check17h566454b12ba8f623E(i64 %_30, i64 %output.1, %"core::panic::Location"* noalias readonly align 8 dereferenceable(24) bitcast (<{ i8*, [16 x i8] }>* @alloc83 to %"core::panic::Location"*)), !dbg !437
  unreachable, !dbg !437
}

; iterator_bench::zip_chunks_fixed_size_impl
; Function Attrs: noinline nonlazybind uwtable
define void @_ZN14iterator_bench26zip_chunks_fixed_size_impl17ha62eecc2e2c38aabE([640000 x i8]* align 1 dereferenceable(640000) %output, [320000 x i16]* noalias readonly align 2 dereferenceable(640000) %input) unnamed_addr #1 personality i32 (i32, i32, i64, %"unwind::libunwind::_Unwind_Exception"*, %"unwind::libunwind::_Unwind_Context"*)* @rust_eh_personality !dbg !441 {
_ZN4core4iter6traits8iterator8Iterator3zip17h4af0dced40c2956aE.exit:
  call void @llvm.dbg.value(metadata [640000 x i8]* %output, metadata !443, metadata !DIExpression()), !dbg !486
  call void @llvm.dbg.value(metadata [320000 x i16]* %input, metadata !444, metadata !DIExpression()), !dbg !486
  call void @llvm.dbg.value(metadata %"core::iter::adapters::zip::Zip<core::slice::Iter<u16>, core::slice::ChunksMut<u8>>"* undef, metadata !445, metadata !DIExpression(DW_OP_deref)), !dbg !487
  call void @llvm.dbg.value(metadata %"core::iter::adapters::zip::Zip<core::slice::Iter<u16>, core::slice::ChunksMut<u8>>"* undef, metadata !488, metadata !DIExpression()) #5, !dbg !508
  call void @llvm.dbg.value(metadata %"core::iter::adapters::zip::Zip<core::slice::Iter<u16>, core::slice::ChunksMut<u8>>"* undef, metadata !510, metadata !DIExpression()) #5, !dbg !515
  br label %vector.body, !dbg !517

vector.body:                                      ; preds = %vector.body, %_ZN4core4iter6traits8iterator8Iterator3zip17h4af0dced40c2956aE.exit
  %index = phi i64 [ 0, %_ZN4core4iter6traits8iterator8Iterator3zip17h4af0dced40c2956aE.exit ], [ %index.next.1, %vector.body ], !dbg !518
  %0 = getelementptr inbounds [320000 x i16], [320000 x i16]* %input, i64 0, i64 %index, !dbg !519
  %1 = shl nuw i64 %index, 1, !dbg !543
  %2 = getelementptr inbounds [640000 x i8], [640000 x i8]* %output, i64 0, i64 %1, !dbg !558
  %3 = bitcast i16* %0 to <8 x i16>*, !dbg !561
  %wide.load = load <8 x i16>, <8 x i16>* %3, align 2, !dbg !561
  %4 = trunc <8 x i16> %wide.load to <8 x i8>, !dbg !562
  %5 = lshr <8 x i16> %wide.load, <i16 8, i16 8, i16 8, i16 8, i16 8, i16 8, i16 8, i16 8>, !dbg !563
  %6 = trunc <8 x i16> %5 to <8 x i8>, !dbg !564
  %7 = bitcast i8* %2 to <16 x i8>*, !dbg !564
  %interleaved.vec = shufflevector <8 x i8> %4, <8 x i8> %6, <16 x i32> <i32 0, i32 8, i32 1, i32 9, i32 2, i32 10, i32 3, i32 11, i32 4, i32 12, i32 5, i32 13, i32 6, i32 14, i32 7, i32 15>, !dbg !564
  store <16 x i8> %interleaved.vec, <16 x i8>* %7, align 1, !dbg !564
  %index.next = or i64 %index, 8, !dbg !518
  %8 = getelementptr inbounds [320000 x i16], [320000 x i16]* %input, i64 0, i64 %index.next, !dbg !519
  %9 = shl nuw i64 %index.next, 1, !dbg !543
  %10 = getelementptr inbounds [640000 x i8], [640000 x i8]* %output, i64 0, i64 %9, !dbg !558
  %11 = bitcast i16* %8 to <8 x i16>*, !dbg !561
  %wide.load.1 = load <8 x i16>, <8 x i16>* %11, align 2, !dbg !561
  %12 = trunc <8 x i16> %wide.load.1 to <8 x i8>, !dbg !562
  %13 = lshr <8 x i16> %wide.load.1, <i16 8, i16 8, i16 8, i16 8, i16 8, i16 8, i16 8, i16 8>, !dbg !563
  %14 = trunc <8 x i16> %13 to <8 x i8>, !dbg !564
  %15 = bitcast i8* %10 to <16 x i8>*, !dbg !564
  %interleaved.vec.1 = shufflevector <8 x i8> %12, <8 x i8> %14, <16 x i32> <i32 0, i32 8, i32 1, i32 9, i32 2, i32 10, i32 3, i32 11, i32 4, i32 12, i32 5, i32 13, i32 6, i32 14, i32 7, i32 15>, !dbg !564
  store <16 x i8> %interleaved.vec.1, <16 x i8>* %15, align 1, !dbg !564
  %index.next.1 = add nuw nsw i64 %index, 16, !dbg !518
  %16 = icmp eq i64 %index.next.1, 320000, !dbg !518
  br i1 %16, label %bb7, label %vector.body, !dbg !518, !llvm.loop !565

bb7:                                              ; preds = %vector.body
  ret void, !dbg !566
}

; iterator_bench::zip_chunks_fixed_size_take_impl
; Function Attrs: noinline nonlazybind uwtable
define void @_ZN14iterator_bench31zip_chunks_fixed_size_take_impl17hd453fdeb726d293dE([640000 x i8]* align 1 dereferenceable(640000) %output, [320000 x i16]* noalias readonly align 2 dereferenceable(640000) %input) unnamed_addr #1 personality i32 (i32, i32, i64, %"unwind::libunwind::_Unwind_Exception"*, %"unwind::libunwind::_Unwind_Context"*)* @rust_eh_personality !dbg !567 {
_ZN4core4iter6traits8iterator8Iterator3zip17h4af0dced40c2956aE.exit:
  call void @llvm.dbg.value(metadata [640000 x i8]* %output, metadata !569, metadata !DIExpression()), !dbg !586
  call void @llvm.dbg.value(metadata [320000 x i16]* %input, metadata !570, metadata !DIExpression()), !dbg !586
  call void @llvm.dbg.value(metadata %"core::iter::adapters::Take<core::iter::adapters::zip::Zip<core::slice::Iter<u16>, core::slice::ChunksMut<u8>>>"* undef, metadata !571, metadata !DIExpression(DW_OP_deref)), !dbg !587
  call void @llvm.dbg.value(metadata %"core::iter::adapters::Take<core::iter::adapters::zip::Zip<core::slice::Iter<u16>, core::slice::ChunksMut<u8>>>"* undef, metadata !588, metadata !DIExpression()) #5, !dbg !596
  br label %vector.body, !dbg !598

vector.body:                                      ; preds = %vector.body, %_ZN4core4iter6traits8iterator8Iterator3zip17h4af0dced40c2956aE.exit
  %index = phi i64 [ 0, %_ZN4core4iter6traits8iterator8Iterator3zip17h4af0dced40c2956aE.exit ], [ %index.next.1, %vector.body ], !dbg !599
  %0 = getelementptr inbounds [320000 x i16], [320000 x i16]* %input, i64 0, i64 %index, !dbg !602
  %1 = shl nuw i64 %index, 1, !dbg !606
  %2 = getelementptr inbounds [640000 x i8], [640000 x i8]* %output, i64 0, i64 %1, !dbg !608
  %3 = bitcast i16* %0 to <8 x i16>*, !dbg !611
  %wide.load = load <8 x i16>, <8 x i16>* %3, align 2, !dbg !611
  %4 = trunc <8 x i16> %wide.load to <8 x i8>, !dbg !612
  %5 = lshr <8 x i16> %wide.load, <i16 8, i16 8, i16 8, i16 8, i16 8, i16 8, i16 8, i16 8>, !dbg !613
  %6 = trunc <8 x i16> %5 to <8 x i8>, !dbg !614
  %7 = bitcast i8* %2 to <16 x i8>*, !dbg !614
  %interleaved.vec = shufflevector <8 x i8> %4, <8 x i8> %6, <16 x i32> <i32 0, i32 8, i32 1, i32 9, i32 2, i32 10, i32 3, i32 11, i32 4, i32 12, i32 5, i32 13, i32 6, i32 14, i32 7, i32 15>, !dbg !614
  store <16 x i8> %interleaved.vec, <16 x i8>* %7, align 1, !dbg !614
  %index.next = or i64 %index, 8, !dbg !599
  %8 = getelementptr inbounds [320000 x i16], [320000 x i16]* %input, i64 0, i64 %index.next, !dbg !602
  %9 = shl nuw i64 %index.next, 1, !dbg !606
  %10 = getelementptr inbounds [640000 x i8], [640000 x i8]* %output, i64 0, i64 %9, !dbg !608
  %11 = bitcast i16* %8 to <8 x i16>*, !dbg !611
  %wide.load.1 = load <8 x i16>, <8 x i16>* %11, align 2, !dbg !611
  %12 = trunc <8 x i16> %wide.load.1 to <8 x i8>, !dbg !612
  %13 = lshr <8 x i16> %wide.load.1, <i16 8, i16 8, i16 8, i16 8, i16 8, i16 8, i16 8, i16 8>, !dbg !613
  %14 = trunc <8 x i16> %13 to <8 x i8>, !dbg !614
  %15 = bitcast i8* %10 to <16 x i8>*, !dbg !614
  %interleaved.vec.1 = shufflevector <8 x i8> %12, <8 x i8> %14, <16 x i32> <i32 0, i32 8, i32 1, i32 9, i32 2, i32 10, i32 3, i32 11, i32 4, i32 12, i32 5, i32 13, i32 6, i32 14, i32 7, i32 15>, !dbg !614
  store <16 x i8> %interleaved.vec.1, <16 x i8>* %15, align 1, !dbg !614
  %index.next.1 = add nuw nsw i64 %index, 16, !dbg !599
  %16 = icmp eq i64 %index.next.1, 320000, !dbg !599
  br i1 %16, label %bb8, label %vector.body, !dbg !599, !llvm.loop !615

bb8:                                              ; preds = %vector.body
  ret void, !dbg !616
}

; iterator_bench::zip_chunks_fixed_size_take_iter_impl
; Function Attrs: noinline nonlazybind uwtable
define void @_ZN14iterator_bench36zip_chunks_fixed_size_take_iter_impl17hcfee63b3af005a98E([640000 x i8]* align 1 dereferenceable(640000) %output, [320000 x i16]* noalias readonly align 2 dereferenceable(640000) %input) unnamed_addr #1 personality i32 (i32, i32, i64, %"unwind::libunwind::_Unwind_Exception"*, %"unwind::libunwind::_Unwind_Context"*)* @rust_eh_personality !dbg !617 {
_ZN4core4iter6traits8iterator8Iterator3zip17h4af0dced40c2956aE.exit:
  call void @llvm.dbg.value(metadata [640000 x i8]* %output, metadata !619, metadata !DIExpression()), !dbg !651
  call void @llvm.dbg.value(metadata [320000 x i16]* %input, metadata !620, metadata !DIExpression()), !dbg !651
  call void @llvm.dbg.value(metadata %"core::iter::adapters::Take<core::iter::adapters::zip::Zip<core::slice::Iter<u16>, core::slice::ChunksMut<u8>>>"* undef, metadata !621, metadata !DIExpression(DW_OP_deref)), !dbg !652
  call void @llvm.dbg.value(metadata %"core::iter::adapters::Take<core::iter::adapters::zip::Zip<core::slice::Iter<u16>, core::slice::ChunksMut<u8>>>"* undef, metadata !588, metadata !DIExpression()) #5, !dbg !653
  br label %bb17.preheader, !dbg !655

bb8:                                              ; preds = %bb17.preheader
  ret void, !dbg !656

bb17.preheader:                                   ; preds = %bb17.preheader, %_ZN4core4iter6traits8iterator8Iterator3zip17h4af0dced40c2956aE.exit
  %iter.sroa.16.0116 = phi i64 [ 320000, %_ZN4core4iter6traits8iterator8Iterator3zip17h4af0dced40c2956aE.exit ], [ %7, %bb17.preheader ]
  %iter.sroa.11.0115 = phi i64 [ 0, %_ZN4core4iter6traits8iterator8Iterator3zip17h4af0dced40c2956aE.exit ], [ %10, %bb17.preheader ]
  call void @llvm.dbg.value(metadata %"core::iter::adapters::Take<core::iter::adapters::zip::Zip<core::slice::Iter<u16>, core::slice::ChunksMut<u8>>>"* undef, metadata !488, metadata !DIExpression()) #5, !dbg !657
  call void @llvm.dbg.value(metadata %"core::iter::adapters::Take<core::iter::adapters::zip::Zip<core::slice::Iter<u16>, core::slice::ChunksMut<u8>>>"* undef, metadata !510, metadata !DIExpression()) #5, !dbg !659
  call void @llvm.dbg.value(metadata %"core::iter::adapters::Take<core::iter::adapters::zip::Zip<core::slice::Iter<u16>, core::slice::ChunksMut<u8>>>"* undef, metadata !488, metadata !DIExpression()) #5, !dbg !657
  call void @llvm.dbg.value(metadata %"core::iter::adapters::Take<core::iter::adapters::zip::Zip<core::slice::Iter<u16>, core::slice::ChunksMut<u8>>>"* undef, metadata !510, metadata !DIExpression()) #5, !dbg !659
  call void @llvm.dbg.value(metadata i64 %iter.sroa.11.0115, metadata !513, metadata !DIExpression()) #5, !dbg !661
  %0 = or i64 %iter.sroa.11.0115, 1, !dbg !662
  call void @llvm.dbg.value(metadata i64 %iter.sroa.11.0115, metadata !541, metadata !DIExpression()) #5, !dbg !663
  call void @llvm.dbg.value(metadata [320000 x i16]* %input, metadata !532, metadata !DIExpression()) #5, !dbg !665
  call void @llvm.dbg.value(metadata i64 %iter.sroa.11.0115, metadata !533, metadata !DIExpression()) #5, !dbg !665
  call void @llvm.dbg.value(metadata [320000 x i16]* %input, metadata !525, metadata !DIExpression()) #5, !dbg !667
  call void @llvm.dbg.value(metadata i64 %iter.sroa.11.0115, metadata !526, metadata !DIExpression()) #5, !dbg !667
  call void @llvm.dbg.value(metadata %"core::slice::ChunksMut<u8>"* undef, metadata !549, metadata !DIExpression()) #5, !dbg !669
  call void @llvm.dbg.value(metadata i64 %iter.sroa.11.0115, metadata !550, metadata !DIExpression()) #5, !dbg !669
  %start1.i.i.i.i = shl nuw i64 %iter.sroa.11.0115, 1, !dbg !671
  call void @llvm.dbg.value(metadata i64 %start1.i.i.i.i, metadata !551, metadata !DIExpression()) #5, !dbg !672
  call void @llvm.dbg.value(metadata i64 %start1.i.i.i.i, metadata !553, metadata !DIExpression(DW_OP_plus_uconst, 2, DW_OP_stack_value)) #5, !dbg !673
  call void @llvm.dbg.value(metadata [640000 x i8]* %output, metadata !192, metadata !DIExpression()) #5, !dbg !674
  call void @llvm.dbg.value(metadata i64 %start1.i.i.i.i, metadata !193, metadata !DIExpression()) #5, !dbg !674
  call void @llvm.dbg.value(metadata [640000 x i8]* %output, metadata !183, metadata !DIExpression()) #5, !dbg !676
  call void @llvm.dbg.value(metadata i64 %start1.i.i.i.i, metadata !184, metadata !DIExpression()) #5, !dbg !676
  call void @llvm.dbg.value(metadata i16* undef, metadata !623, metadata !DIExpression(DW_OP_LLVM_fragment, 0, 64)), !dbg !678
  call void @llvm.dbg.value(metadata i8* undef, metadata !623, metadata !DIExpression(DW_OP_LLVM_fragment, 64, 64)), !dbg !678
  call void @llvm.dbg.value(metadata i8* undef, metadata !629, metadata !DIExpression(DW_OP_LLVM_fragment, 0, 64)), !dbg !679
  call void @llvm.dbg.value(metadata i16 undef, metadata !627, metadata !DIExpression()), !dbg !679
  call void @llvm.dbg.value(metadata i16 undef, metadata !630, metadata !DIExpression()), !dbg !680
  call void @llvm.dbg.value(metadata i8* undef, metadata !681, metadata !DIExpression(DW_OP_LLVM_fragment, 0, 64)), !dbg !690
  call void @llvm.dbg.value(metadata i8* undef, metadata !686, metadata !DIExpression()), !dbg !692
  call void @llvm.dbg.value(metadata i8* undef, metadata !192, metadata !DIExpression()), !dbg !693
  call void @llvm.dbg.value(metadata i8* undef, metadata !183, metadata !DIExpression()), !dbg !695
  call void @llvm.dbg.value(metadata i16 undef, metadata !630, metadata !DIExpression()), !dbg !680
  call void @llvm.dbg.value(metadata { i8*, i8* }* undef, metadata !632, metadata !DIExpression(DW_OP_deref)), !dbg !697
  call void @llvm.dbg.value(metadata { i8*, i8* }* undef, metadata !698, metadata !DIExpression()), !dbg !714
  %1 = getelementptr inbounds [320000 x i16], [320000 x i16]* %input, i64 0, i64 %iter.sroa.11.0115, !dbg !716
  call void @llvm.dbg.value(metadata i16* %1, metadata !623, metadata !DIExpression(DW_OP_LLVM_fragment, 0, 64)), !dbg !678
  %b = load i16, i16* %1, align 2, !dbg !717
  call void @llvm.dbg.value(metadata i16 %b, metadata !627, metadata !DIExpression()), !dbg !679
  call void @llvm.dbg.value(metadata i16 %b, metadata !630, metadata !DIExpression()), !dbg !680
  call void @llvm.dbg.value(metadata i16 %b, metadata !630, metadata !DIExpression()), !dbg !680
  %2 = getelementptr inbounds [640000 x i8], [640000 x i8]* %output, i64 0, i64 %start1.i.i.i.i, !dbg !718
  call void @llvm.dbg.value(metadata i8* %2, metadata !686, metadata !DIExpression()), !dbg !692
  call void @llvm.dbg.value(metadata i8* %2, metadata !192, metadata !DIExpression()), !dbg !693
  call void @llvm.dbg.value(metadata i8* %2, metadata !183, metadata !DIExpression()), !dbg !695
  call void @llvm.dbg.value(metadata i8* %2, metadata !681, metadata !DIExpression(DW_OP_LLVM_fragment, 0, 64)), !dbg !690
  call void @llvm.dbg.value(metadata i8* %2, metadata !629, metadata !DIExpression(DW_OP_LLVM_fragment, 0, 64)), !dbg !679
  call void @llvm.dbg.value(metadata i8* %2, metadata !623, metadata !DIExpression(DW_OP_LLVM_fragment, 64, 64)), !dbg !678
  call void @llvm.dbg.value(metadata i16 %b, metadata !630, metadata !DIExpression()), !dbg !680
  call void @llvm.dbg.value(metadata { i8*, i8* }* undef, metadata !719, metadata !DIExpression()), !dbg !727
  call void @llvm.dbg.value(metadata i64 1, metadata !724, metadata !DIExpression()), !dbg !727
  call void @llvm.dbg.value(metadata i8* %2, metadata !725, metadata !DIExpression()), !dbg !729
  call void @llvm.dbg.value(metadata i8* %2, metadata !183, metadata !DIExpression()), !dbg !730
  call void @llvm.dbg.value(metadata i64 1, metadata !184, metadata !DIExpression()), !dbg !730
  %3 = getelementptr inbounds i8, i8* %2, i64 1, !dbg !732
  call void @llvm.dbg.value(metadata i8* %2, metadata !645, metadata !DIExpression()), !dbg !733
  call void @llvm.dbg.value(metadata i8* %2, metadata !649, metadata !DIExpression()), !dbg !734
  %4 = trunc i16 %b to i8, !dbg !735
  store i8 %4, i8* %2, align 1, !dbg !735
  %5 = lshr i16 %b, 8, !dbg !736
  call void @llvm.dbg.value(metadata i16 %5, metadata !630, metadata !DIExpression()), !dbg !680
  call void @llvm.dbg.value(metadata { i8*, i8* }* undef, metadata !632, metadata !DIExpression(DW_OP_deref)), !dbg !697
  call void @llvm.dbg.value(metadata { i8*, i8* }* undef, metadata !698, metadata !DIExpression()), !dbg !714
  call void @llvm.dbg.value(metadata i16 %5, metadata !630, metadata !DIExpression()), !dbg !680
  call void @llvm.dbg.value(metadata { i8*, i8* }* undef, metadata !719, metadata !DIExpression()), !dbg !727
  call void @llvm.dbg.value(metadata i64 1, metadata !724, metadata !DIExpression()), !dbg !727
  call void @llvm.dbg.value(metadata i8* %3, metadata !725, metadata !DIExpression()), !dbg !729
  call void @llvm.dbg.value(metadata i8* %3, metadata !183, metadata !DIExpression()), !dbg !730
  call void @llvm.dbg.value(metadata i64 1, metadata !184, metadata !DIExpression()), !dbg !730
  call void @llvm.dbg.value(metadata i8* %3, metadata !645, metadata !DIExpression()), !dbg !733
  call void @llvm.dbg.value(metadata i8* %3, metadata !649, metadata !DIExpression()), !dbg !734
  %6 = trunc i16 %5 to i8, !dbg !735
  store i8 %6, i8* %3, align 1, !dbg !735
  call void @llvm.dbg.value(metadata i16 0, metadata !630, metadata !DIExpression()), !dbg !680
  call void @llvm.dbg.value(metadata { i8*, i8* }* undef, metadata !632, metadata !DIExpression(DW_OP_deref)), !dbg !697
  call void @llvm.dbg.value(metadata { i8*, i8* }* undef, metadata !698, metadata !DIExpression()), !dbg !714
  call void @llvm.dbg.value(metadata %"core::iter::adapters::Take<core::iter::adapters::zip::Zip<core::slice::Iter<u16>, core::slice::ChunksMut<u8>>>"* undef, metadata !621, metadata !DIExpression(DW_OP_deref)), !dbg !652
  call void @llvm.dbg.value(metadata %"core::iter::adapters::Take<core::iter::adapters::zip::Zip<core::slice::Iter<u16>, core::slice::ChunksMut<u8>>>"* undef, metadata !588, metadata !DIExpression()) #5, !dbg !653
  %7 = add nsw i64 %iter.sroa.16.0116, -2, !dbg !737
  call void @llvm.dbg.value(metadata %"core::iter::adapters::Take<core::iter::adapters::zip::Zip<core::slice::Iter<u16>, core::slice::ChunksMut<u8>>>"* undef, metadata !488, metadata !DIExpression()) #5, !dbg !657
  call void @llvm.dbg.value(metadata %"core::iter::adapters::Take<core::iter::adapters::zip::Zip<core::slice::Iter<u16>, core::slice::ChunksMut<u8>>>"* undef, metadata !510, metadata !DIExpression()) #5, !dbg !659
  call void @llvm.dbg.value(metadata %"core::iter::adapters::Take<core::iter::adapters::zip::Zip<core::slice::Iter<u16>, core::slice::ChunksMut<u8>>>"* undef, metadata !488, metadata !DIExpression()) #5, !dbg !657
  call void @llvm.dbg.value(metadata %"core::iter::adapters::Take<core::iter::adapters::zip::Zip<core::slice::Iter<u16>, core::slice::ChunksMut<u8>>>"* undef, metadata !510, metadata !DIExpression()) #5, !dbg !659
  call void @llvm.dbg.value(metadata i64 %0, metadata !513, metadata !DIExpression()) #5, !dbg !661
  call void @llvm.dbg.value(metadata i64 %0, metadata !541, metadata !DIExpression()) #5, !dbg !663
  call void @llvm.dbg.value(metadata [320000 x i16]* %input, metadata !532, metadata !DIExpression()) #5, !dbg !665
  call void @llvm.dbg.value(metadata i64 %0, metadata !533, metadata !DIExpression()) #5, !dbg !665
  call void @llvm.dbg.value(metadata [320000 x i16]* %input, metadata !525, metadata !DIExpression()) #5, !dbg !667
  call void @llvm.dbg.value(metadata i64 %0, metadata !526, metadata !DIExpression()) #5, !dbg !667
  call void @llvm.dbg.value(metadata %"core::slice::ChunksMut<u8>"* undef, metadata !549, metadata !DIExpression()) #5, !dbg !669
  call void @llvm.dbg.value(metadata i64 %0, metadata !550, metadata !DIExpression()) #5, !dbg !669
  %start1.i.i.i.i.1 = shl nuw i64 %0, 1, !dbg !671
  call void @llvm.dbg.value(metadata i64 %start1.i.i.i.i.1, metadata !551, metadata !DIExpression()) #5, !dbg !672
  call void @llvm.dbg.value(metadata i64 %start1.i.i.i.i.1, metadata !553, metadata !DIExpression(DW_OP_plus_uconst, 2, DW_OP_stack_value)) #5, !dbg !673
  call void @llvm.dbg.value(metadata [640000 x i8]* %output, metadata !192, metadata !DIExpression()) #5, !dbg !674
  call void @llvm.dbg.value(metadata i64 %start1.i.i.i.i.1, metadata !193, metadata !DIExpression()) #5, !dbg !674
  call void @llvm.dbg.value(metadata [640000 x i8]* %output, metadata !183, metadata !DIExpression()) #5, !dbg !676
  call void @llvm.dbg.value(metadata i64 %start1.i.i.i.i.1, metadata !184, metadata !DIExpression()) #5, !dbg !676
  call void @llvm.dbg.value(metadata i16* undef, metadata !623, metadata !DIExpression(DW_OP_LLVM_fragment, 0, 64)), !dbg !678
  call void @llvm.dbg.value(metadata i8* undef, metadata !623, metadata !DIExpression(DW_OP_LLVM_fragment, 64, 64)), !dbg !678
  call void @llvm.dbg.value(metadata i8* undef, metadata !629, metadata !DIExpression(DW_OP_LLVM_fragment, 0, 64)), !dbg !679
  call void @llvm.dbg.value(metadata i16 undef, metadata !627, metadata !DIExpression()), !dbg !679
  call void @llvm.dbg.value(metadata i16 undef, metadata !630, metadata !DIExpression()), !dbg !680
  call void @llvm.dbg.value(metadata i8* undef, metadata !681, metadata !DIExpression(DW_OP_LLVM_fragment, 0, 64)), !dbg !690
  call void @llvm.dbg.value(metadata i8* undef, metadata !686, metadata !DIExpression()), !dbg !692
  call void @llvm.dbg.value(metadata i8* undef, metadata !192, metadata !DIExpression()), !dbg !693
  call void @llvm.dbg.value(metadata i8* undef, metadata !183, metadata !DIExpression()), !dbg !695
  call void @llvm.dbg.value(metadata i16 undef, metadata !630, metadata !DIExpression()), !dbg !680
  call void @llvm.dbg.value(metadata { i8*, i8* }* undef, metadata !632, metadata !DIExpression(DW_OP_deref)), !dbg !697
  call void @llvm.dbg.value(metadata { i8*, i8* }* undef, metadata !698, metadata !DIExpression()), !dbg !714
  %8 = getelementptr inbounds [320000 x i16], [320000 x i16]* %input, i64 0, i64 %0, !dbg !716
  call void @llvm.dbg.value(metadata i16* %8, metadata !623, metadata !DIExpression(DW_OP_LLVM_fragment, 0, 64)), !dbg !678
  %b.1 = load i16, i16* %8, align 2, !dbg !717
  call void @llvm.dbg.value(metadata i16 %b.1, metadata !627, metadata !DIExpression()), !dbg !679
  call void @llvm.dbg.value(metadata i16 %b.1, metadata !630, metadata !DIExpression()), !dbg !680
  call void @llvm.dbg.value(metadata i16 %b.1, metadata !630, metadata !DIExpression()), !dbg !680
  %9 = getelementptr inbounds [640000 x i8], [640000 x i8]* %output, i64 0, i64 %start1.i.i.i.i.1, !dbg !718
  call void @llvm.dbg.value(metadata i8* %9, metadata !686, metadata !DIExpression()), !dbg !692
  call void @llvm.dbg.value(metadata i8* %9, metadata !192, metadata !DIExpression()), !dbg !693
  call void @llvm.dbg.value(metadata i8* %9, metadata !183, metadata !DIExpression()), !dbg !695
  call void @llvm.dbg.value(metadata i8* %9, metadata !681, metadata !DIExpression(DW_OP_LLVM_fragment, 0, 64)), !dbg !690
  call void @llvm.dbg.value(metadata i8* %9, metadata !629, metadata !DIExpression(DW_OP_LLVM_fragment, 0, 64)), !dbg !679
  call void @llvm.dbg.value(metadata i8* %9, metadata !623, metadata !DIExpression(DW_OP_LLVM_fragment, 64, 64)), !dbg !678
  %10 = add nuw nsw i64 %iter.sroa.11.0115, 2, !dbg !662
  call void @llvm.dbg.value(metadata i16 %b.1, metadata !630, metadata !DIExpression()), !dbg !680
  call void @llvm.dbg.value(metadata { i8*, i8* }* undef, metadata !719, metadata !DIExpression()), !dbg !727
  call void @llvm.dbg.value(metadata i64 1, metadata !724, metadata !DIExpression()), !dbg !727
  call void @llvm.dbg.value(metadata i8* %9, metadata !725, metadata !DIExpression()), !dbg !729
  call void @llvm.dbg.value(metadata i8* %9, metadata !183, metadata !DIExpression()), !dbg !730
  call void @llvm.dbg.value(metadata i64 1, metadata !184, metadata !DIExpression()), !dbg !730
  %11 = getelementptr inbounds i8, i8* %9, i64 1, !dbg !732
  call void @llvm.dbg.value(metadata i8* %9, metadata !645, metadata !DIExpression()), !dbg !733
  call void @llvm.dbg.value(metadata i8* %9, metadata !649, metadata !DIExpression()), !dbg !734
  %12 = trunc i16 %b.1 to i8, !dbg !735
  store i8 %12, i8* %9, align 1, !dbg !735
  %13 = lshr i16 %b.1, 8, !dbg !736
  call void @llvm.dbg.value(metadata i16 %13, metadata !630, metadata !DIExpression()), !dbg !680
  call void @llvm.dbg.value(metadata { i8*, i8* }* undef, metadata !632, metadata !DIExpression(DW_OP_deref)), !dbg !697
  call void @llvm.dbg.value(metadata { i8*, i8* }* undef, metadata !698, metadata !DIExpression()), !dbg !714
  call void @llvm.dbg.value(metadata i16 %13, metadata !630, metadata !DIExpression()), !dbg !680
  call void @llvm.dbg.value(metadata { i8*, i8* }* undef, metadata !719, metadata !DIExpression()), !dbg !727
  call void @llvm.dbg.value(metadata i64 1, metadata !724, metadata !DIExpression()), !dbg !727
  call void @llvm.dbg.value(metadata i8* %11, metadata !725, metadata !DIExpression()), !dbg !729
  call void @llvm.dbg.value(metadata i8* %11, metadata !183, metadata !DIExpression()), !dbg !730
  call void @llvm.dbg.value(metadata i64 1, metadata !184, metadata !DIExpression()), !dbg !730
  call void @llvm.dbg.value(metadata i8* %11, metadata !645, metadata !DIExpression()), !dbg !733
  call void @llvm.dbg.value(metadata i8* %11, metadata !649, metadata !DIExpression()), !dbg !734
  %14 = trunc i16 %13 to i8, !dbg !735
  store i8 %14, i8* %11, align 1, !dbg !735
  call void @llvm.dbg.value(metadata i16 0, metadata !630, metadata !DIExpression()), !dbg !680
  call void @llvm.dbg.value(metadata { i8*, i8* }* undef, metadata !632, metadata !DIExpression(DW_OP_deref)), !dbg !697
  call void @llvm.dbg.value(metadata { i8*, i8* }* undef, metadata !698, metadata !DIExpression()), !dbg !714
  call void @llvm.dbg.value(metadata %"core::iter::adapters::Take<core::iter::adapters::zip::Zip<core::slice::Iter<u16>, core::slice::ChunksMut<u8>>>"* undef, metadata !621, metadata !DIExpression(DW_OP_deref)), !dbg !652
  call void @llvm.dbg.value(metadata %"core::iter::adapters::Take<core::iter::adapters::zip::Zip<core::slice::Iter<u16>, core::slice::ChunksMut<u8>>>"* undef, metadata !588, metadata !DIExpression()) #5, !dbg !653
  %_2.i.1 = icmp eq i64 %7, 0, !dbg !738
  br i1 %_2.i.1, label %bb8, label %bb17.preheader, !dbg !655
}

; iterator_bench::zip_chunks_output_size_fixed_impl
; Function Attrs: noinline nonlazybind uwtable
define void @_ZN14iterator_bench33zip_chunks_output_size_fixed_impl17h7bb7244a5d51ef63E([640000 x i8]* align 1 dereferenceable(640000) %output, [0 x i16]* noalias nonnull readonly align 2 %input.0, i64 %input.1) unnamed_addr #1 personality i32 (i32, i32, i64, %"unwind::libunwind::_Unwind_Exception"*, %"unwind::libunwind::_Unwind_Context"*)* @rust_eh_personality !dbg !739 {
_ZN4core4iter6traits8iterator8Iterator3zip17h4af0dced40c2956aE.exit:
  call void @llvm.dbg.value(metadata [640000 x i8]* %output, metadata !741, metadata !DIExpression()), !dbg !752
  call void @llvm.dbg.value(metadata [0 x i16]* %input.0, metadata !742, metadata !DIExpression(DW_OP_LLVM_fragment, 0, 64)), !dbg !752
  call void @llvm.dbg.value(metadata i64 %input.1, metadata !742, metadata !DIExpression(DW_OP_LLVM_fragment, 64, 64)), !dbg !752
  call void @llvm.dbg.value(metadata [640000 x i8]* %output, metadata !753, metadata !DIExpression(DW_OP_LLVM_fragment, 0, 64)), !dbg !766
  call void @llvm.dbg.value(metadata i64 640000, metadata !753, metadata !DIExpression(DW_OP_LLVM_fragment, 64, 64)), !dbg !766
  call void @llvm.dbg.value(metadata i64 2, metadata !753, metadata !DIExpression(DW_OP_LLVM_fragment, 128, 64)), !dbg !766
  call void @llvm.dbg.value(metadata [0 x i16]* %input.0, metadata !762, metadata !DIExpression(DW_OP_LLVM_fragment, 0, 64)), !dbg !766
  call void @llvm.dbg.value(metadata [640000 x i8]* %output, metadata !768, metadata !DIExpression(DW_OP_LLVM_fragment, 0, 64)), !dbg !772
  call void @llvm.dbg.value(metadata i64 640000, metadata !768, metadata !DIExpression(DW_OP_LLVM_fragment, 64, 64)), !dbg !772
  call void @llvm.dbg.value(metadata i64 2, metadata !768, metadata !DIExpression(DW_OP_LLVM_fragment, 128, 64)), !dbg !772
  call void @llvm.dbg.value(metadata [0 x i16]* %input.0, metadata !771, metadata !DIExpression(DW_OP_LLVM_fragment, 0, 64)), !dbg !772
  call void @llvm.dbg.value(metadata i64 640000, metadata !774, metadata !DIExpression(DW_OP_LLVM_fragment, 64, 64)), !dbg !780
  call void @llvm.dbg.value(metadata i64 2, metadata !774, metadata !DIExpression(DW_OP_LLVM_fragment, 128, 64)), !dbg !780
  call void @llvm.dbg.value(metadata i64 %input.1, metadata !782, metadata !DIExpression()), !dbg !786
  call void @llvm.dbg.value(metadata i64 320000, metadata !785, metadata !DIExpression()), !dbg !786
  call void @llvm.dbg.value(metadata i64 %input.1, metadata !788, metadata !DIExpression()), !dbg !792
  call void @llvm.dbg.value(metadata i64 320000, metadata !791, metadata !DIExpression()), !dbg !792
  call void @llvm.dbg.value(metadata i64 %input.1, metadata !794, metadata !DIExpression()), !dbg !799
  call void @llvm.dbg.value(metadata i64 320000, metadata !797, metadata !DIExpression()), !dbg !799
  %0 = icmp ult i64 %input.1, 320000, !dbg !799
  %.0.sroa.speculated.i.i.i.i.i.i = select i1 %0, i64 %input.1, i64 320000, !dbg !799
  call void @llvm.dbg.value(metadata %"core::iter::adapters::zip::Zip<core::slice::Iter<u16>, core::slice::ChunksMut<u8>>"* undef, metadata !743, metadata !DIExpression(DW_OP_deref)), !dbg !801
  call void @llvm.dbg.value(metadata %"core::iter::adapters::zip::Zip<core::slice::Iter<u16>, core::slice::ChunksMut<u8>>"* undef, metadata !488, metadata !DIExpression()) #5, !dbg !802
  call void @llvm.dbg.value(metadata %"core::iter::adapters::zip::Zip<core::slice::Iter<u16>, core::slice::ChunksMut<u8>>"* undef, metadata !510, metadata !DIExpression()) #5, !dbg !804
  %_2.i.i71 = icmp eq i64 %.0.sroa.speculated.i.i.i.i.i.i, 0, !dbg !806
  br i1 %_2.i.i71, label %bb7, label %bb9, !dbg !807

bb7:                                              ; preds = %bb10, %_ZN4core4iter6traits8iterator8Iterator3zip17h4af0dced40c2956aE.exit
  ret void, !dbg !808

bb9:                                              ; preds = %_ZN4core4iter6traits8iterator8Iterator3zip17h4af0dced40c2956aE.exit, %bb10
  %iter.sroa.11.072 = phi i64 [ %1, %bb10 ], [ 0, %_ZN4core4iter6traits8iterator8Iterator3zip17h4af0dced40c2956aE.exit ]
  call void @llvm.dbg.value(metadata i64 %iter.sroa.11.072, metadata !513, metadata !DIExpression()) #5, !dbg !809
  %1 = add nuw i64 %iter.sroa.11.072, 1, !dbg !810
  call void @llvm.dbg.value(metadata i64 %iter.sroa.11.072, metadata !541, metadata !DIExpression()) #5, !dbg !811
  call void @llvm.dbg.value(metadata [0 x i16]* %input.0, metadata !532, metadata !DIExpression()) #5, !dbg !813
  call void @llvm.dbg.value(metadata i64 %iter.sroa.11.072, metadata !533, metadata !DIExpression()) #5, !dbg !813
  call void @llvm.dbg.value(metadata [0 x i16]* %input.0, metadata !525, metadata !DIExpression()) #5, !dbg !815
  call void @llvm.dbg.value(metadata i64 %iter.sroa.11.072, metadata !526, metadata !DIExpression()) #5, !dbg !815
  %2 = getelementptr inbounds [0 x i16], [0 x i16]* %input.0, i64 0, i64 %iter.sroa.11.072, !dbg !817
  call void @llvm.dbg.value(metadata %"core::slice::ChunksMut<u8>"* undef, metadata !549, metadata !DIExpression()) #5, !dbg !818
  call void @llvm.dbg.value(metadata i64 %iter.sroa.11.072, metadata !550, metadata !DIExpression()) #5, !dbg !818
  %start1.i.i.i = shl i64 %iter.sroa.11.072, 1, !dbg !820
  call void @llvm.dbg.value(metadata i64 %start1.i.i.i, metadata !551, metadata !DIExpression()) #5, !dbg !821
  call void @llvm.dbg.value(metadata i64 %start1.i.i.i, metadata !822, metadata !DIExpression()) #5, !dbg !831
  call void @llvm.dbg.value(metadata i64 2, metadata !827, metadata !DIExpression()) #5, !dbg !831
  call void @llvm.dbg.value(metadata i64 %start1.i.i.i, metadata !833, metadata !DIExpression()) #5, !dbg !846
  call void @llvm.dbg.value(metadata i64 2, metadata !842, metadata !DIExpression()) #5, !dbg !846
  %3 = tail call { i64, i1 } @llvm.uadd.with.overflow.i64(i64 %start1.i.i.i, i64 2) #5, !dbg !848
  %4 = extractvalue { i64, i1 } %3, 0, !dbg !848
  %5 = extractvalue { i64, i1 } %3, 1, !dbg !848
  %6 = icmp ugt i64 %4, 640000, !dbg !849
  %7 = or i1 %5, %6, !dbg !849
  %end.0.i.i.i = select i1 %7, i64 640000, i64 %4, !dbg !849
  call void @llvm.dbg.value(metadata i64 %end.0.i.i.i, metadata !553, metadata !DIExpression()) #5, !dbg !850
  call void @llvm.dbg.value(metadata [640000 x i8]* %output, metadata !192, metadata !DIExpression()) #5, !dbg !851
  call void @llvm.dbg.value(metadata i64 %start1.i.i.i, metadata !193, metadata !DIExpression()) #5, !dbg !851
  call void @llvm.dbg.value(metadata [640000 x i8]* %output, metadata !183, metadata !DIExpression()) #5, !dbg !853
  call void @llvm.dbg.value(metadata i64 %start1.i.i.i, metadata !184, metadata !DIExpression()) #5, !dbg !853
  %8 = getelementptr inbounds [640000 x i8], [640000 x i8]* %output, i64 0, i64 %start1.i.i.i, !dbg !855
  call void @llvm.dbg.value(metadata i16* %2, metadata !745, metadata !DIExpression(DW_OP_LLVM_fragment, 0, 64)), !dbg !856
  call void @llvm.dbg.value(metadata i8* %8, metadata !745, metadata !DIExpression(DW_OP_LLVM_fragment, 64, 64)), !dbg !856
  call void @llvm.dbg.value(metadata i8* %8, metadata !751, metadata !DIExpression(DW_OP_LLVM_fragment, 0, 64)), !dbg !857
  %b = load i16, i16* %2, align 2, !dbg !858
  call void @llvm.dbg.value(metadata i16 %b, metadata !749, metadata !DIExpression()), !dbg !857
  %_24 = icmp eq i64 %end.0.i.i.i, %start1.i.i.i, !dbg !859
  br i1 %_24, label %panic, label %bb10, !dbg !859, !prof !334

bb10:                                             ; preds = %bb9
  %9 = trunc i16 %b to i8, !dbg !859
  store i8 %9, i8* %8, align 1, !dbg !859
  %_26 = lshr i16 %b, 8, !dbg !860
  %10 = getelementptr inbounds i8, i8* %8, i64 1, !dbg !861
  %11 = trunc i16 %_26 to i8, !dbg !861
  store i8 %11, i8* %10, align 1, !dbg !861
  call void @llvm.dbg.value(metadata %"core::iter::adapters::zip::Zip<core::slice::Iter<u16>, core::slice::ChunksMut<u8>>"* undef, metadata !743, metadata !DIExpression(DW_OP_deref)), !dbg !801
  call void @llvm.dbg.value(metadata %"core::iter::adapters::zip::Zip<core::slice::Iter<u16>, core::slice::ChunksMut<u8>>"* undef, metadata !488, metadata !DIExpression()) #5, !dbg !802
  call void @llvm.dbg.value(metadata %"core::iter::adapters::zip::Zip<core::slice::Iter<u16>, core::slice::ChunksMut<u8>>"* undef, metadata !510, metadata !DIExpression()) #5, !dbg !804
  %_2.i.i = icmp ult i64 %1, %.0.sroa.speculated.i.i.i.i.i.i, !dbg !806
  br i1 %_2.i.i, label %bb9, label %bb7, !dbg !807

panic:                                            ; preds = %bb9
; call core::panicking::panic_bounds_check
  tail call void @_ZN4core9panicking18panic_bounds_check17h566454b12ba8f623E(i64 0, i64 0, %"core::panic::Location"* noalias readonly align 8 dereferenceable(24) bitcast (<{ i8*, [16 x i8] }>* @alloc93 to %"core::panic::Location"*)), !dbg !859
  unreachable, !dbg !859
}

; iterator_bench::zip_chunks_input_size_fixed_impl
; Function Attrs: noinline nonlazybind uwtable
define void @_ZN14iterator_bench32zip_chunks_input_size_fixed_impl17hbcb9ebeb281c1d77E([0 x i8]* nonnull align 1 %output.0, i64 %output.1, [320000 x i16]* noalias readonly align 2 dereferenceable(640000) %input) unnamed_addr #1 personality i32 (i32, i32, i64, %"unwind::libunwind::_Unwind_Exception"*, %"unwind::libunwind::_Unwind_Context"*)* @rust_eh_personality !dbg !862 {
start:
  call void @llvm.dbg.value(metadata [0 x i8]* %output.0, metadata !864, metadata !DIExpression(DW_OP_LLVM_fragment, 0, 64)), !dbg !875
  call void @llvm.dbg.value(metadata i64 %output.1, metadata !864, metadata !DIExpression(DW_OP_LLVM_fragment, 64, 64)), !dbg !875
  call void @llvm.dbg.value(metadata [320000 x i16]* %input, metadata !865, metadata !DIExpression()), !dbg !875
  call void @llvm.dbg.value(metadata [0 x i8]* %output.0, metadata !753, metadata !DIExpression(DW_OP_LLVM_fragment, 0, 64)), !dbg !876
  call void @llvm.dbg.value(metadata i64 %output.1, metadata !753, metadata !DIExpression(DW_OP_LLVM_fragment, 64, 64)), !dbg !876
  call void @llvm.dbg.value(metadata i64 2, metadata !753, metadata !DIExpression(DW_OP_LLVM_fragment, 128, 64)), !dbg !876
  call void @llvm.dbg.value(metadata [320000 x i16]* %input, metadata !762, metadata !DIExpression(DW_OP_LLVM_fragment, 0, 64)), !dbg !876
  call void @llvm.dbg.value(metadata [320000 x i16]* %input, metadata !762, metadata !DIExpression(DW_OP_plus_uconst, 640000, DW_OP_stack_value, DW_OP_LLVM_fragment, 64, 64)), !dbg !876
  call void @llvm.dbg.value(metadata [0 x i8]* %output.0, metadata !768, metadata !DIExpression(DW_OP_LLVM_fragment, 0, 64)), !dbg !878
  call void @llvm.dbg.value(metadata i64 %output.1, metadata !768, metadata !DIExpression(DW_OP_LLVM_fragment, 64, 64)), !dbg !878
  call void @llvm.dbg.value(metadata i64 2, metadata !768, metadata !DIExpression(DW_OP_LLVM_fragment, 128, 64)), !dbg !878
  call void @llvm.dbg.value(metadata [320000 x i16]* %input, metadata !771, metadata !DIExpression(DW_OP_LLVM_fragment, 0, 64)), !dbg !878
  call void @llvm.dbg.value(metadata [320000 x i16]* %input, metadata !771, metadata !DIExpression(DW_OP_plus_uconst, 640000, DW_OP_stack_value, DW_OP_LLVM_fragment, 64, 64)), !dbg !878
  call void @llvm.dbg.value(metadata i64 %output.1, metadata !774, metadata !DIExpression(DW_OP_LLVM_fragment, 64, 64)), !dbg !880
  call void @llvm.dbg.value(metadata i64 2, metadata !774, metadata !DIExpression(DW_OP_LLVM_fragment, 128, 64)), !dbg !880
  call void @llvm.dbg.value(metadata [0 x i8]* undef, metadata !882, metadata !DIExpression(DW_OP_LLVM_fragment, 0, 64)), !dbg !891
  call void @llvm.dbg.value(metadata i64 %output.1, metadata !882, metadata !DIExpression(DW_OP_LLVM_fragment, 64, 64)), !dbg !891
  %0 = icmp eq i64 %output.1, 0, !dbg !933
  br i1 %0, label %bb7, label %_ZN4core4iter6traits8iterator8Iterator3zip17h4af0dced40c2956aE.exit, !dbg !934

_ZN4core4iter6traits8iterator8Iterator3zip17h4af0dced40c2956aE.exit: ; preds = %start
  %n1.i.i.i.i.i = lshr i64 %output.1, 1, !dbg !935
  call void @llvm.dbg.value(metadata i64 %n1.i.i.i.i.i, metadata !903, metadata !DIExpression()), !dbg !936
  %rem.i.i.i.i.i = and i64 %output.1, 1, !dbg !937
  call void @llvm.dbg.value(metadata i64 %rem.i.i.i.i.i, metadata !905, metadata !DIExpression()), !dbg !938
  %n.0.i.i.i.i.i = add nuw i64 %n1.i.i.i.i.i, %rem.i.i.i.i.i, !dbg !939
  call void @llvm.dbg.value(metadata i64 320000, metadata !782, metadata !DIExpression()), !dbg !940
  call void @llvm.dbg.value(metadata i64 %n.0.i.i.i.i.i, metadata !785, metadata !DIExpression()), !dbg !940
  call void @llvm.dbg.value(metadata i64 320000, metadata !788, metadata !DIExpression()), !dbg !942
  call void @llvm.dbg.value(metadata i64 %n.0.i.i.i.i.i, metadata !791, metadata !DIExpression()), !dbg !942
  call void @llvm.dbg.value(metadata i64 320000, metadata !794, metadata !DIExpression()), !dbg !944
  call void @llvm.dbg.value(metadata i64 %n.0.i.i.i.i.i, metadata !797, metadata !DIExpression()), !dbg !944
  %1 = icmp ult i64 %n.0.i.i.i.i.i, 320000, !dbg !946
  br i1 %1, label %2, label %bb9.preheader, !dbg !944

2:                                                ; preds = %_ZN4core4iter6traits8iterator8Iterator3zip17h4af0dced40c2956aE.exit
  call void @llvm.dbg.value(metadata %"core::iter::adapters::zip::Zip<core::slice::Iter<u16>, core::slice::ChunksMut<u8>>"* undef, metadata !866, metadata !DIExpression(DW_OP_deref)), !dbg !947
  call void @llvm.dbg.value(metadata %"core::iter::adapters::zip::Zip<core::slice::Iter<u16>, core::slice::ChunksMut<u8>>"* undef, metadata !488, metadata !DIExpression()) #5, !dbg !948
  call void @llvm.dbg.value(metadata %"core::iter::adapters::zip::Zip<core::slice::Iter<u16>, core::slice::ChunksMut<u8>>"* undef, metadata !510, metadata !DIExpression()) #5, !dbg !950
  %_2.i.i74 = icmp eq i64 %n.0.i.i.i.i.i, 0, !dbg !952
  br i1 %_2.i.i74, label %bb7, label %bb9.preheader, !dbg !953

bb9.preheader:                                    ; preds = %_ZN4core4iter6traits8iterator8Iterator3zip17h4af0dced40c2956aE.exit, %2
  %3 = phi i64 [ %n.0.i.i.i.i.i, %2 ], [ 320000, %_ZN4core4iter6traits8iterator8Iterator3zip17h4af0dced40c2956aE.exit ]
  br label %bb9, !dbg !954

bb7:                                              ; preds = %bb11, %start, %2
  ret void, !dbg !955

bb9:                                              ; preds = %bb11, %bb9.preheader
  %iter.sroa.11.075 = phi i64 [ %4, %bb11 ], [ 0, %bb9.preheader ]
  call void @llvm.dbg.value(metadata i64 %iter.sroa.11.075, metadata !513, metadata !DIExpression()) #5, !dbg !956
  %4 = add nuw i64 %iter.sroa.11.075, 1, !dbg !957
  call void @llvm.dbg.value(metadata i64 %iter.sroa.11.075, metadata !541, metadata !DIExpression()) #5, !dbg !958
  call void @llvm.dbg.value(metadata [320000 x i16]* %input, metadata !532, metadata !DIExpression()) #5, !dbg !960
  call void @llvm.dbg.value(metadata i64 %iter.sroa.11.075, metadata !533, metadata !DIExpression()) #5, !dbg !960
  call void @llvm.dbg.value(metadata [320000 x i16]* %input, metadata !525, metadata !DIExpression()) #5, !dbg !962
  call void @llvm.dbg.value(metadata i64 %iter.sroa.11.075, metadata !526, metadata !DIExpression()) #5, !dbg !962
  %5 = getelementptr inbounds [320000 x i16], [320000 x i16]* %input, i64 0, i64 %iter.sroa.11.075, !dbg !964
  call void @llvm.dbg.value(metadata %"core::slice::ChunksMut<u8>"* undef, metadata !549, metadata !DIExpression()) #5, !dbg !965
  call void @llvm.dbg.value(metadata i64 %iter.sroa.11.075, metadata !550, metadata !DIExpression()) #5, !dbg !965
  %start1.i.i.i = shl i64 %iter.sroa.11.075, 1, !dbg !967
  call void @llvm.dbg.value(metadata i64 %start1.i.i.i, metadata !551, metadata !DIExpression()) #5, !dbg !968
  call void @llvm.dbg.value(metadata i64 %start1.i.i.i, metadata !822, metadata !DIExpression()) #5, !dbg !969
  call void @llvm.dbg.value(metadata i64 2, metadata !827, metadata !DIExpression()) #5, !dbg !969
  call void @llvm.dbg.value(metadata i64 %start1.i.i.i, metadata !833, metadata !DIExpression()) #5, !dbg !971
  call void @llvm.dbg.value(metadata i64 2, metadata !842, metadata !DIExpression()) #5, !dbg !971
  %6 = tail call { i64, i1 } @llvm.uadd.with.overflow.i64(i64 %start1.i.i.i, i64 2) #5, !dbg !973
  %7 = extractvalue { i64, i1 } %6, 0, !dbg !973
  %8 = extractvalue { i64, i1 } %6, 1, !dbg !973
  %9 = icmp ugt i64 %7, %output.1, !dbg !974
  %10 = or i1 %8, %9, !dbg !974
  %end.0.i.i.i = select i1 %10, i64 %output.1, i64 %7, !dbg !974
  call void @llvm.dbg.value(metadata i64 %end.0.i.i.i, metadata !553, metadata !DIExpression()) #5, !dbg !975
  call void @llvm.dbg.value(metadata [0 x i8]* %output.0, metadata !192, metadata !DIExpression()) #5, !dbg !976
  call void @llvm.dbg.value(metadata i64 %start1.i.i.i, metadata !193, metadata !DIExpression()) #5, !dbg !976
  call void @llvm.dbg.value(metadata [0 x i8]* %output.0, metadata !183, metadata !DIExpression()) #5, !dbg !978
  call void @llvm.dbg.value(metadata i64 %start1.i.i.i, metadata !184, metadata !DIExpression()) #5, !dbg !978
  %11 = getelementptr inbounds [0 x i8], [0 x i8]* %output.0, i64 0, i64 %start1.i.i.i, !dbg !980
  %_23.i.i.i = sub i64 %end.0.i.i.i, %start1.i.i.i, !dbg !981
  call void @llvm.dbg.value(metadata i16* %5, metadata !868, metadata !DIExpression(DW_OP_LLVM_fragment, 0, 64)), !dbg !982
  call void @llvm.dbg.value(metadata i8* %11, metadata !868, metadata !DIExpression(DW_OP_LLVM_fragment, 64, 64)), !dbg !982
  call void @llvm.dbg.value(metadata i64 %_23.i.i.i, metadata !868, metadata !DIExpression(DW_OP_LLVM_fragment, 128, 64)), !dbg !982
  call void @llvm.dbg.value(metadata i8* %11, metadata !874, metadata !DIExpression(DW_OP_LLVM_fragment, 0, 64)), !dbg !983
  call void @llvm.dbg.value(metadata i64 %_23.i.i.i, metadata !874, metadata !DIExpression(DW_OP_LLVM_fragment, 64, 64)), !dbg !983
  %b = load i16, i16* %5, align 2, !dbg !984
  call void @llvm.dbg.value(metadata i16 %b, metadata !872, metadata !DIExpression()), !dbg !983
  %_24 = icmp eq i64 %_23.i.i.i, 0, !dbg !954
  br i1 %_24, label %panic, label %bb10, !dbg !954, !prof !334

bb10:                                             ; preds = %bb9
  %12 = trunc i16 %b to i8, !dbg !954
  store i8 %12, i8* %11, align 1, !dbg !954
  %_30 = icmp eq i64 %_23.i.i.i, 1, !dbg !985
  br i1 %_30, label %panic1, label %bb11, !dbg !985, !prof !334

bb11:                                             ; preds = %bb10
  %_26 = lshr i16 %b, 8, !dbg !986
  %13 = getelementptr inbounds i8, i8* %11, i64 1, !dbg !985
  %14 = trunc i16 %_26 to i8, !dbg !985
  store i8 %14, i8* %13, align 1, !dbg !985
  call void @llvm.dbg.value(metadata %"core::iter::adapters::zip::Zip<core::slice::Iter<u16>, core::slice::ChunksMut<u8>>"* undef, metadata !866, metadata !DIExpression(DW_OP_deref)), !dbg !947
  call void @llvm.dbg.value(metadata %"core::iter::adapters::zip::Zip<core::slice::Iter<u16>, core::slice::ChunksMut<u8>>"* undef, metadata !488, metadata !DIExpression()) #5, !dbg !948
  call void @llvm.dbg.value(metadata %"core::iter::adapters::zip::Zip<core::slice::Iter<u16>, core::slice::ChunksMut<u8>>"* undef, metadata !510, metadata !DIExpression()) #5, !dbg !950
  %exitcond = icmp eq i64 %4, %3, !dbg !952
  br i1 %exitcond, label %bb7, label %bb9, !dbg !953

panic:                                            ; preds = %bb9
; call core::panicking::panic_bounds_check
  tail call void @_ZN4core9panicking18panic_bounds_check17h566454b12ba8f623E(i64 0, i64 0, %"core::panic::Location"* noalias readonly align 8 dereferenceable(24) bitcast (<{ i8*, [16 x i8] }>* @alloc97 to %"core::panic::Location"*)), !dbg !954
  unreachable, !dbg !954

panic1:                                           ; preds = %bb10
; call core::panicking::panic_bounds_check
  tail call void @_ZN4core9panicking18panic_bounds_check17h566454b12ba8f623E(i64 1, i64 1, %"core::panic::Location"* noalias readonly align 8 dereferenceable(24) bitcast (<{ i8*, [16 x i8] }>* @alloc99 to %"core::panic::Location"*)), !dbg !985
  unreachable, !dbg !985
}

; iterator_bench::zip_chunks_unknown_size_impl
; Function Attrs: noinline nonlazybind uwtable
define void @_ZN14iterator_bench28zip_chunks_unknown_size_impl17h4c17cf41de28445aE([0 x i8]* nonnull align 1 %output.0, i64 %output.1, [0 x i16]* noalias nonnull readonly align 2 %input.0, i64 %input.1) unnamed_addr #1 personality i32 (i32, i32, i64, %"unwind::libunwind::_Unwind_Exception"*, %"unwind::libunwind::_Unwind_Context"*)* @rust_eh_personality !dbg !987 {
start:
  call void @llvm.dbg.value(metadata [0 x i8]* %output.0, metadata !989, metadata !DIExpression(DW_OP_LLVM_fragment, 0, 64)), !dbg !1000
  call void @llvm.dbg.value(metadata i64 %output.1, metadata !989, metadata !DIExpression(DW_OP_LLVM_fragment, 64, 64)), !dbg !1000
  call void @llvm.dbg.value(metadata [0 x i16]* %input.0, metadata !990, metadata !DIExpression(DW_OP_LLVM_fragment, 0, 64)), !dbg !1000
  call void @llvm.dbg.value(metadata i64 %input.1, metadata !990, metadata !DIExpression(DW_OP_LLVM_fragment, 64, 64)), !dbg !1000
  call void @llvm.dbg.value(metadata [0 x i8]* %output.0, metadata !753, metadata !DIExpression(DW_OP_LLVM_fragment, 0, 64)), !dbg !1001
  call void @llvm.dbg.value(metadata i64 %output.1, metadata !753, metadata !DIExpression(DW_OP_LLVM_fragment, 64, 64)), !dbg !1001
  call void @llvm.dbg.value(metadata i64 2, metadata !753, metadata !DIExpression(DW_OP_LLVM_fragment, 128, 64)), !dbg !1001
  call void @llvm.dbg.value(metadata [0 x i16]* %input.0, metadata !762, metadata !DIExpression(DW_OP_LLVM_fragment, 0, 64)), !dbg !1001
  call void @llvm.dbg.value(metadata [0 x i8]* %output.0, metadata !768, metadata !DIExpression(DW_OP_LLVM_fragment, 0, 64)), !dbg !1003
  call void @llvm.dbg.value(metadata i64 %output.1, metadata !768, metadata !DIExpression(DW_OP_LLVM_fragment, 64, 64)), !dbg !1003
  call void @llvm.dbg.value(metadata i64 2, metadata !768, metadata !DIExpression(DW_OP_LLVM_fragment, 128, 64)), !dbg !1003
  call void @llvm.dbg.value(metadata [0 x i16]* %input.0, metadata !771, metadata !DIExpression(DW_OP_LLVM_fragment, 0, 64)), !dbg !1003
  call void @llvm.dbg.value(metadata i64 %output.1, metadata !774, metadata !DIExpression(DW_OP_LLVM_fragment, 64, 64)), !dbg !1005
  call void @llvm.dbg.value(metadata i64 2, metadata !774, metadata !DIExpression(DW_OP_LLVM_fragment, 128, 64)), !dbg !1005
  call void @llvm.dbg.value(metadata [0 x i8]* undef, metadata !882, metadata !DIExpression(DW_OP_LLVM_fragment, 0, 64)), !dbg !1007
  call void @llvm.dbg.value(metadata i64 %output.1, metadata !882, metadata !DIExpression(DW_OP_LLVM_fragment, 64, 64)), !dbg !1007
  %0 = icmp eq i64 %output.1, 0, !dbg !1011
  br i1 %0, label %_ZN4core4iter6traits8iterator8Iterator3zip17h4af0dced40c2956aE.exit, label %bb7.i.i.i.i.i, !dbg !1012

bb7.i.i.i.i.i:                                    ; preds = %start
  %n1.i.i.i.i.i = lshr i64 %output.1, 1, !dbg !1013
  call void @llvm.dbg.value(metadata i64 %n1.i.i.i.i.i, metadata !903, metadata !DIExpression()), !dbg !1014
  %rem.i.i.i.i.i = and i64 %output.1, 1, !dbg !1015
  call void @llvm.dbg.value(metadata i64 %rem.i.i.i.i.i, metadata !905, metadata !DIExpression()), !dbg !1016
  %n.0.i.i.i.i.i = add nuw i64 %n1.i.i.i.i.i, %rem.i.i.i.i.i, !dbg !1017
  br label %_ZN4core4iter6traits8iterator8Iterator3zip17h4af0dced40c2956aE.exit, !dbg !1012

_ZN4core4iter6traits8iterator8Iterator3zip17h4af0dced40c2956aE.exit: ; preds = %start, %bb7.i.i.i.i.i
  %_3.sroa.8.0.i.i.i.i = phi i64 [ %n.0.i.i.i.i.i, %bb7.i.i.i.i.i ], [ 0, %start ], !dbg !1018
  call void @llvm.dbg.value(metadata i64 %input.1, metadata !782, metadata !DIExpression()), !dbg !1019
  call void @llvm.dbg.value(metadata i64 %_3.sroa.8.0.i.i.i.i, metadata !785, metadata !DIExpression()), !dbg !1019
  call void @llvm.dbg.value(metadata i64 %input.1, metadata !788, metadata !DIExpression()), !dbg !1021
  call void @llvm.dbg.value(metadata i64 %_3.sroa.8.0.i.i.i.i, metadata !791, metadata !DIExpression()), !dbg !1021
  call void @llvm.dbg.value(metadata i64 %input.1, metadata !794, metadata !DIExpression()), !dbg !1023
  call void @llvm.dbg.value(metadata i64 %_3.sroa.8.0.i.i.i.i, metadata !797, metadata !DIExpression()), !dbg !1023
  %1 = icmp ult i64 %_3.sroa.8.0.i.i.i.i, %input.1, !dbg !1025
  %.0.sroa.speculated.i.i.i.i.i.i = select i1 %1, i64 %_3.sroa.8.0.i.i.i.i, i64 %input.1, !dbg !1023
  call void @llvm.dbg.value(metadata %"core::iter::adapters::zip::Zip<core::slice::Iter<u16>, core::slice::ChunksMut<u8>>"* undef, metadata !991, metadata !DIExpression(DW_OP_deref)), !dbg !1026
  call void @llvm.dbg.value(metadata %"core::iter::adapters::zip::Zip<core::slice::Iter<u16>, core::slice::ChunksMut<u8>>"* undef, metadata !488, metadata !DIExpression()) #5, !dbg !1027
  call void @llvm.dbg.value(metadata %"core::iter::adapters::zip::Zip<core::slice::Iter<u16>, core::slice::ChunksMut<u8>>"* undef, metadata !510, metadata !DIExpression()) #5, !dbg !1029
  %_2.i.i72 = icmp eq i64 %.0.sroa.speculated.i.i.i.i.i.i, 0, !dbg !1031
  br i1 %_2.i.i72, label %bb7, label %bb9, !dbg !1032

bb7:                                              ; preds = %bb11, %_ZN4core4iter6traits8iterator8Iterator3zip17h4af0dced40c2956aE.exit
  ret void, !dbg !1033

bb9:                                              ; preds = %_ZN4core4iter6traits8iterator8Iterator3zip17h4af0dced40c2956aE.exit, %bb11
  %iter.sroa.11.073 = phi i64 [ %2, %bb11 ], [ 0, %_ZN4core4iter6traits8iterator8Iterator3zip17h4af0dced40c2956aE.exit ]
  call void @llvm.dbg.value(metadata i64 %iter.sroa.11.073, metadata !513, metadata !DIExpression()) #5, !dbg !1034
  %2 = add nuw i64 %iter.sroa.11.073, 1, !dbg !1035
  call void @llvm.dbg.value(metadata i64 %iter.sroa.11.073, metadata !541, metadata !DIExpression()) #5, !dbg !1036
  call void @llvm.dbg.value(metadata [0 x i16]* %input.0, metadata !532, metadata !DIExpression()) #5, !dbg !1038
  call void @llvm.dbg.value(metadata i64 %iter.sroa.11.073, metadata !533, metadata !DIExpression()) #5, !dbg !1038
  call void @llvm.dbg.value(metadata [0 x i16]* %input.0, metadata !525, metadata !DIExpression()) #5, !dbg !1040
  call void @llvm.dbg.value(metadata i64 %iter.sroa.11.073, metadata !526, metadata !DIExpression()) #5, !dbg !1040
  call void @llvm.dbg.value(metadata %"core::slice::ChunksMut<u8>"* undef, metadata !549, metadata !DIExpression()) #5, !dbg !1042
  call void @llvm.dbg.value(metadata i64 %iter.sroa.11.073, metadata !550, metadata !DIExpression()) #5, !dbg !1042
  %start1.i.i.i = shl i64 %iter.sroa.11.073, 1, !dbg !1044
  call void @llvm.dbg.value(metadata i64 %start1.i.i.i, metadata !551, metadata !DIExpression()) #5, !dbg !1045
  call void @llvm.dbg.value(metadata i64 %start1.i.i.i, metadata !822, metadata !DIExpression()) #5, !dbg !1046
  call void @llvm.dbg.value(metadata i64 2, metadata !827, metadata !DIExpression()) #5, !dbg !1046
  call void @llvm.dbg.value(metadata i64 %start1.i.i.i, metadata !833, metadata !DIExpression()) #5, !dbg !1048
  call void @llvm.dbg.value(metadata i64 2, metadata !842, metadata !DIExpression()) #5, !dbg !1048
  %3 = tail call { i64, i1 } @llvm.uadd.with.overflow.i64(i64 %start1.i.i.i, i64 2) #5, !dbg !1050
  %4 = extractvalue { i64, i1 } %3, 0, !dbg !1050
  %5 = extractvalue { i64, i1 } %3, 1, !dbg !1050
  %6 = icmp ugt i64 %4, %output.1, !dbg !1051
  %7 = or i1 %5, %6, !dbg !1051
  %end.0.i.i.i = select i1 %7, i64 %output.1, i64 %4, !dbg !1051
  call void @llvm.dbg.value(metadata i64 %end.0.i.i.i, metadata !553, metadata !DIExpression()) #5, !dbg !1052
  call void @llvm.dbg.value(metadata [0 x i8]* %output.0, metadata !192, metadata !DIExpression()) #5, !dbg !1053
  call void @llvm.dbg.value(metadata i64 %start1.i.i.i, metadata !193, metadata !DIExpression()) #5, !dbg !1053
  call void @llvm.dbg.value(metadata [0 x i8]* %output.0, metadata !183, metadata !DIExpression()) #5, !dbg !1055
  call void @llvm.dbg.value(metadata i64 %start1.i.i.i, metadata !184, metadata !DIExpression()) #5, !dbg !1055
  %8 = getelementptr inbounds [0 x i8], [0 x i8]* %output.0, i64 0, i64 %start1.i.i.i, !dbg !1057
  %_23.i.i.i = sub i64 %end.0.i.i.i, %start1.i.i.i, !dbg !1058
  call void @llvm.dbg.value(metadata i16* undef, metadata !993, metadata !DIExpression(DW_OP_LLVM_fragment, 0, 64)), !dbg !1059
  call void @llvm.dbg.value(metadata i8* %8, metadata !993, metadata !DIExpression(DW_OP_LLVM_fragment, 64, 64)), !dbg !1059
  call void @llvm.dbg.value(metadata i64 %_23.i.i.i, metadata !993, metadata !DIExpression(DW_OP_LLVM_fragment, 128, 64)), !dbg !1059
  call void @llvm.dbg.value(metadata i16* undef, metadata !997, metadata !DIExpression()), !dbg !1060
  call void @llvm.dbg.value(metadata i8* %8, metadata !999, metadata !DIExpression(DW_OP_LLVM_fragment, 0, 64)), !dbg !1060
  call void @llvm.dbg.value(metadata i64 %_23.i.i.i, metadata !999, metadata !DIExpression(DW_OP_LLVM_fragment, 64, 64)), !dbg !1060
  %_23 = icmp eq i64 %_23.i.i.i, 0, !dbg !1061
  br i1 %_23, label %panic, label %bb10, !dbg !1061, !prof !334

bb10:                                             ; preds = %bb9
  %9 = getelementptr inbounds [0 x i16], [0 x i16]* %input.0, i64 0, i64 %iter.sroa.11.073, !dbg !1062
  call void @llvm.dbg.value(metadata i16* %9, metadata !997, metadata !DIExpression()), !dbg !1060
  call void @llvm.dbg.value(metadata i16* %9, metadata !993, metadata !DIExpression(DW_OP_LLVM_fragment, 0, 64)), !dbg !1059
  %_20 = load i16, i16* %9, align 2, !dbg !1063
  %10 = trunc i16 %_20 to i8, !dbg !1061
  store i8 %10, i8* %8, align 1, !dbg !1061
  %_29 = icmp eq i64 %_23.i.i.i, 1, !dbg !1064
  br i1 %_29, label %panic1, label %bb11, !dbg !1064, !prof !334

bb11:                                             ; preds = %bb10
  %_25 = lshr i16 %_20, 8, !dbg !1065
  %11 = getelementptr inbounds i8, i8* %8, i64 1, !dbg !1064
  %12 = trunc i16 %_25 to i8, !dbg !1064
  store i8 %12, i8* %11, align 1, !dbg !1064
  call void @llvm.dbg.value(metadata %"core::iter::adapters::zip::Zip<core::slice::Iter<u16>, core::slice::ChunksMut<u8>>"* undef, metadata !991, metadata !DIExpression(DW_OP_deref)), !dbg !1026
  call void @llvm.dbg.value(metadata %"core::iter::adapters::zip::Zip<core::slice::Iter<u16>, core::slice::ChunksMut<u8>>"* undef, metadata !488, metadata !DIExpression()) #5, !dbg !1027
  call void @llvm.dbg.value(metadata %"core::iter::adapters::zip::Zip<core::slice::Iter<u16>, core::slice::ChunksMut<u8>>"* undef, metadata !510, metadata !DIExpression()) #5, !dbg !1029
  %_2.i.i = icmp ult i64 %2, %.0.sroa.speculated.i.i.i.i.i.i, !dbg !1031
  br i1 %_2.i.i, label %bb9, label %bb7, !dbg !1032

panic:                                            ; preds = %bb9
; call core::panicking::panic_bounds_check
  tail call void @_ZN4core9panicking18panic_bounds_check17h566454b12ba8f623E(i64 0, i64 0, %"core::panic::Location"* noalias readonly align 8 dereferenceable(24) bitcast (<{ i8*, [16 x i8] }>* @alloc101 to %"core::panic::Location"*)), !dbg !1061
  unreachable, !dbg !1061

panic1:                                           ; preds = %bb10
; call core::panicking::panic_bounds_check
  tail call void @_ZN4core9panicking18panic_bounds_check17h566454b12ba8f623E(i64 1, i64 1, %"core::panic::Location"* noalias readonly align 8 dereferenceable(24) bitcast (<{ i8*, [16 x i8] }>* @alloc103 to %"core::panic::Location"*)), !dbg !1064
  unreachable, !dbg !1064
}

; iterator_bench::zip_chunks_unknown_size_take_impl
; Function Attrs: noinline nonlazybind uwtable
define void @_ZN14iterator_bench33zip_chunks_unknown_size_take_impl17hb9c664531f52ee33E([0 x i8]* nonnull align 1 %output.0, i64 %output.1, [0 x i16]* noalias nonnull readonly align 2 %input.0, i64 %input.1) unnamed_addr #1 personality i32 (i32, i32, i64, %"unwind::libunwind::_Unwind_Exception"*, %"unwind::libunwind::_Unwind_Context"*)* @rust_eh_personality !dbg !1066 {
start:
  call void @llvm.dbg.value(metadata [0 x i8]* %output.0, metadata !1068, metadata !DIExpression(DW_OP_LLVM_fragment, 0, 64)), !dbg !1079
  call void @llvm.dbg.value(metadata i64 %output.1, metadata !1068, metadata !DIExpression(DW_OP_LLVM_fragment, 64, 64)), !dbg !1079
  call void @llvm.dbg.value(metadata [0 x i16]* %input.0, metadata !1069, metadata !DIExpression(DW_OP_LLVM_fragment, 0, 64)), !dbg !1079
  call void @llvm.dbg.value(metadata i64 %input.1, metadata !1069, metadata !DIExpression(DW_OP_LLVM_fragment, 64, 64)), !dbg !1079
  call void @llvm.dbg.value(metadata [0 x i8]* %output.0, metadata !753, metadata !DIExpression(DW_OP_LLVM_fragment, 0, 64)), !dbg !1080
  call void @llvm.dbg.value(metadata i64 %output.1, metadata !753, metadata !DIExpression(DW_OP_LLVM_fragment, 64, 64)), !dbg !1080
  call void @llvm.dbg.value(metadata i64 2, metadata !753, metadata !DIExpression(DW_OP_LLVM_fragment, 128, 64)), !dbg !1080
  call void @llvm.dbg.value(metadata [0 x i16]* %input.0, metadata !762, metadata !DIExpression(DW_OP_LLVM_fragment, 0, 64)), !dbg !1080
  call void @llvm.dbg.value(metadata [0 x i8]* %output.0, metadata !768, metadata !DIExpression(DW_OP_LLVM_fragment, 0, 64)), !dbg !1082
  call void @llvm.dbg.value(metadata i64 %output.1, metadata !768, metadata !DIExpression(DW_OP_LLVM_fragment, 64, 64)), !dbg !1082
  call void @llvm.dbg.value(metadata i64 2, metadata !768, metadata !DIExpression(DW_OP_LLVM_fragment, 128, 64)), !dbg !1082
  call void @llvm.dbg.value(metadata [0 x i16]* %input.0, metadata !771, metadata !DIExpression(DW_OP_LLVM_fragment, 0, 64)), !dbg !1082
  call void @llvm.dbg.value(metadata i64 %output.1, metadata !774, metadata !DIExpression(DW_OP_LLVM_fragment, 64, 64)), !dbg !1084
  call void @llvm.dbg.value(metadata i64 2, metadata !774, metadata !DIExpression(DW_OP_LLVM_fragment, 128, 64)), !dbg !1084
  call void @llvm.dbg.value(metadata [0 x i8]* undef, metadata !882, metadata !DIExpression(DW_OP_LLVM_fragment, 0, 64)), !dbg !1086
  call void @llvm.dbg.value(metadata i64 %output.1, metadata !882, metadata !DIExpression(DW_OP_LLVM_fragment, 64, 64)), !dbg !1086
  %0 = icmp eq i64 %output.1, 0, !dbg !1090
  br i1 %0, label %_ZN4core4iter6traits8iterator8Iterator3zip17h4af0dced40c2956aE.exit, label %bb7.i.i.i.i.i, !dbg !1091

bb7.i.i.i.i.i:                                    ; preds = %start
  %n1.i.i.i.i.i = lshr i64 %output.1, 1, !dbg !1092
  call void @llvm.dbg.value(metadata i64 %n1.i.i.i.i.i, metadata !903, metadata !DIExpression()), !dbg !1093
  %rem.i.i.i.i.i = and i64 %output.1, 1, !dbg !1094
  call void @llvm.dbg.value(metadata i64 %rem.i.i.i.i.i, metadata !905, metadata !DIExpression()), !dbg !1095
  %n.0.i.i.i.i.i = add nuw i64 %n1.i.i.i.i.i, %rem.i.i.i.i.i, !dbg !1096
  br label %_ZN4core4iter6traits8iterator8Iterator3zip17h4af0dced40c2956aE.exit, !dbg !1091

_ZN4core4iter6traits8iterator8Iterator3zip17h4af0dced40c2956aE.exit: ; preds = %start, %bb7.i.i.i.i.i
  %_3.sroa.8.0.i.i.i.i = phi i64 [ %n.0.i.i.i.i.i, %bb7.i.i.i.i.i ], [ 0, %start ], !dbg !1097
  call void @llvm.dbg.value(metadata i64 %input.1, metadata !782, metadata !DIExpression()), !dbg !1098
  call void @llvm.dbg.value(metadata i64 %_3.sroa.8.0.i.i.i.i, metadata !785, metadata !DIExpression()), !dbg !1098
  call void @llvm.dbg.value(metadata i64 %input.1, metadata !788, metadata !DIExpression()), !dbg !1100
  call void @llvm.dbg.value(metadata i64 %_3.sroa.8.0.i.i.i.i, metadata !791, metadata !DIExpression()), !dbg !1100
  call void @llvm.dbg.value(metadata i64 %input.1, metadata !794, metadata !DIExpression()), !dbg !1102
  call void @llvm.dbg.value(metadata i64 %_3.sroa.8.0.i.i.i.i, metadata !797, metadata !DIExpression()), !dbg !1102
  %1 = icmp ult i64 %_3.sroa.8.0.i.i.i.i, %input.1, !dbg !1104
  %.0.sroa.speculated.i.i.i.i.i.i = select i1 %1, i64 %_3.sroa.8.0.i.i.i.i, i64 %input.1, !dbg !1102
  call void @llvm.dbg.value(metadata %"core::iter::adapters::Take<core::iter::adapters::zip::Zip<core::slice::Iter<u16>, core::slice::ChunksMut<u8>>>"* undef, metadata !1070, metadata !DIExpression(DW_OP_deref)), !dbg !1105
  call void @llvm.dbg.value(metadata %"core::iter::adapters::Take<core::iter::adapters::zip::Zip<core::slice::Iter<u16>, core::slice::ChunksMut<u8>>>"* undef, metadata !588, metadata !DIExpression()) #5, !dbg !1106
  br label %bb2.i, !dbg !1108

bb2.i:                                            ; preds = %_ZN4core4iter6traits8iterator8Iterator3zip17h4af0dced40c2956aE.exit, %bb12
  %iter.sroa.16.0104 = phi i64 [ 320000, %_ZN4core4iter6traits8iterator8Iterator3zip17h4af0dced40c2956aE.exit ], [ %2, %bb12 ]
  %iter.sroa.11.0103 = phi i64 [ 0, %_ZN4core4iter6traits8iterator8Iterator3zip17h4af0dced40c2956aE.exit ], [ %3, %bb12 ]
  %2 = add nsw i64 %iter.sroa.16.0104, -1, !dbg !1109
  call void @llvm.dbg.value(metadata %"core::iter::adapters::Take<core::iter::adapters::zip::Zip<core::slice::Iter<u16>, core::slice::ChunksMut<u8>>>"* undef, metadata !488, metadata !DIExpression()) #5, !dbg !1110
  call void @llvm.dbg.value(metadata %"core::iter::adapters::Take<core::iter::adapters::zip::Zip<core::slice::Iter<u16>, core::slice::ChunksMut<u8>>>"* undef, metadata !510, metadata !DIExpression()) #5, !dbg !1112
  %_2.i.i.i = icmp ult i64 %iter.sroa.11.0103, %.0.sroa.speculated.i.i.i.i.i.i, !dbg !1114
  br i1 %_2.i.i.i, label %bb10, label %bb8, !dbg !1115

bb8:                                              ; preds = %bb12, %bb2.i
  ret void, !dbg !1116

bb10:                                             ; preds = %bb2.i
  call void @llvm.dbg.value(metadata %"core::iter::adapters::Take<core::iter::adapters::zip::Zip<core::slice::Iter<u16>, core::slice::ChunksMut<u8>>>"* undef, metadata !488, metadata !DIExpression()) #5, !dbg !1110
  call void @llvm.dbg.value(metadata %"core::iter::adapters::Take<core::iter::adapters::zip::Zip<core::slice::Iter<u16>, core::slice::ChunksMut<u8>>>"* undef, metadata !510, metadata !DIExpression()) #5, !dbg !1112
  call void @llvm.dbg.value(metadata i64 %iter.sroa.11.0103, metadata !513, metadata !DIExpression()) #5, !dbg !1117
  %3 = add nuw nsw i64 %iter.sroa.11.0103, 1, !dbg !1118
  call void @llvm.dbg.value(metadata i64 %iter.sroa.11.0103, metadata !541, metadata !DIExpression()) #5, !dbg !1119
  call void @llvm.dbg.value(metadata [0 x i16]* %input.0, metadata !532, metadata !DIExpression()) #5, !dbg !1121
  call void @llvm.dbg.value(metadata i64 %iter.sroa.11.0103, metadata !533, metadata !DIExpression()) #5, !dbg !1121
  call void @llvm.dbg.value(metadata [0 x i16]* %input.0, metadata !525, metadata !DIExpression()) #5, !dbg !1123
  call void @llvm.dbg.value(metadata i64 %iter.sroa.11.0103, metadata !526, metadata !DIExpression()) #5, !dbg !1123
  call void @llvm.dbg.value(metadata %"core::slice::ChunksMut<u8>"* undef, metadata !549, metadata !DIExpression()) #5, !dbg !1125
  call void @llvm.dbg.value(metadata i64 %iter.sroa.11.0103, metadata !550, metadata !DIExpression()) #5, !dbg !1125
  %start1.i.i.i.i = shl nuw i64 %iter.sroa.11.0103, 1, !dbg !1127
  call void @llvm.dbg.value(metadata i64 %start1.i.i.i.i, metadata !551, metadata !DIExpression()) #5, !dbg !1128
  %4 = add nuw nsw i64 %start1.i.i.i.i, 2
  %5 = icmp ugt i64 %4, %output.1, !dbg !1129
  %end.0.i.i.i.i = select i1 %5, i64 %output.1, i64 %4, !dbg !1129
  call void @llvm.dbg.value(metadata i64 %end.0.i.i.i.i, metadata !553, metadata !DIExpression()) #5, !dbg !1130
  call void @llvm.dbg.value(metadata [0 x i8]* %output.0, metadata !192, metadata !DIExpression()) #5, !dbg !1131
  call void @llvm.dbg.value(metadata i64 %start1.i.i.i.i, metadata !193, metadata !DIExpression()) #5, !dbg !1131
  call void @llvm.dbg.value(metadata [0 x i8]* %output.0, metadata !183, metadata !DIExpression()) #5, !dbg !1133
  call void @llvm.dbg.value(metadata i64 %start1.i.i.i.i, metadata !184, metadata !DIExpression()) #5, !dbg !1133
  %6 = getelementptr inbounds [0 x i8], [0 x i8]* %output.0, i64 0, i64 %start1.i.i.i.i, !dbg !1135
  %_23.i.i.i.i = sub i64 %end.0.i.i.i.i, %start1.i.i.i.i, !dbg !1136
  call void @llvm.dbg.value(metadata i16* undef, metadata !1072, metadata !DIExpression(DW_OP_LLVM_fragment, 0, 64)), !dbg !1137
  call void @llvm.dbg.value(metadata i8* %6, metadata !1072, metadata !DIExpression(DW_OP_LLVM_fragment, 64, 64)), !dbg !1137
  call void @llvm.dbg.value(metadata i64 %_23.i.i.i.i, metadata !1072, metadata !DIExpression(DW_OP_LLVM_fragment, 128, 64)), !dbg !1137
  call void @llvm.dbg.value(metadata i16* undef, metadata !1076, metadata !DIExpression()), !dbg !1138
  call void @llvm.dbg.value(metadata i8* %6, metadata !1078, metadata !DIExpression(DW_OP_LLVM_fragment, 0, 64)), !dbg !1138
  call void @llvm.dbg.value(metadata i64 %_23.i.i.i.i, metadata !1078, metadata !DIExpression(DW_OP_LLVM_fragment, 64, 64)), !dbg !1138
  %_24 = icmp eq i64 %_23.i.i.i.i, 0, !dbg !1139
  br i1 %_24, label %panic, label %bb11, !dbg !1139, !prof !334

bb11:                                             ; preds = %bb10
  %7 = getelementptr inbounds [0 x i16], [0 x i16]* %input.0, i64 0, i64 %iter.sroa.11.0103, !dbg !1140
  call void @llvm.dbg.value(metadata i16* %7, metadata !1076, metadata !DIExpression()), !dbg !1138
  call void @llvm.dbg.value(metadata i16* %7, metadata !1072, metadata !DIExpression(DW_OP_LLVM_fragment, 0, 64)), !dbg !1137
  %_21 = load i16, i16* %7, align 2, !dbg !1141
  %8 = trunc i16 %_21 to i8, !dbg !1139
  store i8 %8, i8* %6, align 1, !dbg !1139
  %_30 = icmp eq i64 %_23.i.i.i.i, 1, !dbg !1142
  br i1 %_30, label %panic1, label %bb12, !dbg !1142, !prof !334

bb12:                                             ; preds = %bb11
  %_26 = lshr i16 %_21, 8, !dbg !1143
  %9 = getelementptr inbounds i8, i8* %6, i64 1, !dbg !1142
  %10 = trunc i16 %_26 to i8, !dbg !1142
  store i8 %10, i8* %9, align 1, !dbg !1142
  call void @llvm.dbg.value(metadata %"core::iter::adapters::Take<core::iter::adapters::zip::Zip<core::slice::Iter<u16>, core::slice::ChunksMut<u8>>>"* undef, metadata !1070, metadata !DIExpression(DW_OP_deref)), !dbg !1105
  call void @llvm.dbg.value(metadata %"core::iter::adapters::Take<core::iter::adapters::zip::Zip<core::slice::Iter<u16>, core::slice::ChunksMut<u8>>>"* undef, metadata !588, metadata !DIExpression()) #5, !dbg !1106
  %_2.i = icmp eq i64 %2, 0, !dbg !1144
  br i1 %_2.i, label %bb8, label %bb2.i, !dbg !1108

panic:                                            ; preds = %bb10
; call core::panicking::panic_bounds_check
  tail call void @_ZN4core9panicking18panic_bounds_check17h566454b12ba8f623E(i64 0, i64 0, %"core::panic::Location"* noalias readonly align 8 dereferenceable(24) bitcast (<{ i8*, [16 x i8] }>* @alloc105 to %"core::panic::Location"*)), !dbg !1139
  unreachable, !dbg !1139

panic1:                                           ; preds = %bb11
; call core::panicking::panic_bounds_check
  tail call void @_ZN4core9panicking18panic_bounds_check17h566454b12ba8f623E(i64 1, i64 1, %"core::panic::Location"* noalias readonly align 8 dereferenceable(24) bitcast (<{ i8*, [16 x i8] }>* @alloc107 to %"core::panic::Location"*)), !dbg !1142
  unreachable, !dbg !1142
}

; iterator_bench::zip_chunks_unknown_size_take_iter_impl
; Function Attrs: noinline nonlazybind uwtable
define void @_ZN14iterator_bench38zip_chunks_unknown_size_take_iter_impl17he60b9c1c78a81209E([0 x i8]* nonnull align 1 %output.0, i64 %output.1, [0 x i16]* noalias nonnull readonly align 2 %input.0, i64 %input.1) unnamed_addr #1 personality i32 (i32, i32, i64, %"unwind::libunwind::_Unwind_Exception"*, %"unwind::libunwind::_Unwind_Context"*)* @rust_eh_personality !dbg !1145 {
start:
  call void @llvm.dbg.value(metadata [0 x i8]* %output.0, metadata !1147, metadata !DIExpression(DW_OP_LLVM_fragment, 0, 64)), !dbg !1168
  call void @llvm.dbg.value(metadata i64 %output.1, metadata !1147, metadata !DIExpression(DW_OP_LLVM_fragment, 64, 64)), !dbg !1168
  call void @llvm.dbg.value(metadata [0 x i16]* %input.0, metadata !1148, metadata !DIExpression(DW_OP_LLVM_fragment, 0, 64)), !dbg !1168
  call void @llvm.dbg.value(metadata i64 %input.1, metadata !1148, metadata !DIExpression(DW_OP_LLVM_fragment, 64, 64)), !dbg !1168
  call void @llvm.dbg.value(metadata [0 x i8]* %output.0, metadata !753, metadata !DIExpression(DW_OP_LLVM_fragment, 0, 64)), !dbg !1169
  call void @llvm.dbg.value(metadata i64 %output.1, metadata !753, metadata !DIExpression(DW_OP_LLVM_fragment, 64, 64)), !dbg !1169
  call void @llvm.dbg.value(metadata i64 2, metadata !753, metadata !DIExpression(DW_OP_LLVM_fragment, 128, 64)), !dbg !1169
  call void @llvm.dbg.value(metadata [0 x i16]* %input.0, metadata !762, metadata !DIExpression(DW_OP_LLVM_fragment, 0, 64)), !dbg !1169
  call void @llvm.dbg.value(metadata [0 x i8]* %output.0, metadata !768, metadata !DIExpression(DW_OP_LLVM_fragment, 0, 64)), !dbg !1171
  call void @llvm.dbg.value(metadata i64 %output.1, metadata !768, metadata !DIExpression(DW_OP_LLVM_fragment, 64, 64)), !dbg !1171
  call void @llvm.dbg.value(metadata i64 2, metadata !768, metadata !DIExpression(DW_OP_LLVM_fragment, 128, 64)), !dbg !1171
  call void @llvm.dbg.value(metadata [0 x i16]* %input.0, metadata !771, metadata !DIExpression(DW_OP_LLVM_fragment, 0, 64)), !dbg !1171
  call void @llvm.dbg.value(metadata i64 %output.1, metadata !774, metadata !DIExpression(DW_OP_LLVM_fragment, 64, 64)), !dbg !1173
  call void @llvm.dbg.value(metadata i64 2, metadata !774, metadata !DIExpression(DW_OP_LLVM_fragment, 128, 64)), !dbg !1173
  call void @llvm.dbg.value(metadata [0 x i8]* undef, metadata !882, metadata !DIExpression(DW_OP_LLVM_fragment, 0, 64)), !dbg !1175
  call void @llvm.dbg.value(metadata i64 %output.1, metadata !882, metadata !DIExpression(DW_OP_LLVM_fragment, 64, 64)), !dbg !1175
  %0 = icmp eq i64 %output.1, 0, !dbg !1179
  br i1 %0, label %_ZN4core4iter6traits8iterator8Iterator3zip17h4af0dced40c2956aE.exit, label %bb7.i.i.i.i.i, !dbg !1180

bb7.i.i.i.i.i:                                    ; preds = %start
  %n1.i.i.i.i.i = lshr i64 %output.1, 1, !dbg !1181
  call void @llvm.dbg.value(metadata i64 %n1.i.i.i.i.i, metadata !903, metadata !DIExpression()), !dbg !1182
  %rem.i.i.i.i.i = and i64 %output.1, 1, !dbg !1183
  call void @llvm.dbg.value(metadata i64 %rem.i.i.i.i.i, metadata !905, metadata !DIExpression()), !dbg !1184
  %n.0.i.i.i.i.i = add nuw i64 %n1.i.i.i.i.i, %rem.i.i.i.i.i, !dbg !1185
  br label %_ZN4core4iter6traits8iterator8Iterator3zip17h4af0dced40c2956aE.exit, !dbg !1180

_ZN4core4iter6traits8iterator8Iterator3zip17h4af0dced40c2956aE.exit: ; preds = %start, %bb7.i.i.i.i.i
  %_3.sroa.8.0.i.i.i.i = phi i64 [ %n.0.i.i.i.i.i, %bb7.i.i.i.i.i ], [ 0, %start ], !dbg !1186
  call void @llvm.dbg.value(metadata i64 %input.1, metadata !782, metadata !DIExpression()), !dbg !1187
  call void @llvm.dbg.value(metadata i64 %_3.sroa.8.0.i.i.i.i, metadata !785, metadata !DIExpression()), !dbg !1187
  call void @llvm.dbg.value(metadata i64 %input.1, metadata !788, metadata !DIExpression()), !dbg !1189
  call void @llvm.dbg.value(metadata i64 %_3.sroa.8.0.i.i.i.i, metadata !791, metadata !DIExpression()), !dbg !1189
  call void @llvm.dbg.value(metadata i64 %input.1, metadata !794, metadata !DIExpression()), !dbg !1191
  call void @llvm.dbg.value(metadata i64 %_3.sroa.8.0.i.i.i.i, metadata !797, metadata !DIExpression()), !dbg !1191
  %1 = icmp ult i64 %_3.sroa.8.0.i.i.i.i, %input.1, !dbg !1193
  %.0.sroa.speculated.i.i.i.i.i.i = select i1 %1, i64 %_3.sroa.8.0.i.i.i.i, i64 %input.1, !dbg !1191
  call void @llvm.dbg.value(metadata %"core::iter::adapters::Take<core::iter::adapters::zip::Zip<core::slice::Iter<u16>, core::slice::ChunksMut<u8>>>"* undef, metadata !1149, metadata !DIExpression(DW_OP_deref)), !dbg !1194
  call void @llvm.dbg.value(metadata %"core::iter::adapters::Take<core::iter::adapters::zip::Zip<core::slice::Iter<u16>, core::slice::ChunksMut<u8>>>"* undef, metadata !588, metadata !DIExpression()) #5, !dbg !1195
  br label %bb2.i, !dbg !1197

bb6.loopexit:                                     ; preds = %bb17.prol.loopexit, %bb17, %bb10
  call void @llvm.dbg.value(metadata %"core::iter::adapters::Take<core::iter::adapters::zip::Zip<core::slice::Iter<u16>, core::slice::ChunksMut<u8>>>"* undef, metadata !1149, metadata !DIExpression(DW_OP_deref)), !dbg !1194
  call void @llvm.dbg.value(metadata %"core::iter::adapters::Take<core::iter::adapters::zip::Zip<core::slice::Iter<u16>, core::slice::ChunksMut<u8>>>"* undef, metadata !588, metadata !DIExpression()) #5, !dbg !1195
  %_2.i = icmp eq i64 %9, 0, !dbg !1198
  br i1 %_2.i, label %bb8, label %bb2.i, !dbg !1197

bb2.i:                                            ; preds = %_ZN4core4iter6traits8iterator8Iterator3zip17h4af0dced40c2956aE.exit, %bb6.loopexit
  %iter.sroa.16.0116 = phi i64 [ 320000, %_ZN4core4iter6traits8iterator8Iterator3zip17h4af0dced40c2956aE.exit ], [ %9, %bb6.loopexit ]
  %iter.sroa.11.0115 = phi i64 [ 0, %_ZN4core4iter6traits8iterator8Iterator3zip17h4af0dced40c2956aE.exit ], [ %10, %bb6.loopexit ]
  %2 = shl nuw nsw i64 %iter.sroa.11.0115, 1, !dbg !1199
  %3 = add nuw i64 %2, 2, !dbg !1199
  %4 = icmp ugt i64 %3, %output.1, !dbg !1199
  %umin = select i1 %4, i64 %output.1, i64 %3, !dbg !1199
  %5 = mul nsw i64 %iter.sroa.11.0115, -2, !dbg !1199
  %6 = add i64 %umin, %5, !dbg !1199
  %7 = add i64 %5, -1, !dbg !1199
  %8 = add i64 %umin, %7, !dbg !1199
  %9 = add nsw i64 %iter.sroa.16.0116, -1, !dbg !1199
  call void @llvm.dbg.value(metadata %"core::iter::adapters::Take<core::iter::adapters::zip::Zip<core::slice::Iter<u16>, core::slice::ChunksMut<u8>>>"* undef, metadata !488, metadata !DIExpression()) #5, !dbg !1200
  call void @llvm.dbg.value(metadata %"core::iter::adapters::Take<core::iter::adapters::zip::Zip<core::slice::Iter<u16>, core::slice::ChunksMut<u8>>>"* undef, metadata !510, metadata !DIExpression()) #5, !dbg !1202
  %_2.i.i.i = icmp ult i64 %iter.sroa.11.0115, %.0.sroa.speculated.i.i.i.i.i.i, !dbg !1204
  br i1 %_2.i.i.i, label %bb10, label %bb8, !dbg !1205

bb8:                                              ; preds = %bb6.loopexit, %bb2.i
  ret void, !dbg !1206

bb10:                                             ; preds = %bb2.i
  call void @llvm.dbg.value(metadata %"core::iter::adapters::Take<core::iter::adapters::zip::Zip<core::slice::Iter<u16>, core::slice::ChunksMut<u8>>>"* undef, metadata !488, metadata !DIExpression()) #5, !dbg !1200
  call void @llvm.dbg.value(metadata %"core::iter::adapters::Take<core::iter::adapters::zip::Zip<core::slice::Iter<u16>, core::slice::ChunksMut<u8>>>"* undef, metadata !510, metadata !DIExpression()) #5, !dbg !1202
  call void @llvm.dbg.value(metadata i64 %iter.sroa.11.0115, metadata !513, metadata !DIExpression()) #5, !dbg !1207
  %10 = add nuw nsw i64 %iter.sroa.11.0115, 1, !dbg !1208
  call void @llvm.dbg.value(metadata i64 %iter.sroa.11.0115, metadata !541, metadata !DIExpression()) #5, !dbg !1209
  call void @llvm.dbg.value(metadata [0 x i16]* %input.0, metadata !532, metadata !DIExpression()) #5, !dbg !1211
  call void @llvm.dbg.value(metadata i64 %iter.sroa.11.0115, metadata !533, metadata !DIExpression()) #5, !dbg !1211
  call void @llvm.dbg.value(metadata [0 x i16]* %input.0, metadata !525, metadata !DIExpression()) #5, !dbg !1213
  call void @llvm.dbg.value(metadata i64 %iter.sroa.11.0115, metadata !526, metadata !DIExpression()) #5, !dbg !1213
  call void @llvm.dbg.value(metadata %"core::slice::ChunksMut<u8>"* undef, metadata !549, metadata !DIExpression()) #5, !dbg !1215
  call void @llvm.dbg.value(metadata i64 %iter.sroa.11.0115, metadata !550, metadata !DIExpression()) #5, !dbg !1215
  %start1.i.i.i.i = shl nuw i64 %iter.sroa.11.0115, 1, !dbg !1217
  call void @llvm.dbg.value(metadata i64 %start1.i.i.i.i, metadata !551, metadata !DIExpression()) #5, !dbg !1218
  %11 = add nuw nsw i64 %start1.i.i.i.i, 2
  %12 = icmp ugt i64 %11, %output.1, !dbg !1219
  %end.0.i.i.i.i = select i1 %12, i64 %output.1, i64 %11, !dbg !1219
  call void @llvm.dbg.value(metadata i64 %end.0.i.i.i.i, metadata !553, metadata !DIExpression()) #5, !dbg !1220
  call void @llvm.dbg.value(metadata [0 x i8]* %output.0, metadata !192, metadata !DIExpression()) #5, !dbg !1221
  call void @llvm.dbg.value(metadata i64 %start1.i.i.i.i, metadata !193, metadata !DIExpression()) #5, !dbg !1221
  call void @llvm.dbg.value(metadata [0 x i8]* %output.0, metadata !183, metadata !DIExpression()) #5, !dbg !1223
  call void @llvm.dbg.value(metadata i64 %start1.i.i.i.i, metadata !184, metadata !DIExpression()) #5, !dbg !1223
  call void @llvm.dbg.value(metadata i16* undef, metadata !1151, metadata !DIExpression(DW_OP_LLVM_fragment, 0, 64)), !dbg !1225
  call void @llvm.dbg.value(metadata i8* undef, metadata !1151, metadata !DIExpression(DW_OP_LLVM_fragment, 64, 64)), !dbg !1225
  call void @llvm.dbg.value(metadata i8* undef, metadata !1157, metadata !DIExpression(DW_OP_LLVM_fragment, 0, 64)), !dbg !1226
  call void @llvm.dbg.value(metadata i16 undef, metadata !1155, metadata !DIExpression()), !dbg !1226
  call void @llvm.dbg.value(metadata i16 undef, metadata !1158, metadata !DIExpression()), !dbg !1227
  call void @llvm.dbg.value(metadata i8* undef, metadata !681, metadata !DIExpression(DW_OP_LLVM_fragment, 0, 64)), !dbg !1228
  call void @llvm.dbg.value(metadata i8* undef, metadata !686, metadata !DIExpression()), !dbg !1230
  call void @llvm.dbg.value(metadata i8* undef, metadata !192, metadata !DIExpression()), !dbg !1231
  call void @llvm.dbg.value(metadata i8* undef, metadata !183, metadata !DIExpression()), !dbg !1233
  %13 = getelementptr inbounds [0 x i8], [0 x i8]* %output.0, i64 0, i64 %end.0.i.i.i.i, !dbg !1235
  call void @llvm.dbg.value(metadata i16 undef, metadata !1158, metadata !DIExpression()), !dbg !1227
  call void @llvm.dbg.value(metadata { i8*, i8* }* undef, metadata !1160, metadata !DIExpression(DW_OP_deref)), !dbg !1236
  call void @llvm.dbg.value(metadata { i8*, i8* }* undef, metadata !698, metadata !DIExpression()), !dbg !1237
  %_13.i112 = icmp eq i64 %start1.i.i.i.i, %end.0.i.i.i.i, !dbg !1239
  br i1 %_13.i112, label %bb6.loopexit, label %bb17.preheader, !dbg !1240

bb17.preheader:                                   ; preds = %bb10
  %14 = getelementptr inbounds [0 x i16], [0 x i16]* %input.0, i64 0, i64 %iter.sroa.11.0115, !dbg !1241
  call void @llvm.dbg.value(metadata i16* %14, metadata !1151, metadata !DIExpression(DW_OP_LLVM_fragment, 0, 64)), !dbg !1225
  %b = load i16, i16* %14, align 2, !dbg !1242
  call void @llvm.dbg.value(metadata i16 %b, metadata !1155, metadata !DIExpression()), !dbg !1226
  call void @llvm.dbg.value(metadata i16 %b, metadata !1158, metadata !DIExpression()), !dbg !1227
  call void @llvm.dbg.value(metadata i16 %b, metadata !1158, metadata !DIExpression()), !dbg !1227
  %15 = getelementptr inbounds [0 x i8], [0 x i8]* %output.0, i64 0, i64 %start1.i.i.i.i, !dbg !1243
  call void @llvm.dbg.value(metadata i8* %15, metadata !686, metadata !DIExpression()), !dbg !1230
  call void @llvm.dbg.value(metadata i8* %15, metadata !192, metadata !DIExpression()), !dbg !1231
  call void @llvm.dbg.value(metadata i8* %15, metadata !183, metadata !DIExpression()), !dbg !1233
  call void @llvm.dbg.value(metadata i8* %15, metadata !681, metadata !DIExpression(DW_OP_LLVM_fragment, 0, 64)), !dbg !1228
  call void @llvm.dbg.value(metadata i8* %15, metadata !1157, metadata !DIExpression(DW_OP_LLVM_fragment, 0, 64)), !dbg !1226
  call void @llvm.dbg.value(metadata i8* %15, metadata !1151, metadata !DIExpression(DW_OP_LLVM_fragment, 64, 64)), !dbg !1225
  %xtraiter = and i64 %6, 7, !dbg !1240
  %lcmp.mod = icmp eq i64 %xtraiter, 0, !dbg !1240
  br i1 %lcmp.mod, label %bb17.prol.loopexit, label %bb17.prol, !dbg !1240

bb17.prol:                                        ; preds = %bb17.preheader, %bb17.prol
  %val1.0114.prol = phi i16 [ %18, %bb17.prol ], [ %b, %bb17.preheader ]
  %iter2.sroa.0.0113.prol = phi i8* [ %16, %bb17.prol ], [ %15, %bb17.preheader ]
  %prol.iter = phi i64 [ %prol.iter.sub, %bb17.prol ], [ %xtraiter, %bb17.preheader ]
  call void @llvm.dbg.value(metadata i16 %val1.0114.prol, metadata !1158, metadata !DIExpression()), !dbg !1227
  call void @llvm.dbg.value(metadata { i8*, i8* }* undef, metadata !719, metadata !DIExpression()), !dbg !1244
  call void @llvm.dbg.value(metadata i64 1, metadata !724, metadata !DIExpression()), !dbg !1244
  call void @llvm.dbg.value(metadata i8* %iter2.sroa.0.0113.prol, metadata !725, metadata !DIExpression()), !dbg !1246
  call void @llvm.dbg.value(metadata i8* %iter2.sroa.0.0113.prol, metadata !183, metadata !DIExpression()), !dbg !1247
  call void @llvm.dbg.value(metadata i64 1, metadata !184, metadata !DIExpression()), !dbg !1247
  %16 = getelementptr inbounds i8, i8* %iter2.sroa.0.0113.prol, i64 1, !dbg !1249
  call void @llvm.dbg.value(metadata i8* %iter2.sroa.0.0113.prol, metadata !1162, metadata !DIExpression()), !dbg !1250
  call void @llvm.dbg.value(metadata i8* %iter2.sroa.0.0113.prol, metadata !1166, metadata !DIExpression()), !dbg !1251
  %17 = trunc i16 %val1.0114.prol to i8, !dbg !1252
  store i8 %17, i8* %iter2.sroa.0.0113.prol, align 1, !dbg !1252
  %18 = lshr i16 %val1.0114.prol, 8, !dbg !1253
  call void @llvm.dbg.value(metadata i16 %18, metadata !1158, metadata !DIExpression()), !dbg !1227
  call void @llvm.dbg.value(metadata { i8*, i8* }* undef, metadata !1160, metadata !DIExpression(DW_OP_deref)), !dbg !1236
  call void @llvm.dbg.value(metadata { i8*, i8* }* undef, metadata !698, metadata !DIExpression()), !dbg !1237
  %prol.iter.sub = add i64 %prol.iter, -1, !dbg !1240
  %prol.iter.cmp = icmp eq i64 %prol.iter.sub, 0, !dbg !1240
  br i1 %prol.iter.cmp, label %bb17.prol.loopexit, label %bb17.prol, !dbg !1240, !llvm.loop !1254

bb17.prol.loopexit:                               ; preds = %bb17.prol, %bb17.preheader
  %val1.0114.unr = phi i16 [ %b, %bb17.preheader ], [ %18, %bb17.prol ]
  %iter2.sroa.0.0113.unr = phi i8* [ %15, %bb17.preheader ], [ %16, %bb17.prol ]
  %19 = icmp ult i64 %8, 7, !dbg !1240
  br i1 %19, label %bb6.loopexit, label %bb17, !dbg !1240

bb17:                                             ; preds = %bb17.prol.loopexit, %bb17
  %val1.0114 = phi i16 [ 0, %bb17 ], [ %val1.0114.unr, %bb17.prol.loopexit ]
  %iter2.sroa.0.0113 = phi i8* [ %30, %bb17 ], [ %iter2.sroa.0.0113.unr, %bb17.prol.loopexit ]
  call void @llvm.dbg.value(metadata i16 %val1.0114, metadata !1158, metadata !DIExpression()), !dbg !1227
  call void @llvm.dbg.value(metadata { i8*, i8* }* undef, metadata !719, metadata !DIExpression()), !dbg !1244
  call void @llvm.dbg.value(metadata i64 1, metadata !724, metadata !DIExpression()), !dbg !1244
  call void @llvm.dbg.value(metadata i8* %iter2.sroa.0.0113, metadata !725, metadata !DIExpression()), !dbg !1246
  call void @llvm.dbg.value(metadata i8* %iter2.sroa.0.0113, metadata !183, metadata !DIExpression()), !dbg !1247
  call void @llvm.dbg.value(metadata i64 1, metadata !184, metadata !DIExpression()), !dbg !1247
  %20 = getelementptr inbounds i8, i8* %iter2.sroa.0.0113, i64 1, !dbg !1249
  call void @llvm.dbg.value(metadata i8* %iter2.sroa.0.0113, metadata !1162, metadata !DIExpression()), !dbg !1250
  call void @llvm.dbg.value(metadata i8* %iter2.sroa.0.0113, metadata !1166, metadata !DIExpression()), !dbg !1251
  %21 = trunc i16 %val1.0114 to i8, !dbg !1252
  store i8 %21, i8* %iter2.sroa.0.0113, align 1, !dbg !1252
  %22 = lshr i16 %val1.0114, 8, !dbg !1253
  call void @llvm.dbg.value(metadata i16 %22, metadata !1158, metadata !DIExpression()), !dbg !1227
  call void @llvm.dbg.value(metadata { i8*, i8* }* undef, metadata !1160, metadata !DIExpression(DW_OP_deref)), !dbg !1236
  call void @llvm.dbg.value(metadata { i8*, i8* }* undef, metadata !698, metadata !DIExpression()), !dbg !1237
  call void @llvm.dbg.value(metadata i16 %22, metadata !1158, metadata !DIExpression()), !dbg !1227
  call void @llvm.dbg.value(metadata { i8*, i8* }* undef, metadata !719, metadata !DIExpression()), !dbg !1244
  call void @llvm.dbg.value(metadata i64 1, metadata !724, metadata !DIExpression()), !dbg !1244
  call void @llvm.dbg.value(metadata i8* %20, metadata !725, metadata !DIExpression()), !dbg !1246
  call void @llvm.dbg.value(metadata i8* %20, metadata !183, metadata !DIExpression()), !dbg !1247
  call void @llvm.dbg.value(metadata i64 1, metadata !184, metadata !DIExpression()), !dbg !1247
  %23 = getelementptr inbounds i8, i8* %iter2.sroa.0.0113, i64 2, !dbg !1249
  call void @llvm.dbg.value(metadata i8* %20, metadata !1162, metadata !DIExpression()), !dbg !1250
  call void @llvm.dbg.value(metadata i8* %20, metadata !1166, metadata !DIExpression()), !dbg !1251
  %24 = trunc i16 %22 to i8, !dbg !1252
  store i8 %24, i8* %20, align 1, !dbg !1252
  call void @llvm.dbg.value(metadata i16 0, metadata !1158, metadata !DIExpression()), !dbg !1227
  call void @llvm.dbg.value(metadata { i8*, i8* }* undef, metadata !1160, metadata !DIExpression(DW_OP_deref)), !dbg !1236
  call void @llvm.dbg.value(metadata { i8*, i8* }* undef, metadata !698, metadata !DIExpression()), !dbg !1237
  call void @llvm.dbg.value(metadata i16 0, metadata !1158, metadata !DIExpression()), !dbg !1227
  call void @llvm.dbg.value(metadata { i8*, i8* }* undef, metadata !719, metadata !DIExpression()), !dbg !1244
  call void @llvm.dbg.value(metadata i64 1, metadata !724, metadata !DIExpression()), !dbg !1244
  call void @llvm.dbg.value(metadata i8* %23, metadata !725, metadata !DIExpression()), !dbg !1246
  call void @llvm.dbg.value(metadata i8* %23, metadata !183, metadata !DIExpression()), !dbg !1247
  call void @llvm.dbg.value(metadata i64 1, metadata !184, metadata !DIExpression()), !dbg !1247
  %25 = getelementptr inbounds i8, i8* %iter2.sroa.0.0113, i64 3, !dbg !1249
  call void @llvm.dbg.value(metadata i8* %23, metadata !1162, metadata !DIExpression()), !dbg !1250
  call void @llvm.dbg.value(metadata i8* %23, metadata !1166, metadata !DIExpression()), !dbg !1251
  store i8 0, i8* %23, align 1, !dbg !1252
  call void @llvm.dbg.value(metadata i16 0, metadata !1158, metadata !DIExpression()), !dbg !1227
  call void @llvm.dbg.value(metadata { i8*, i8* }* undef, metadata !1160, metadata !DIExpression(DW_OP_deref)), !dbg !1236
  call void @llvm.dbg.value(metadata { i8*, i8* }* undef, metadata !698, metadata !DIExpression()), !dbg !1237
  call void @llvm.dbg.value(metadata i16 0, metadata !1158, metadata !DIExpression()), !dbg !1227
  call void @llvm.dbg.value(metadata { i8*, i8* }* undef, metadata !719, metadata !DIExpression()), !dbg !1244
  call void @llvm.dbg.value(metadata i64 1, metadata !724, metadata !DIExpression()), !dbg !1244
  call void @llvm.dbg.value(metadata i8* %25, metadata !725, metadata !DIExpression()), !dbg !1246
  call void @llvm.dbg.value(metadata i8* %25, metadata !183, metadata !DIExpression()), !dbg !1247
  call void @llvm.dbg.value(metadata i64 1, metadata !184, metadata !DIExpression()), !dbg !1247
  %26 = getelementptr inbounds i8, i8* %iter2.sroa.0.0113, i64 4, !dbg !1249
  call void @llvm.dbg.value(metadata i8* %25, metadata !1162, metadata !DIExpression()), !dbg !1250
  call void @llvm.dbg.value(metadata i8* %25, metadata !1166, metadata !DIExpression()), !dbg !1251
  store i8 0, i8* %25, align 1, !dbg !1252
  call void @llvm.dbg.value(metadata i16 0, metadata !1158, metadata !DIExpression()), !dbg !1227
  call void @llvm.dbg.value(metadata { i8*, i8* }* undef, metadata !1160, metadata !DIExpression(DW_OP_deref)), !dbg !1236
  call void @llvm.dbg.value(metadata { i8*, i8* }* undef, metadata !698, metadata !DIExpression()), !dbg !1237
  call void @llvm.dbg.value(metadata i16 0, metadata !1158, metadata !DIExpression()), !dbg !1227
  call void @llvm.dbg.value(metadata { i8*, i8* }* undef, metadata !719, metadata !DIExpression()), !dbg !1244
  call void @llvm.dbg.value(metadata i64 1, metadata !724, metadata !DIExpression()), !dbg !1244
  call void @llvm.dbg.value(metadata i8* %26, metadata !725, metadata !DIExpression()), !dbg !1246
  call void @llvm.dbg.value(metadata i8* %26, metadata !183, metadata !DIExpression()), !dbg !1247
  call void @llvm.dbg.value(metadata i64 1, metadata !184, metadata !DIExpression()), !dbg !1247
  %27 = getelementptr inbounds i8, i8* %iter2.sroa.0.0113, i64 5, !dbg !1249
  call void @llvm.dbg.value(metadata i8* %26, metadata !1162, metadata !DIExpression()), !dbg !1250
  call void @llvm.dbg.value(metadata i8* %26, metadata !1166, metadata !DIExpression()), !dbg !1251
  store i8 0, i8* %26, align 1, !dbg !1252
  call void @llvm.dbg.value(metadata i16 0, metadata !1158, metadata !DIExpression()), !dbg !1227
  call void @llvm.dbg.value(metadata { i8*, i8* }* undef, metadata !1160, metadata !DIExpression(DW_OP_deref)), !dbg !1236
  call void @llvm.dbg.value(metadata { i8*, i8* }* undef, metadata !698, metadata !DIExpression()), !dbg !1237
  call void @llvm.dbg.value(metadata i16 0, metadata !1158, metadata !DIExpression()), !dbg !1227
  call void @llvm.dbg.value(metadata { i8*, i8* }* undef, metadata !719, metadata !DIExpression()), !dbg !1244
  call void @llvm.dbg.value(metadata i64 1, metadata !724, metadata !DIExpression()), !dbg !1244
  call void @llvm.dbg.value(metadata i8* %27, metadata !725, metadata !DIExpression()), !dbg !1246
  call void @llvm.dbg.value(metadata i8* %27, metadata !183, metadata !DIExpression()), !dbg !1247
  call void @llvm.dbg.value(metadata i64 1, metadata !184, metadata !DIExpression()), !dbg !1247
  %28 = getelementptr inbounds i8, i8* %iter2.sroa.0.0113, i64 6, !dbg !1249
  call void @llvm.dbg.value(metadata i8* %27, metadata !1162, metadata !DIExpression()), !dbg !1250
  call void @llvm.dbg.value(metadata i8* %27, metadata !1166, metadata !DIExpression()), !dbg !1251
  store i8 0, i8* %27, align 1, !dbg !1252
  call void @llvm.dbg.value(metadata i16 0, metadata !1158, metadata !DIExpression()), !dbg !1227
  call void @llvm.dbg.value(metadata { i8*, i8* }* undef, metadata !1160, metadata !DIExpression(DW_OP_deref)), !dbg !1236
  call void @llvm.dbg.value(metadata { i8*, i8* }* undef, metadata !698, metadata !DIExpression()), !dbg !1237
  call void @llvm.dbg.value(metadata i16 0, metadata !1158, metadata !DIExpression()), !dbg !1227
  call void @llvm.dbg.value(metadata { i8*, i8* }* undef, metadata !719, metadata !DIExpression()), !dbg !1244
  call void @llvm.dbg.value(metadata i64 1, metadata !724, metadata !DIExpression()), !dbg !1244
  call void @llvm.dbg.value(metadata i8* %28, metadata !725, metadata !DIExpression()), !dbg !1246
  call void @llvm.dbg.value(metadata i8* %28, metadata !183, metadata !DIExpression()), !dbg !1247
  call void @llvm.dbg.value(metadata i64 1, metadata !184, metadata !DIExpression()), !dbg !1247
  %29 = getelementptr inbounds i8, i8* %iter2.sroa.0.0113, i64 7, !dbg !1249
  call void @llvm.dbg.value(metadata i8* %28, metadata !1162, metadata !DIExpression()), !dbg !1250
  call void @llvm.dbg.value(metadata i8* %28, metadata !1166, metadata !DIExpression()), !dbg !1251
  store i8 0, i8* %28, align 1, !dbg !1252
  call void @llvm.dbg.value(metadata i16 0, metadata !1158, metadata !DIExpression()), !dbg !1227
  call void @llvm.dbg.value(metadata { i8*, i8* }* undef, metadata !1160, metadata !DIExpression(DW_OP_deref)), !dbg !1236
  call void @llvm.dbg.value(metadata { i8*, i8* }* undef, metadata !698, metadata !DIExpression()), !dbg !1237
  call void @llvm.dbg.value(metadata i16 0, metadata !1158, metadata !DIExpression()), !dbg !1227
  call void @llvm.dbg.value(metadata { i8*, i8* }* undef, metadata !719, metadata !DIExpression()), !dbg !1244
  call void @llvm.dbg.value(metadata i64 1, metadata !724, metadata !DIExpression()), !dbg !1244
  call void @llvm.dbg.value(metadata i8* %29, metadata !725, metadata !DIExpression()), !dbg !1246
  call void @llvm.dbg.value(metadata i8* %29, metadata !183, metadata !DIExpression()), !dbg !1247
  call void @llvm.dbg.value(metadata i64 1, metadata !184, metadata !DIExpression()), !dbg !1247
  %30 = getelementptr inbounds i8, i8* %iter2.sroa.0.0113, i64 8, !dbg !1249
  call void @llvm.dbg.value(metadata i8* %29, metadata !1162, metadata !DIExpression()), !dbg !1250
  call void @llvm.dbg.value(metadata i8* %29, metadata !1166, metadata !DIExpression()), !dbg !1251
  store i8 0, i8* %29, align 1, !dbg !1252
  call void @llvm.dbg.value(metadata i16 0, metadata !1158, metadata !DIExpression()), !dbg !1227
  call void @llvm.dbg.value(metadata { i8*, i8* }* undef, metadata !1160, metadata !DIExpression(DW_OP_deref)), !dbg !1236
  call void @llvm.dbg.value(metadata { i8*, i8* }* undef, metadata !698, metadata !DIExpression()), !dbg !1237
  %_13.i.7 = icmp eq i8* %30, %13, !dbg !1239
  br i1 %_13.i.7, label %bb6.loopexit, label %bb17, !dbg !1240
}

; iterator_bench::zip_chunks_exact_unknown_size_impl
; Function Attrs: noinline nonlazybind uwtable
define void @_ZN14iterator_bench34zip_chunks_exact_unknown_size_impl17h5ce289f572621fc4E([0 x i8]* nonnull align 1 %output.0, i64 %output.1, [0 x i16]* noalias nonnull readonly align 2 %input.0, i64 %input.1) unnamed_addr #1 personality i32 (i32, i32, i64, %"unwind::libunwind::_Unwind_Exception"*, %"unwind::libunwind::_Unwind_Context"*)* @rust_eh_personality !dbg !1256 {
_ZN4core4iter6traits8iterator8Iterator3zip17hbd84c1e91fef80f8E.exit:
  call void @llvm.dbg.value(metadata [0 x i8]* %output.0, metadata !1258, metadata !DIExpression(DW_OP_LLVM_fragment, 0, 64)), !dbg !1282
  call void @llvm.dbg.value(metadata i64 %output.1, metadata !1258, metadata !DIExpression(DW_OP_LLVM_fragment, 64, 64)), !dbg !1282
  call void @llvm.dbg.value(metadata [0 x i16]* %input.0, metadata !1259, metadata !DIExpression(DW_OP_LLVM_fragment, 0, 64)), !dbg !1282
  call void @llvm.dbg.value(metadata i64 %input.1, metadata !1259, metadata !DIExpression(DW_OP_LLVM_fragment, 64, 64)), !dbg !1282
  call void @llvm.dbg.value(metadata [0 x i8]* %output.0, metadata !192, metadata !DIExpression()), !dbg !1283
  call void @llvm.dbg.value(metadata i64 %output.1, metadata !193, metadata !DIExpression(DW_OP_constu, 18446744073709551614, DW_OP_and, DW_OP_stack_value)), !dbg !1283
  call void @llvm.dbg.value(metadata [0 x i8]* %output.0, metadata !183, metadata !DIExpression()), !dbg !1314
  call void @llvm.dbg.value(metadata i64 %output.1, metadata !184, metadata !DIExpression(DW_OP_constu, 18446744073709551614, DW_OP_and, DW_OP_stack_value)), !dbg !1314
  call void @llvm.dbg.value(metadata [0 x i8]* %output.0, metadata !1316, metadata !DIExpression(DW_OP_LLVM_fragment, 0, 64)), !dbg !1324
  call void @llvm.dbg.value(metadata i64 %output.1, metadata !1316, metadata !DIExpression(DW_OP_constu, 18446744073709551614, DW_OP_and, DW_OP_stack_value, DW_OP_LLVM_fragment, 64, 64)), !dbg !1324
  call void @llvm.dbg.value(metadata i8* undef, metadata !1316, metadata !DIExpression(DW_OP_LLVM_fragment, 128, 64)), !dbg !1324
  call void @llvm.dbg.value(metadata i64 %output.1, metadata !1316, metadata !DIExpression(DW_OP_constu, 1, DW_OP_and, DW_OP_stack_value, DW_OP_LLVM_fragment, 192, 64)), !dbg !1324
  call void @llvm.dbg.value(metadata i64 2, metadata !1316, metadata !DIExpression(DW_OP_LLVM_fragment, 256, 64)), !dbg !1324
  call void @llvm.dbg.value(metadata [0 x i16]* %input.0, metadata !1321, metadata !DIExpression(DW_OP_LLVM_fragment, 0, 64)), !dbg !1324
  call void @llvm.dbg.value(metadata [0 x i8]* %output.0, metadata !1326, metadata !DIExpression(DW_OP_LLVM_fragment, 0, 64)), !dbg !1330
  call void @llvm.dbg.value(metadata i64 %output.1, metadata !1326, metadata !DIExpression(DW_OP_constu, 18446744073709551614, DW_OP_and, DW_OP_stack_value, DW_OP_LLVM_fragment, 64, 64)), !dbg !1330
  call void @llvm.dbg.value(metadata i64 2, metadata !1326, metadata !DIExpression(DW_OP_LLVM_fragment, 256, 64)), !dbg !1330
  call void @llvm.dbg.value(metadata [0 x i16]* %input.0, metadata !1329, metadata !DIExpression(DW_OP_LLVM_fragment, 0, 64)), !dbg !1330
  call void @llvm.dbg.value(metadata i64 %output.1, metadata !1332, metadata !DIExpression(DW_OP_constu, 18446744073709551614, DW_OP_and, DW_OP_stack_value, DW_OP_LLVM_fragment, 64, 64)), !dbg !1338
  call void @llvm.dbg.value(metadata i64 2, metadata !1332, metadata !DIExpression(DW_OP_LLVM_fragment, 256, 64)), !dbg !1338
  %output.0101 = ptrtoint [0 x i8]* %output.0 to i64
  %n.i.i.i.i.i = lshr i64 %output.1, 1, !dbg !1340
  call void @llvm.dbg.value(metadata i64 %input.1, metadata !782, metadata !DIExpression()), !dbg !1367
  call void @llvm.dbg.value(metadata i64 %n.i.i.i.i.i, metadata !785, metadata !DIExpression()), !dbg !1367
  call void @llvm.dbg.value(metadata i64 %input.1, metadata !788, metadata !DIExpression()), !dbg !1369
  call void @llvm.dbg.value(metadata i64 %n.i.i.i.i.i, metadata !791, metadata !DIExpression()), !dbg !1369
  call void @llvm.dbg.value(metadata i64 %input.1, metadata !794, metadata !DIExpression()), !dbg !1371
  call void @llvm.dbg.value(metadata i64 %n.i.i.i.i.i, metadata !797, metadata !DIExpression()), !dbg !1371
  %0 = icmp ult i64 %n.i.i.i.i.i, %input.1, !dbg !1373
  %.0.sroa.speculated.i.i.i.i.i.i = select i1 %0, i64 %n.i.i.i.i.i, i64 %input.1, !dbg !1371
  call void @llvm.dbg.value(metadata %"core::iter::adapters::zip::Zip<core::slice::Iter<u16>, core::slice::ChunksExactMut<u8>>"* undef, metadata !1260, metadata !DIExpression(DW_OP_deref)), !dbg !1374
  call void @llvm.dbg.value(metadata %"core::iter::adapters::zip::Zip<core::slice::Iter<u16>, core::slice::ChunksExactMut<u8>>"* undef, metadata !1375, metadata !DIExpression()), !dbg !1381
  call void @llvm.dbg.value(metadata %"core::iter::adapters::zip::Zip<core::slice::Iter<u16>, core::slice::ChunksExactMut<u8>>"* undef, metadata !1383, metadata !DIExpression()), !dbg !1388
  %_2.i.i99 = icmp eq i64 %.0.sroa.speculated.i.i.i.i.i.i, 0, !dbg !1390
  br i1 %_2.i.i99, label %bb7, label %bb11.preheader, !dbg !1391

bb11.preheader:                                   ; preds = %_ZN4core4iter6traits8iterator8Iterator3zip17hbd84c1e91fef80f8E.exit
  %min.iters.check = icmp ult i64 %.0.sroa.speculated.i.i.i.i.i.i, 8, !dbg !1391
  br i1 %min.iters.check, label %bb11.preheader106, label %vector.scevcheck, !dbg !1391

bb11.preheader106:                                ; preds = %middle.block, %vector.scevcheck, %bb11.preheader
  %iter.sroa.11.0100.ph = phi i64 [ 0, %vector.scevcheck ], [ 0, %bb11.preheader ], [ %n.vec, %middle.block ]
  br label %bb11, !dbg !1391

vector.scevcheck:                                 ; preds = %bb11.preheader
  %1 = add nsw i64 %.0.sroa.speculated.i.i.i.i.i.i, -1, !dbg !1391
  %mul = call { i64, i1 } @llvm.umul.with.overflow.i64(i64 %1, i64 2), !dbg !1391
  %mul.result = extractvalue { i64, i1 } %mul, 0, !dbg !1391
  %mul.overflow = extractvalue { i64, i1 } %mul, 1, !dbg !1391
  %2 = xor i64 %output.0101, -1, !dbg !1391
  %3 = icmp ugt i64 %mul.result, %2, !dbg !1391
  %4 = or i1 %3, %mul.overflow, !dbg !1391
  %scevgep = getelementptr [0 x i8], [0 x i8]* %output.0, i64 0, i64 1, !dbg !1391
  %scevgep102 = ptrtoint i8* %scevgep to i64
  %mul103 = call { i64, i1 } @llvm.umul.with.overflow.i64(i64 %1, i64 2), !dbg !1391
  %mul.result104 = extractvalue { i64, i1 } %mul103, 0, !dbg !1391
  %mul.overflow105 = extractvalue { i64, i1 } %mul103, 1, !dbg !1391
  %5 = xor i64 %scevgep102, -1, !dbg !1391
  %6 = icmp ugt i64 %mul.result104, %5, !dbg !1391
  %7 = or i1 %6, %mul.overflow105, !dbg !1391
  %8 = or i1 %4, %7, !dbg !1391
  br i1 %8, label %bb11.preheader106, label %vector.ph, !dbg !1391

vector.ph:                                        ; preds = %vector.scevcheck
  %n.vec = and i64 %.0.sroa.speculated.i.i.i.i.i.i, 9223372036854775800, !dbg !1391
  %9 = add nsw i64 %n.vec, -8, !dbg !1391
  %10 = lshr exact i64 %9, 3, !dbg !1391
  %11 = add nuw nsw i64 %10, 1, !dbg !1391
  %xtraiter = and i64 %11, 1, !dbg !1391
  %12 = icmp eq i64 %9, 0, !dbg !1391
  br i1 %12, label %middle.block.unr-lcssa, label %vector.ph.new, !dbg !1391

vector.ph.new:                                    ; preds = %vector.ph
  %unroll_iter = sub nuw nsw i64 %11, %xtraiter, !dbg !1391
  br label %vector.body, !dbg !1391

vector.body:                                      ; preds = %vector.body, %vector.ph.new
  %index = phi i64 [ 0, %vector.ph.new ], [ %index.next.1, %vector.body ], !dbg !1392
  %niter = phi i64 [ %unroll_iter, %vector.ph.new ], [ %niter.nsub.1, %vector.body ]
  %13 = getelementptr inbounds [0 x i16], [0 x i16]* %input.0, i64 0, i64 %index, !dbg !1393
  %14 = shl i64 %index, 1, !dbg !1397
  %15 = getelementptr inbounds [0 x i8], [0 x i8]* %output.0, i64 0, i64 %14, !dbg !1408
  %16 = bitcast i16* %13 to <8 x i16>*, !dbg !1411
  %wide.load = load <8 x i16>, <8 x i16>* %16, align 2, !dbg !1411
  %17 = trunc <8 x i16> %wide.load to <8 x i8>, !dbg !1412
  %18 = lshr <8 x i16> %wide.load, <i16 8, i16 8, i16 8, i16 8, i16 8, i16 8, i16 8, i16 8>, !dbg !1413
  %19 = trunc <8 x i16> %18 to <8 x i8>, !dbg !1414
  %20 = bitcast i8* %15 to <16 x i8>*, !dbg !1414
  %interleaved.vec = shufflevector <8 x i8> %17, <8 x i8> %19, <16 x i32> <i32 0, i32 8, i32 1, i32 9, i32 2, i32 10, i32 3, i32 11, i32 4, i32 12, i32 5, i32 13, i32 6, i32 14, i32 7, i32 15>, !dbg !1414
  store <16 x i8> %interleaved.vec, <16 x i8>* %20, align 1, !dbg !1414
  %index.next = or i64 %index, 8, !dbg !1392
  %21 = getelementptr inbounds [0 x i16], [0 x i16]* %input.0, i64 0, i64 %index.next, !dbg !1393
  %22 = shl i64 %index.next, 1, !dbg !1397
  %23 = getelementptr inbounds [0 x i8], [0 x i8]* %output.0, i64 0, i64 %22, !dbg !1408
  %24 = bitcast i16* %21 to <8 x i16>*, !dbg !1411
  %wide.load.1 = load <8 x i16>, <8 x i16>* %24, align 2, !dbg !1411
  %25 = trunc <8 x i16> %wide.load.1 to <8 x i8>, !dbg !1412
  %26 = lshr <8 x i16> %wide.load.1, <i16 8, i16 8, i16 8, i16 8, i16 8, i16 8, i16 8, i16 8>, !dbg !1413
  %27 = trunc <8 x i16> %26 to <8 x i8>, !dbg !1414
  %28 = bitcast i8* %23 to <16 x i8>*, !dbg !1414
  %interleaved.vec.1 = shufflevector <8 x i8> %25, <8 x i8> %27, <16 x i32> <i32 0, i32 8, i32 1, i32 9, i32 2, i32 10, i32 3, i32 11, i32 4, i32 12, i32 5, i32 13, i32 6, i32 14, i32 7, i32 15>, !dbg !1414
  store <16 x i8> %interleaved.vec.1, <16 x i8>* %28, align 1, !dbg !1414
  %index.next.1 = add i64 %index, 16, !dbg !1392
  %niter.nsub.1 = add i64 %niter, -2, !dbg !1392
  %niter.ncmp.1 = icmp eq i64 %niter.nsub.1, 0, !dbg !1392
  br i1 %niter.ncmp.1, label %middle.block.unr-lcssa, label %vector.body, !dbg !1392, !llvm.loop !1415

middle.block.unr-lcssa:                           ; preds = %vector.body, %vector.ph
  %index.unr = phi i64 [ 0, %vector.ph ], [ %index.next.1, %vector.body ]
  %lcmp.mod = icmp eq i64 %xtraiter, 0, !dbg !1392
  br i1 %lcmp.mod, label %middle.block, label %vector.body.epil, !dbg !1392

vector.body.epil:                                 ; preds = %middle.block.unr-lcssa
  %29 = getelementptr inbounds [0 x i16], [0 x i16]* %input.0, i64 0, i64 %index.unr, !dbg !1393
  %30 = shl i64 %index.unr, 1, !dbg !1397
  %31 = getelementptr inbounds [0 x i8], [0 x i8]* %output.0, i64 0, i64 %30, !dbg !1408
  %32 = bitcast i16* %29 to <8 x i16>*, !dbg !1411
  %wide.load.epil = load <8 x i16>, <8 x i16>* %32, align 2, !dbg !1411
  %33 = trunc <8 x i16> %wide.load.epil to <8 x i8>, !dbg !1412
  %34 = lshr <8 x i16> %wide.load.epil, <i16 8, i16 8, i16 8, i16 8, i16 8, i16 8, i16 8, i16 8>, !dbg !1413
  %35 = trunc <8 x i16> %34 to <8 x i8>, !dbg !1414
  %36 = bitcast i8* %31 to <16 x i8>*, !dbg !1414
  %interleaved.vec.epil = shufflevector <8 x i8> %33, <8 x i8> %35, <16 x i32> <i32 0, i32 8, i32 1, i32 9, i32 2, i32 10, i32 3, i32 11, i32 4, i32 12, i32 5, i32 13, i32 6, i32 14, i32 7, i32 15>, !dbg !1414
  store <16 x i8> %interleaved.vec.epil, <16 x i8>* %36, align 1, !dbg !1414
  br label %middle.block, !dbg !1391

middle.block:                                     ; preds = %middle.block.unr-lcssa, %vector.body.epil
  %cmp.n = icmp eq i64 %.0.sroa.speculated.i.i.i.i.i.i, %n.vec, !dbg !1391
  br i1 %cmp.n, label %bb7, label %bb11.preheader106, !dbg !1391

bb7:                                              ; preds = %bb11, %middle.block, %_ZN4core4iter6traits8iterator8Iterator3zip17hbd84c1e91fef80f8E.exit
  ret void, !dbg !1416

bb11:                                             ; preds = %bb11.preheader106, %bb11
  %iter.sroa.11.0100 = phi i64 [ %37, %bb11 ], [ %iter.sroa.11.0100.ph, %bb11.preheader106 ]
  call void @llvm.dbg.value(metadata i64 %iter.sroa.11.0100, metadata !1386, metadata !DIExpression()), !dbg !1417
  %37 = add nuw i64 %iter.sroa.11.0100, 1, !dbg !1392
  call void @llvm.dbg.value(metadata i64 %iter.sroa.11.0100, metadata !541, metadata !DIExpression()), !dbg !1418
  call void @llvm.dbg.value(metadata [0 x i16]* %input.0, metadata !532, metadata !DIExpression()), !dbg !1419
  call void @llvm.dbg.value(metadata i64 %iter.sroa.11.0100, metadata !533, metadata !DIExpression()), !dbg !1419
  call void @llvm.dbg.value(metadata [0 x i16]* %input.0, metadata !525, metadata !DIExpression()), !dbg !1420
  call void @llvm.dbg.value(metadata i64 %iter.sroa.11.0100, metadata !526, metadata !DIExpression()), !dbg !1420
  %38 = getelementptr inbounds [0 x i16], [0 x i16]* %input.0, i64 0, i64 %iter.sroa.11.0100, !dbg !1393
  call void @llvm.dbg.value(metadata %"core::slice::ChunksExactMut<u8>"* undef, metadata !1403, metadata !DIExpression()), !dbg !1421
  call void @llvm.dbg.value(metadata i64 %iter.sroa.11.0100, metadata !1404, metadata !DIExpression()), !dbg !1421
  %start1.i.i.i = shl i64 %iter.sroa.11.0100, 1, !dbg !1397
  call void @llvm.dbg.value(metadata i64 %start1.i.i.i, metadata !1405, metadata !DIExpression()), !dbg !1422
  call void @llvm.dbg.value(metadata [0 x i8]* %output.0, metadata !192, metadata !DIExpression()), !dbg !1423
  call void @llvm.dbg.value(metadata i64 %start1.i.i.i, metadata !193, metadata !DIExpression()), !dbg !1423
  call void @llvm.dbg.value(metadata [0 x i8]* %output.0, metadata !183, metadata !DIExpression()), !dbg !1424
  call void @llvm.dbg.value(metadata i64 %start1.i.i.i, metadata !184, metadata !DIExpression()), !dbg !1424
  %39 = getelementptr inbounds [0 x i8], [0 x i8]* %output.0, i64 0, i64 %start1.i.i.i, !dbg !1408
  call void @llvm.dbg.value(metadata i16* %38, metadata !1275, metadata !DIExpression(DW_OP_LLVM_fragment, 0, 64)), !dbg !1425
  call void @llvm.dbg.value(metadata i8* %39, metadata !1275, metadata !DIExpression(DW_OP_LLVM_fragment, 64, 64)), !dbg !1425
  call void @llvm.dbg.value(metadata i64 2, metadata !1275, metadata !DIExpression(DW_OP_LLVM_fragment, 128, 64)), !dbg !1425
  call void @llvm.dbg.value(metadata i16* %38, metadata !1279, metadata !DIExpression()), !dbg !1426
  call void @llvm.dbg.value(metadata i8* %39, metadata !1281, metadata !DIExpression(DW_OP_LLVM_fragment, 0, 64)), !dbg !1426
  call void @llvm.dbg.value(metadata i64 2, metadata !1281, metadata !DIExpression(DW_OP_LLVM_fragment, 64, 64)), !dbg !1426
  %_20 = load i16, i16* %38, align 2, !dbg !1411
  %40 = trunc i16 %_20 to i8, !dbg !1412
  store i8 %40, i8* %39, align 1, !dbg !1412
  %_25 = lshr i16 %_20, 8, !dbg !1413
  %41 = getelementptr inbounds i8, i8* %39, i64 1, !dbg !1414
  %42 = trunc i16 %_25 to i8, !dbg !1414
  store i8 %42, i8* %41, align 1, !dbg !1414
  call void @llvm.dbg.value(metadata %"core::iter::adapters::zip::Zip<core::slice::Iter<u16>, core::slice::ChunksExactMut<u8>>"* undef, metadata !1260, metadata !DIExpression(DW_OP_deref)), !dbg !1374
  call void @llvm.dbg.value(metadata %"core::iter::adapters::zip::Zip<core::slice::Iter<u16>, core::slice::ChunksExactMut<u8>>"* undef, metadata !1375, metadata !DIExpression()), !dbg !1381
  call void @llvm.dbg.value(metadata %"core::iter::adapters::zip::Zip<core::slice::Iter<u16>, core::slice::ChunksExactMut<u8>>"* undef, metadata !1383, metadata !DIExpression()), !dbg !1388
  %_2.i.i = icmp ult i64 %37, %.0.sroa.speculated.i.i.i.i.i.i, !dbg !1390
  br i1 %_2.i.i, label %bb11, label %bb7, !dbg !1391, !llvm.loop !1427
}

; iterator_bench::zip_chunks_exact_unknown_size_slice_impl
; Function Attrs: noinline nonlazybind uwtable
define void @_ZN14iterator_bench40zip_chunks_exact_unknown_size_slice_impl17h406c09c4fbc83d32E([0 x i8]* nonnull align 1 %output.0, i64 %output.1, [0 x i16]* noalias nonnull readonly align 2 %input.0, i64 %input.1) unnamed_addr #1 personality i32 (i32, i32, i64, %"unwind::libunwind::_Unwind_Exception"*, %"unwind::libunwind::_Unwind_Context"*)* @rust_eh_personality !dbg !1428 {
_ZN4core4iter6traits8iterator8Iterator3zip17hbd84c1e91fef80f8E.exit:
  call void @llvm.dbg.value(metadata [0 x i8]* %output.0, metadata !1430, metadata !DIExpression(DW_OP_LLVM_fragment, 0, 64)), !dbg !1441
  call void @llvm.dbg.value(metadata i64 %output.1, metadata !1430, metadata !DIExpression(DW_OP_LLVM_fragment, 64, 64)), !dbg !1441
  call void @llvm.dbg.value(metadata [0 x i16]* %input.0, metadata !1431, metadata !DIExpression(DW_OP_LLVM_fragment, 0, 64)), !dbg !1441
  call void @llvm.dbg.value(metadata i64 %input.1, metadata !1431, metadata !DIExpression(DW_OP_LLVM_fragment, 64, 64)), !dbg !1441
  call void @llvm.dbg.value(metadata i64 320000, metadata !782, metadata !DIExpression()), !dbg !1442
  call void @llvm.dbg.value(metadata i64 %input.1, metadata !785, metadata !DIExpression()), !dbg !1442
  call void @llvm.dbg.value(metadata i64 320000, metadata !788, metadata !DIExpression()), !dbg !1444
  call void @llvm.dbg.value(metadata i64 %input.1, metadata !791, metadata !DIExpression()), !dbg !1444
  call void @llvm.dbg.value(metadata i64 320000, metadata !794, metadata !DIExpression()), !dbg !1446
  call void @llvm.dbg.value(metadata i64 %input.1, metadata !797, metadata !DIExpression()), !dbg !1446
  %output.0102 = ptrtoint [0 x i8]* %output.0 to i64
  %0 = icmp ult i64 %input.1, 320000, !dbg !1448
  %.0.sroa.speculated.i.i.i = select i1 %0, i64 %input.1, i64 320000, !dbg !1446
  call void @llvm.dbg.value(metadata [0 x i8]* %output.0, metadata !192, metadata !DIExpression()), !dbg !1449
  call void @llvm.dbg.value(metadata i64 %output.1, metadata !193, metadata !DIExpression(DW_OP_constu, 18446744073709551614, DW_OP_and, DW_OP_stack_value)), !dbg !1449
  call void @llvm.dbg.value(metadata [0 x i8]* %output.0, metadata !183, metadata !DIExpression()), !dbg !1453
  call void @llvm.dbg.value(metadata i64 %output.1, metadata !184, metadata !DIExpression(DW_OP_constu, 18446744073709551614, DW_OP_and, DW_OP_stack_value)), !dbg !1453
  call void @llvm.dbg.value(metadata [0 x i8]* %output.0, metadata !1316, metadata !DIExpression(DW_OP_LLVM_fragment, 0, 64)), !dbg !1455
  call void @llvm.dbg.value(metadata i64 %output.1, metadata !1316, metadata !DIExpression(DW_OP_constu, 18446744073709551614, DW_OP_and, DW_OP_stack_value, DW_OP_LLVM_fragment, 64, 64)), !dbg !1455
  call void @llvm.dbg.value(metadata i8* undef, metadata !1316, metadata !DIExpression(DW_OP_LLVM_fragment, 128, 64)), !dbg !1455
  call void @llvm.dbg.value(metadata i64 %output.1, metadata !1316, metadata !DIExpression(DW_OP_constu, 1, DW_OP_and, DW_OP_stack_value, DW_OP_LLVM_fragment, 192, 64)), !dbg !1455
  call void @llvm.dbg.value(metadata i64 2, metadata !1316, metadata !DIExpression(DW_OP_LLVM_fragment, 256, 64)), !dbg !1455
  call void @llvm.dbg.value(metadata [0 x i16]* %input.0, metadata !1321, metadata !DIExpression(DW_OP_LLVM_fragment, 0, 64)), !dbg !1455
  call void @llvm.dbg.value(metadata [0 x i8]* %output.0, metadata !1326, metadata !DIExpression(DW_OP_LLVM_fragment, 0, 64)), !dbg !1457
  call void @llvm.dbg.value(metadata i64 %output.1, metadata !1326, metadata !DIExpression(DW_OP_constu, 18446744073709551614, DW_OP_and, DW_OP_stack_value, DW_OP_LLVM_fragment, 64, 64)), !dbg !1457
  call void @llvm.dbg.value(metadata i64 2, metadata !1326, metadata !DIExpression(DW_OP_LLVM_fragment, 256, 64)), !dbg !1457
  call void @llvm.dbg.value(metadata [0 x i16]* %input.0, metadata !1329, metadata !DIExpression(DW_OP_LLVM_fragment, 0, 64)), !dbg !1457
  call void @llvm.dbg.value(metadata i64 %output.1, metadata !1332, metadata !DIExpression(DW_OP_constu, 18446744073709551614, DW_OP_and, DW_OP_stack_value, DW_OP_LLVM_fragment, 64, 64)), !dbg !1459
  call void @llvm.dbg.value(metadata i64 2, metadata !1332, metadata !DIExpression(DW_OP_LLVM_fragment, 256, 64)), !dbg !1459
  %n.i.i.i.i.i = lshr i64 %output.1, 1, !dbg !1461
  call void @llvm.dbg.value(metadata i64 %.0.sroa.speculated.i.i.i, metadata !782, metadata !DIExpression()), !dbg !1464
  call void @llvm.dbg.value(metadata i64 %n.i.i.i.i.i, metadata !785, metadata !DIExpression()), !dbg !1464
  call void @llvm.dbg.value(metadata i64 %.0.sroa.speculated.i.i.i, metadata !788, metadata !DIExpression()), !dbg !1466
  call void @llvm.dbg.value(metadata i64 %n.i.i.i.i.i, metadata !791, metadata !DIExpression()), !dbg !1466
  call void @llvm.dbg.value(metadata i64 %.0.sroa.speculated.i.i.i, metadata !794, metadata !DIExpression()), !dbg !1468
  call void @llvm.dbg.value(metadata i64 %n.i.i.i.i.i, metadata !797, metadata !DIExpression()), !dbg !1468
  %1 = icmp ugt i64 %.0.sroa.speculated.i.i.i, %n.i.i.i.i.i, !dbg !1470
  %.0.sroa.speculated.i.i.i.i.i.i = select i1 %1, i64 %n.i.i.i.i.i, i64 %.0.sroa.speculated.i.i.i, !dbg !1468
  call void @llvm.dbg.value(metadata %"core::iter::adapters::zip::Zip<core::slice::Iter<u16>, core::slice::ChunksExactMut<u8>>"* undef, metadata !1432, metadata !DIExpression(DW_OP_deref)), !dbg !1471
  call void @llvm.dbg.value(metadata %"core::iter::adapters::zip::Zip<core::slice::Iter<u16>, core::slice::ChunksExactMut<u8>>"* undef, metadata !1375, metadata !DIExpression()), !dbg !1472
  call void @llvm.dbg.value(metadata %"core::iter::adapters::zip::Zip<core::slice::Iter<u16>, core::slice::ChunksExactMut<u8>>"* undef, metadata !1383, metadata !DIExpression()), !dbg !1474
  %_2.i.i100 = icmp eq i64 %.0.sroa.speculated.i.i.i.i.i.i, 0, !dbg !1476
  br i1 %_2.i.i100, label %bb10, label %bb14.preheader, !dbg !1477

bb14.preheader:                                   ; preds = %_ZN4core4iter6traits8iterator8Iterator3zip17hbd84c1e91fef80f8E.exit
  %min.iters.check = icmp ult i64 %.0.sroa.speculated.i.i.i.i.i.i, 8, !dbg !1477
  br i1 %min.iters.check, label %bb14.preheader107, label %vector.scevcheck, !dbg !1477

bb14.preheader107:                                ; preds = %middle.block, %vector.scevcheck, %bb14.preheader
  %iter.sroa.11.0101.ph = phi i64 [ 0, %vector.scevcheck ], [ 0, %bb14.preheader ], [ %n.vec, %middle.block ]
  br label %bb14, !dbg !1477

vector.scevcheck:                                 ; preds = %bb14.preheader
  %2 = add nsw i64 %.0.sroa.speculated.i.i.i.i.i.i, -1, !dbg !1477
  %mul = call { i64, i1 } @llvm.umul.with.overflow.i64(i64 %2, i64 2), !dbg !1477
  %mul.result = extractvalue { i64, i1 } %mul, 0, !dbg !1477
  %mul.overflow = extractvalue { i64, i1 } %mul, 1, !dbg !1477
  %3 = xor i64 %output.0102, -1, !dbg !1477
  %4 = icmp ugt i64 %mul.result, %3, !dbg !1477
  %5 = or i1 %4, %mul.overflow, !dbg !1477
  %scevgep = getelementptr [0 x i8], [0 x i8]* %output.0, i64 0, i64 1, !dbg !1477
  %scevgep103 = ptrtoint i8* %scevgep to i64
  %mul104 = call { i64, i1 } @llvm.umul.with.overflow.i64(i64 %2, i64 2), !dbg !1477
  %mul.result105 = extractvalue { i64, i1 } %mul104, 0, !dbg !1477
  %mul.overflow106 = extractvalue { i64, i1 } %mul104, 1, !dbg !1477
  %6 = xor i64 %scevgep103, -1, !dbg !1477
  %7 = icmp ugt i64 %mul.result105, %6, !dbg !1477
  %8 = or i1 %7, %mul.overflow106, !dbg !1477
  %9 = or i1 %5, %8, !dbg !1477
  br i1 %9, label %bb14.preheader107, label %vector.ph, !dbg !1477

vector.ph:                                        ; preds = %vector.scevcheck
  %n.vec = and i64 %.0.sroa.speculated.i.i.i.i.i.i, 524280, !dbg !1477
  %10 = add nsw i64 %n.vec, -8, !dbg !1477
  %11 = lshr exact i64 %10, 3, !dbg !1477
  %12 = add nuw nsw i64 %11, 1, !dbg !1477
  %xtraiter = and i64 %12, 1, !dbg !1477
  %13 = icmp eq i64 %10, 0, !dbg !1477
  br i1 %13, label %middle.block.unr-lcssa, label %vector.ph.new, !dbg !1477

vector.ph.new:                                    ; preds = %vector.ph
  %unroll_iter = sub nuw nsw i64 %12, %xtraiter, !dbg !1477
  br label %vector.body, !dbg !1477

vector.body:                                      ; preds = %vector.body, %vector.ph.new
  %index = phi i64 [ 0, %vector.ph.new ], [ %index.next.1, %vector.body ], !dbg !1478
  %niter = phi i64 [ %unroll_iter, %vector.ph.new ], [ %niter.nsub.1, %vector.body ]
  %14 = getelementptr inbounds [0 x i16], [0 x i16]* %input.0, i64 0, i64 %index, !dbg !1479
  %15 = shl i64 %index, 1, !dbg !1483
  %16 = getelementptr inbounds [0 x i8], [0 x i8]* %output.0, i64 0, i64 %15, !dbg !1485
  %17 = bitcast i16* %14 to <8 x i16>*, !dbg !1488
  %wide.load = load <8 x i16>, <8 x i16>* %17, align 2, !dbg !1488
  %18 = trunc <8 x i16> %wide.load to <8 x i8>, !dbg !1489
  %19 = lshr <8 x i16> %wide.load, <i16 8, i16 8, i16 8, i16 8, i16 8, i16 8, i16 8, i16 8>, !dbg !1490
  %20 = trunc <8 x i16> %19 to <8 x i8>, !dbg !1491
  %21 = bitcast i8* %16 to <16 x i8>*, !dbg !1491
  %interleaved.vec = shufflevector <8 x i8> %18, <8 x i8> %20, <16 x i32> <i32 0, i32 8, i32 1, i32 9, i32 2, i32 10, i32 3, i32 11, i32 4, i32 12, i32 5, i32 13, i32 6, i32 14, i32 7, i32 15>, !dbg !1491
  store <16 x i8> %interleaved.vec, <16 x i8>* %21, align 1, !dbg !1491
  %index.next = or i64 %index, 8, !dbg !1478
  %22 = getelementptr inbounds [0 x i16], [0 x i16]* %input.0, i64 0, i64 %index.next, !dbg !1479
  %23 = shl i64 %index.next, 1, !dbg !1483
  %24 = getelementptr inbounds [0 x i8], [0 x i8]* %output.0, i64 0, i64 %23, !dbg !1485
  %25 = bitcast i16* %22 to <8 x i16>*, !dbg !1488
  %wide.load.1 = load <8 x i16>, <8 x i16>* %25, align 2, !dbg !1488
  %26 = trunc <8 x i16> %wide.load.1 to <8 x i8>, !dbg !1489
  %27 = lshr <8 x i16> %wide.load.1, <i16 8, i16 8, i16 8, i16 8, i16 8, i16 8, i16 8, i16 8>, !dbg !1490
  %28 = trunc <8 x i16> %27 to <8 x i8>, !dbg !1491
  %29 = bitcast i8* %24 to <16 x i8>*, !dbg !1491
  %interleaved.vec.1 = shufflevector <8 x i8> %26, <8 x i8> %28, <16 x i32> <i32 0, i32 8, i32 1, i32 9, i32 2, i32 10, i32 3, i32 11, i32 4, i32 12, i32 5, i32 13, i32 6, i32 14, i32 7, i32 15>, !dbg !1491
  store <16 x i8> %interleaved.vec.1, <16 x i8>* %29, align 1, !dbg !1491
  %index.next.1 = add i64 %index, 16, !dbg !1478
  %niter.nsub.1 = add i64 %niter, -2, !dbg !1478
  %niter.ncmp.1 = icmp eq i64 %niter.nsub.1, 0, !dbg !1478
  br i1 %niter.ncmp.1, label %middle.block.unr-lcssa, label %vector.body, !dbg !1478, !llvm.loop !1492

middle.block.unr-lcssa:                           ; preds = %vector.body, %vector.ph
  %index.unr = phi i64 [ 0, %vector.ph ], [ %index.next.1, %vector.body ]
  %lcmp.mod = icmp eq i64 %xtraiter, 0, !dbg !1478
  br i1 %lcmp.mod, label %middle.block, label %vector.body.epil, !dbg !1478

vector.body.epil:                                 ; preds = %middle.block.unr-lcssa
  %30 = getelementptr inbounds [0 x i16], [0 x i16]* %input.0, i64 0, i64 %index.unr, !dbg !1479
  %31 = shl i64 %index.unr, 1, !dbg !1483
  %32 = getelementptr inbounds [0 x i8], [0 x i8]* %output.0, i64 0, i64 %31, !dbg !1485
  %33 = bitcast i16* %30 to <8 x i16>*, !dbg !1488
  %wide.load.epil = load <8 x i16>, <8 x i16>* %33, align 2, !dbg !1488
  %34 = trunc <8 x i16> %wide.load.epil to <8 x i8>, !dbg !1489
  %35 = lshr <8 x i16> %wide.load.epil, <i16 8, i16 8, i16 8, i16 8, i16 8, i16 8, i16 8, i16 8>, !dbg !1490
  %36 = trunc <8 x i16> %35 to <8 x i8>, !dbg !1491
  %37 = bitcast i8* %32 to <16 x i8>*, !dbg !1491
  %interleaved.vec.epil = shufflevector <8 x i8> %34, <8 x i8> %36, <16 x i32> <i32 0, i32 8, i32 1, i32 9, i32 2, i32 10, i32 3, i32 11, i32 4, i32 12, i32 5, i32 13, i32 6, i32 14, i32 7, i32 15>, !dbg !1491
  store <16 x i8> %interleaved.vec.epil, <16 x i8>* %37, align 1, !dbg !1491
  br label %middle.block, !dbg !1477

middle.block:                                     ; preds = %middle.block.unr-lcssa, %vector.body.epil
  %cmp.n = icmp eq i64 %.0.sroa.speculated.i.i.i.i.i.i, %n.vec, !dbg !1477
  br i1 %cmp.n, label %bb10, label %bb14.preheader107, !dbg !1477

bb10:                                             ; preds = %bb14, %middle.block, %_ZN4core4iter6traits8iterator8Iterator3zip17hbd84c1e91fef80f8E.exit
  ret void, !dbg !1493

bb14:                                             ; preds = %bb14.preheader107, %bb14
  %iter.sroa.11.0101 = phi i64 [ %38, %bb14 ], [ %iter.sroa.11.0101.ph, %bb14.preheader107 ]
  call void @llvm.dbg.value(metadata i64 %iter.sroa.11.0101, metadata !1386, metadata !DIExpression()), !dbg !1494
  %38 = add nuw i64 %iter.sroa.11.0101, 1, !dbg !1478
  call void @llvm.dbg.value(metadata i64 %iter.sroa.11.0101, metadata !541, metadata !DIExpression()), !dbg !1495
  call void @llvm.dbg.value(metadata [0 x i16]* %input.0, metadata !532, metadata !DIExpression()), !dbg !1496
  call void @llvm.dbg.value(metadata i64 %iter.sroa.11.0101, metadata !533, metadata !DIExpression()), !dbg !1496
  call void @llvm.dbg.value(metadata [0 x i16]* %input.0, metadata !525, metadata !DIExpression()), !dbg !1497
  call void @llvm.dbg.value(metadata i64 %iter.sroa.11.0101, metadata !526, metadata !DIExpression()), !dbg !1497
  %39 = getelementptr inbounds [0 x i16], [0 x i16]* %input.0, i64 0, i64 %iter.sroa.11.0101, !dbg !1479
  call void @llvm.dbg.value(metadata %"core::slice::ChunksExactMut<u8>"* undef, metadata !1403, metadata !DIExpression()), !dbg !1498
  call void @llvm.dbg.value(metadata i64 %iter.sroa.11.0101, metadata !1404, metadata !DIExpression()), !dbg !1498
  %start1.i.i.i = shl i64 %iter.sroa.11.0101, 1, !dbg !1483
  call void @llvm.dbg.value(metadata i64 %start1.i.i.i, metadata !1405, metadata !DIExpression()), !dbg !1499
  call void @llvm.dbg.value(metadata [0 x i8]* %output.0, metadata !192, metadata !DIExpression()), !dbg !1500
  call void @llvm.dbg.value(metadata i64 %start1.i.i.i, metadata !193, metadata !DIExpression()), !dbg !1500
  call void @llvm.dbg.value(metadata [0 x i8]* %output.0, metadata !183, metadata !DIExpression()), !dbg !1501
  call void @llvm.dbg.value(metadata i64 %start1.i.i.i, metadata !184, metadata !DIExpression()), !dbg !1501
  %40 = getelementptr inbounds [0 x i8], [0 x i8]* %output.0, i64 0, i64 %start1.i.i.i, !dbg !1485
  call void @llvm.dbg.value(metadata i16* %39, metadata !1434, metadata !DIExpression(DW_OP_LLVM_fragment, 0, 64)), !dbg !1502
  call void @llvm.dbg.value(metadata i8* %40, metadata !1434, metadata !DIExpression(DW_OP_LLVM_fragment, 64, 64)), !dbg !1502
  call void @llvm.dbg.value(metadata i64 2, metadata !1434, metadata !DIExpression(DW_OP_LLVM_fragment, 128, 64)), !dbg !1502
  call void @llvm.dbg.value(metadata i16* %39, metadata !1438, metadata !DIExpression()), !dbg !1503
  call void @llvm.dbg.value(metadata i8* %40, metadata !1440, metadata !DIExpression(DW_OP_LLVM_fragment, 0, 64)), !dbg !1503
  call void @llvm.dbg.value(metadata i64 2, metadata !1440, metadata !DIExpression(DW_OP_LLVM_fragment, 64, 64)), !dbg !1503
  %_26 = load i16, i16* %39, align 2, !dbg !1488
  %41 = trunc i16 %_26 to i8, !dbg !1489
  store i8 %41, i8* %40, align 1, !dbg !1489
  %_31 = lshr i16 %_26, 8, !dbg !1490
  %42 = getelementptr inbounds i8, i8* %40, i64 1, !dbg !1491
  %43 = trunc i16 %_31 to i8, !dbg !1491
  store i8 %43, i8* %42, align 1, !dbg !1491
  call void @llvm.dbg.value(metadata %"core::iter::adapters::zip::Zip<core::slice::Iter<u16>, core::slice::ChunksExactMut<u8>>"* undef, metadata !1432, metadata !DIExpression(DW_OP_deref)), !dbg !1471
  call void @llvm.dbg.value(metadata %"core::iter::adapters::zip::Zip<core::slice::Iter<u16>, core::slice::ChunksExactMut<u8>>"* undef, metadata !1375, metadata !DIExpression()), !dbg !1472
  call void @llvm.dbg.value(metadata %"core::iter::adapters::zip::Zip<core::slice::Iter<u16>, core::slice::ChunksExactMut<u8>>"* undef, metadata !1383, metadata !DIExpression()), !dbg !1474
  %_2.i.i = icmp ult i64 %38, %.0.sroa.speculated.i.i.i.i.i.i, !dbg !1476
  br i1 %_2.i.i, label %bb14, label %bb10, !dbg !1477, !llvm.loop !1504
}

; iterator_bench::zip_chunks_exact_unknown_size_take_impl
; Function Attrs: noinline nonlazybind uwtable
define void @_ZN14iterator_bench39zip_chunks_exact_unknown_size_take_impl17he23221a79d536bf8E([0 x i8]* nonnull align 1 %output.0, i64 %output.1, [0 x i16]* noalias nonnull readonly align 2 %input.0, i64 %input.1) unnamed_addr #1 personality i32 (i32, i32, i64, %"unwind::libunwind::_Unwind_Exception"*, %"unwind::libunwind::_Unwind_Context"*)* @rust_eh_personality !dbg !1505 {
_ZN4core4iter6traits8iterator8Iterator3zip17hbd84c1e91fef80f8E.exit:
  call void @llvm.dbg.value(metadata [0 x i8]* %output.0, metadata !1507, metadata !DIExpression(DW_OP_LLVM_fragment, 0, 64)), !dbg !1524
  call void @llvm.dbg.value(metadata i64 %output.1, metadata !1507, metadata !DIExpression(DW_OP_LLVM_fragment, 64, 64)), !dbg !1524
  call void @llvm.dbg.value(metadata [0 x i16]* %input.0, metadata !1508, metadata !DIExpression(DW_OP_LLVM_fragment, 0, 64)), !dbg !1524
  call void @llvm.dbg.value(metadata i64 %input.1, metadata !1508, metadata !DIExpression(DW_OP_LLVM_fragment, 64, 64)), !dbg !1524
  call void @llvm.dbg.value(metadata [0 x i8]* %output.0, metadata !192, metadata !DIExpression()), !dbg !1525
  call void @llvm.dbg.value(metadata i64 %output.1, metadata !193, metadata !DIExpression(DW_OP_constu, 18446744073709551614, DW_OP_and, DW_OP_stack_value)), !dbg !1525
  call void @llvm.dbg.value(metadata [0 x i8]* %output.0, metadata !183, metadata !DIExpression()), !dbg !1529
  call void @llvm.dbg.value(metadata i64 %output.1, metadata !184, metadata !DIExpression(DW_OP_constu, 18446744073709551614, DW_OP_and, DW_OP_stack_value)), !dbg !1529
  call void @llvm.dbg.value(metadata [0 x i8]* %output.0, metadata !1316, metadata !DIExpression(DW_OP_LLVM_fragment, 0, 64)), !dbg !1531
  call void @llvm.dbg.value(metadata i64 %output.1, metadata !1316, metadata !DIExpression(DW_OP_constu, 18446744073709551614, DW_OP_and, DW_OP_stack_value, DW_OP_LLVM_fragment, 64, 64)), !dbg !1531
  call void @llvm.dbg.value(metadata i8* undef, metadata !1316, metadata !DIExpression(DW_OP_LLVM_fragment, 128, 64)), !dbg !1531
  call void @llvm.dbg.value(metadata i64 %output.1, metadata !1316, metadata !DIExpression(DW_OP_constu, 1, DW_OP_and, DW_OP_stack_value, DW_OP_LLVM_fragment, 192, 64)), !dbg !1531
  call void @llvm.dbg.value(metadata i64 2, metadata !1316, metadata !DIExpression(DW_OP_LLVM_fragment, 256, 64)), !dbg !1531
  call void @llvm.dbg.value(metadata [0 x i16]* %input.0, metadata !1321, metadata !DIExpression(DW_OP_LLVM_fragment, 0, 64)), !dbg !1531
  call void @llvm.dbg.value(metadata [0 x i8]* %output.0, metadata !1326, metadata !DIExpression(DW_OP_LLVM_fragment, 0, 64)), !dbg !1533
  call void @llvm.dbg.value(metadata i64 %output.1, metadata !1326, metadata !DIExpression(DW_OP_constu, 18446744073709551614, DW_OP_and, DW_OP_stack_value, DW_OP_LLVM_fragment, 64, 64)), !dbg !1533
  call void @llvm.dbg.value(metadata i64 2, metadata !1326, metadata !DIExpression(DW_OP_LLVM_fragment, 256, 64)), !dbg !1533
  call void @llvm.dbg.value(metadata [0 x i16]* %input.0, metadata !1329, metadata !DIExpression(DW_OP_LLVM_fragment, 0, 64)), !dbg !1533
  call void @llvm.dbg.value(metadata i64 %output.1, metadata !1332, metadata !DIExpression(DW_OP_constu, 18446744073709551614, DW_OP_and, DW_OP_stack_value, DW_OP_LLVM_fragment, 64, 64)), !dbg !1535
  call void @llvm.dbg.value(metadata i64 2, metadata !1332, metadata !DIExpression(DW_OP_LLVM_fragment, 256, 64)), !dbg !1535
  %n.i.i.i.i.i = lshr i64 %output.1, 1, !dbg !1537
  call void @llvm.dbg.value(metadata i64 %input.1, metadata !782, metadata !DIExpression()), !dbg !1540
  call void @llvm.dbg.value(metadata i64 %n.i.i.i.i.i, metadata !785, metadata !DIExpression()), !dbg !1540
  call void @llvm.dbg.value(metadata i64 %input.1, metadata !788, metadata !DIExpression()), !dbg !1542
  call void @llvm.dbg.value(metadata i64 %n.i.i.i.i.i, metadata !791, metadata !DIExpression()), !dbg !1542
  call void @llvm.dbg.value(metadata i64 %input.1, metadata !794, metadata !DIExpression()), !dbg !1544
  call void @llvm.dbg.value(metadata i64 %n.i.i.i.i.i, metadata !797, metadata !DIExpression()), !dbg !1544
  %0 = icmp ult i64 %n.i.i.i.i.i, %input.1, !dbg !1546
  %.0.sroa.speculated.i.i.i.i.i.i = select i1 %0, i64 %n.i.i.i.i.i, i64 %input.1, !dbg !1544
  call void @llvm.dbg.value(metadata %"core::iter::adapters::Take<core::iter::adapters::zip::Zip<core::slice::Iter<u16>, core::slice::ChunksExactMut<u8>>>"* undef, metadata !1509, metadata !DIExpression(DW_OP_deref)), !dbg !1547
  call void @llvm.dbg.value(metadata %"core::iter::adapters::Take<core::iter::adapters::zip::Zip<core::slice::Iter<u16>, core::slice::ChunksExactMut<u8>>>"* undef, metadata !1548, metadata !DIExpression()), !dbg !1554
  %_2.i.i.i136 = icmp eq i64 %.0.sroa.speculated.i.i.i.i.i.i, 0, !dbg !1556
  call void @llvm.dbg.value(metadata %"core::iter::adapters::Take<core::iter::adapters::zip::Zip<core::slice::Iter<u16>, core::slice::ChunksExactMut<u8>>>"* undef, metadata !1375, metadata !DIExpression()), !dbg !1559
  call void @llvm.dbg.value(metadata %"core::iter::adapters::Take<core::iter::adapters::zip::Zip<core::slice::Iter<u16>, core::slice::ChunksExactMut<u8>>>"* undef, metadata !1383, metadata !DIExpression()), !dbg !1560
  br i1 %_2.i.i.i136, label %bb8, label %bb12.preheader, !dbg !1561

bb12.preheader:                                   ; preds = %_ZN4core4iter6traits8iterator8Iterator3zip17hbd84c1e91fef80f8E.exit
  %1 = add nsw i64 %.0.sroa.speculated.i.i.i.i.i.i, -1, !dbg !1561
  %2 = icmp ult i64 %1, 319999, !dbg !1561
  %umin = select i1 %2, i64 %1, i64 319999, !dbg !1561
  %3 = add nuw nsw i64 %umin, 1, !dbg !1561
  %min.iters.check = icmp ult i64 %3, 8, !dbg !1561
  br i1 %min.iters.check, label %bb12.preheader143, label %vector.ph, !dbg !1561

bb12.preheader143:                                ; preds = %middle.block, %bb12.preheader
  %iter.sroa.16.0138.ph = phi i64 [ 320000, %bb12.preheader ], [ %ind.end, %middle.block ]
  %iter.sroa.11.0137.ph = phi i64 [ 0, %bb12.preheader ], [ %n.vec, %middle.block ]
  br label %bb12, !dbg !1561

vector.ph:                                        ; preds = %bb12.preheader
  %n.vec = and i64 %3, 1048568, !dbg !1561
  %ind.end = sub nsw i64 320000, %n.vec, !dbg !1561
  %4 = add nsw i64 %n.vec, -8, !dbg !1561
  %5 = lshr exact i64 %4, 3, !dbg !1561
  %6 = add nuw nsw i64 %5, 1, !dbg !1561
  %xtraiter = and i64 %6, 1, !dbg !1561
  %7 = icmp eq i64 %4, 0, !dbg !1561
  br i1 %7, label %middle.block.unr-lcssa, label %vector.ph.new, !dbg !1561

vector.ph.new:                                    ; preds = %vector.ph
  %unroll_iter = sub nuw nsw i64 %6, %xtraiter, !dbg !1561
  br label %vector.body, !dbg !1561

vector.body:                                      ; preds = %vector.body, %vector.ph.new
  %index = phi i64 [ 0, %vector.ph.new ], [ %index.next.1, %vector.body ], !dbg !1562
  %niter = phi i64 [ %unroll_iter, %vector.ph.new ], [ %niter.nsub.1, %vector.body ]
  %8 = getelementptr inbounds [0 x i16], [0 x i16]* %input.0, i64 0, i64 %index, !dbg !1563
  %9 = shl nuw i64 %index, 1, !dbg !1567
  %10 = getelementptr inbounds [0 x i8], [0 x i8]* %output.0, i64 0, i64 %9, !dbg !1569
  %11 = bitcast i16* %8 to <8 x i16>*, !dbg !1572
  %wide.load = load <8 x i16>, <8 x i16>* %11, align 2, !dbg !1572
  %12 = trunc <8 x i16> %wide.load to <8 x i8>, !dbg !1573
  %13 = lshr <8 x i16> %wide.load, <i16 8, i16 8, i16 8, i16 8, i16 8, i16 8, i16 8, i16 8>, !dbg !1574
  %14 = trunc <8 x i16> %13 to <8 x i8>, !dbg !1575
  %15 = bitcast i8* %10 to <16 x i8>*, !dbg !1575
  %interleaved.vec = shufflevector <8 x i8> %12, <8 x i8> %14, <16 x i32> <i32 0, i32 8, i32 1, i32 9, i32 2, i32 10, i32 3, i32 11, i32 4, i32 12, i32 5, i32 13, i32 6, i32 14, i32 7, i32 15>, !dbg !1575
  store <16 x i8> %interleaved.vec, <16 x i8>* %15, align 1, !dbg !1575
  %index.next = or i64 %index, 8, !dbg !1562
  %16 = getelementptr inbounds [0 x i16], [0 x i16]* %input.0, i64 0, i64 %index.next, !dbg !1563
  %17 = shl nuw i64 %index.next, 1, !dbg !1567
  %18 = getelementptr inbounds [0 x i8], [0 x i8]* %output.0, i64 0, i64 %17, !dbg !1569
  %19 = bitcast i16* %16 to <8 x i16>*, !dbg !1572
  %wide.load.1 = load <8 x i16>, <8 x i16>* %19, align 2, !dbg !1572
  %20 = trunc <8 x i16> %wide.load.1 to <8 x i8>, !dbg !1573
  %21 = lshr <8 x i16> %wide.load.1, <i16 8, i16 8, i16 8, i16 8, i16 8, i16 8, i16 8, i16 8>, !dbg !1574
  %22 = trunc <8 x i16> %21 to <8 x i8>, !dbg !1575
  %23 = bitcast i8* %18 to <16 x i8>*, !dbg !1575
  %interleaved.vec.1 = shufflevector <8 x i8> %20, <8 x i8> %22, <16 x i32> <i32 0, i32 8, i32 1, i32 9, i32 2, i32 10, i32 3, i32 11, i32 4, i32 12, i32 5, i32 13, i32 6, i32 14, i32 7, i32 15>, !dbg !1575
  store <16 x i8> %interleaved.vec.1, <16 x i8>* %23, align 1, !dbg !1575
  %index.next.1 = add i64 %index, 16, !dbg !1562
  %niter.nsub.1 = add i64 %niter, -2, !dbg !1562
  %niter.ncmp.1 = icmp eq i64 %niter.nsub.1, 0, !dbg !1562
  br i1 %niter.ncmp.1, label %middle.block.unr-lcssa, label %vector.body, !dbg !1562, !llvm.loop !1576

middle.block.unr-lcssa:                           ; preds = %vector.body, %vector.ph
  %index.unr = phi i64 [ 0, %vector.ph ], [ %index.next.1, %vector.body ]
  %lcmp.mod = icmp eq i64 %xtraiter, 0, !dbg !1562
  br i1 %lcmp.mod, label %middle.block, label %vector.body.epil, !dbg !1562

vector.body.epil:                                 ; preds = %middle.block.unr-lcssa
  %24 = getelementptr inbounds [0 x i16], [0 x i16]* %input.0, i64 0, i64 %index.unr, !dbg !1563
  %25 = shl nuw i64 %index.unr, 1, !dbg !1567
  %26 = getelementptr inbounds [0 x i8], [0 x i8]* %output.0, i64 0, i64 %25, !dbg !1569
  %27 = bitcast i16* %24 to <8 x i16>*, !dbg !1572
  %wide.load.epil = load <8 x i16>, <8 x i16>* %27, align 2, !dbg !1572
  %28 = trunc <8 x i16> %wide.load.epil to <8 x i8>, !dbg !1573
  %29 = lshr <8 x i16> %wide.load.epil, <i16 8, i16 8, i16 8, i16 8, i16 8, i16 8, i16 8, i16 8>, !dbg !1574
  %30 = trunc <8 x i16> %29 to <8 x i8>, !dbg !1575
  %31 = bitcast i8* %26 to <16 x i8>*, !dbg !1575
  %interleaved.vec.epil = shufflevector <8 x i8> %28, <8 x i8> %30, <16 x i32> <i32 0, i32 8, i32 1, i32 9, i32 2, i32 10, i32 3, i32 11, i32 4, i32 12, i32 5, i32 13, i32 6, i32 14, i32 7, i32 15>, !dbg !1575
  store <16 x i8> %interleaved.vec.epil, <16 x i8>* %31, align 1, !dbg !1575
  br label %middle.block, !dbg !1561

middle.block:                                     ; preds = %middle.block.unr-lcssa, %vector.body.epil
  %cmp.n = icmp eq i64 %3, %n.vec, !dbg !1561
  br i1 %cmp.n, label %bb8, label %bb12.preheader143, !dbg !1561

bb8:                                              ; preds = %bb12, %middle.block, %_ZN4core4iter6traits8iterator8Iterator3zip17hbd84c1e91fef80f8E.exit
  ret void, !dbg !1577

bb12:                                             ; preds = %bb12.preheader143, %bb12
  %iter.sroa.16.0138 = phi i64 [ %32, %bb12 ], [ %iter.sroa.16.0138.ph, %bb12.preheader143 ]
  %iter.sroa.11.0137 = phi i64 [ %33, %bb12 ], [ %iter.sroa.11.0137.ph, %bb12.preheader143 ]
  %32 = add nsw i64 %iter.sroa.16.0138, -1, !dbg !1578
  call void @llvm.dbg.value(metadata %"core::iter::adapters::Take<core::iter::adapters::zip::Zip<core::slice::Iter<u16>, core::slice::ChunksExactMut<u8>>>"* undef, metadata !1375, metadata !DIExpression()), !dbg !1559
  call void @llvm.dbg.value(metadata %"core::iter::adapters::Take<core::iter::adapters::zip::Zip<core::slice::Iter<u16>, core::slice::ChunksExactMut<u8>>>"* undef, metadata !1383, metadata !DIExpression()), !dbg !1560
  call void @llvm.dbg.value(metadata i64 %iter.sroa.11.0137, metadata !1386, metadata !DIExpression()), !dbg !1579
  %33 = add nuw nsw i64 %iter.sroa.11.0137, 1, !dbg !1562
  call void @llvm.dbg.value(metadata i64 %iter.sroa.11.0137, metadata !541, metadata !DIExpression()), !dbg !1580
  call void @llvm.dbg.value(metadata [0 x i16]* %input.0, metadata !532, metadata !DIExpression()), !dbg !1581
  call void @llvm.dbg.value(metadata i64 %iter.sroa.11.0137, metadata !533, metadata !DIExpression()), !dbg !1581
  call void @llvm.dbg.value(metadata [0 x i16]* %input.0, metadata !525, metadata !DIExpression()), !dbg !1582
  call void @llvm.dbg.value(metadata i64 %iter.sroa.11.0137, metadata !526, metadata !DIExpression()), !dbg !1582
  %34 = getelementptr inbounds [0 x i16], [0 x i16]* %input.0, i64 0, i64 %iter.sroa.11.0137, !dbg !1563
  call void @llvm.dbg.value(metadata %"core::slice::ChunksExactMut<u8>"* undef, metadata !1403, metadata !DIExpression()), !dbg !1583
  call void @llvm.dbg.value(metadata i64 %iter.sroa.11.0137, metadata !1404, metadata !DIExpression()), !dbg !1583
  %start1.i.i.i.i = shl nuw i64 %iter.sroa.11.0137, 1, !dbg !1567
  call void @llvm.dbg.value(metadata i64 %start1.i.i.i.i, metadata !1405, metadata !DIExpression()), !dbg !1584
  call void @llvm.dbg.value(metadata [0 x i8]* %output.0, metadata !192, metadata !DIExpression()), !dbg !1585
  call void @llvm.dbg.value(metadata i64 %start1.i.i.i.i, metadata !193, metadata !DIExpression()), !dbg !1585
  call void @llvm.dbg.value(metadata [0 x i8]* %output.0, metadata !183, metadata !DIExpression()), !dbg !1586
  call void @llvm.dbg.value(metadata i64 %start1.i.i.i.i, metadata !184, metadata !DIExpression()), !dbg !1586
  %35 = getelementptr inbounds [0 x i8], [0 x i8]* %output.0, i64 0, i64 %start1.i.i.i.i, !dbg !1569
  call void @llvm.dbg.value(metadata i16* %34, metadata !1517, metadata !DIExpression(DW_OP_LLVM_fragment, 0, 64)), !dbg !1587
  call void @llvm.dbg.value(metadata i8* %35, metadata !1517, metadata !DIExpression(DW_OP_LLVM_fragment, 64, 64)), !dbg !1587
  call void @llvm.dbg.value(metadata i64 2, metadata !1517, metadata !DIExpression(DW_OP_LLVM_fragment, 128, 64)), !dbg !1587
  call void @llvm.dbg.value(metadata i16* %34, metadata !1521, metadata !DIExpression()), !dbg !1588
  call void @llvm.dbg.value(metadata i8* %35, metadata !1523, metadata !DIExpression(DW_OP_LLVM_fragment, 0, 64)), !dbg !1588
  call void @llvm.dbg.value(metadata i64 2, metadata !1523, metadata !DIExpression(DW_OP_LLVM_fragment, 64, 64)), !dbg !1588
  %_21 = load i16, i16* %34, align 2, !dbg !1572
  %36 = trunc i16 %_21 to i8, !dbg !1573
  store i8 %36, i8* %35, align 1, !dbg !1573
  %_26 = lshr i16 %_21, 8, !dbg !1574
  %37 = getelementptr inbounds i8, i8* %35, i64 1, !dbg !1575
  %38 = trunc i16 %_26 to i8, !dbg !1575
  store i8 %38, i8* %37, align 1, !dbg !1575
  call void @llvm.dbg.value(metadata %"core::iter::adapters::Take<core::iter::adapters::zip::Zip<core::slice::Iter<u16>, core::slice::ChunksExactMut<u8>>>"* undef, metadata !1509, metadata !DIExpression(DW_OP_deref)), !dbg !1547
  call void @llvm.dbg.value(metadata %"core::iter::adapters::Take<core::iter::adapters::zip::Zip<core::slice::Iter<u16>, core::slice::ChunksExactMut<u8>>>"* undef, metadata !1548, metadata !DIExpression()), !dbg !1554
  %_2.i = icmp ne i64 %32, 0, !dbg !1589
  %_2.i.i.i = icmp ult i64 %33, %.0.sroa.speculated.i.i.i.i.i.i, !dbg !1556
  %or.cond = and i1 %_2.i.i.i, %_2.i, !dbg !1561
  call void @llvm.dbg.value(metadata %"core::iter::adapters::Take<core::iter::adapters::zip::Zip<core::slice::Iter<u16>, core::slice::ChunksExactMut<u8>>>"* undef, metadata !1375, metadata !DIExpression()), !dbg !1559
  call void @llvm.dbg.value(metadata %"core::iter::adapters::Take<core::iter::adapters::zip::Zip<core::slice::Iter<u16>, core::slice::ChunksExactMut<u8>>>"* undef, metadata !1383, metadata !DIExpression()), !dbg !1560
  br i1 %or.cond, label %bb12, label %bb8, !dbg !1561, !llvm.loop !1590
}

; iterator_bench::zip_chunks_exact_unknown_size_take_iter_impl
; Function Attrs: noinline nonlazybind uwtable
define void @_ZN14iterator_bench44zip_chunks_exact_unknown_size_take_iter_impl17h8fd9ed478ec60c1fE([0 x i8]* nonnull align 1 %output.0, i64 %output.1, [0 x i16]* noalias nonnull readonly align 2 %input.0, i64 %input.1) unnamed_addr #1 personality i32 (i32, i32, i64, %"unwind::libunwind::_Unwind_Exception"*, %"unwind::libunwind::_Unwind_Context"*)* @rust_eh_personality !dbg !1592 {
_ZN4core4iter6traits8iterator8Iterator3zip17hbd84c1e91fef80f8E.exit:
  call void @llvm.dbg.value(metadata [0 x i8]* %output.0, metadata !1594, metadata !DIExpression(DW_OP_LLVM_fragment, 0, 64)), !dbg !1615
  call void @llvm.dbg.value(metadata i64 %output.1, metadata !1594, metadata !DIExpression(DW_OP_LLVM_fragment, 64, 64)), !dbg !1615
  call void @llvm.dbg.value(metadata [0 x i16]* %input.0, metadata !1595, metadata !DIExpression(DW_OP_LLVM_fragment, 0, 64)), !dbg !1615
  call void @llvm.dbg.value(metadata i64 %input.1, metadata !1595, metadata !DIExpression(DW_OP_LLVM_fragment, 64, 64)), !dbg !1615
  call void @llvm.dbg.value(metadata [0 x i8]* %output.0, metadata !192, metadata !DIExpression()), !dbg !1616
  call void @llvm.dbg.value(metadata i64 %output.1, metadata !193, metadata !DIExpression(DW_OP_constu, 18446744073709551614, DW_OP_and, DW_OP_stack_value)), !dbg !1616
  call void @llvm.dbg.value(metadata [0 x i8]* %output.0, metadata !183, metadata !DIExpression()), !dbg !1620
  call void @llvm.dbg.value(metadata i64 %output.1, metadata !184, metadata !DIExpression(DW_OP_constu, 18446744073709551614, DW_OP_and, DW_OP_stack_value)), !dbg !1620
  call void @llvm.dbg.value(metadata [0 x i8]* %output.0, metadata !1316, metadata !DIExpression(DW_OP_LLVM_fragment, 0, 64)), !dbg !1622
  call void @llvm.dbg.value(metadata i64 %output.1, metadata !1316, metadata !DIExpression(DW_OP_constu, 18446744073709551614, DW_OP_and, DW_OP_stack_value, DW_OP_LLVM_fragment, 64, 64)), !dbg !1622
  call void @llvm.dbg.value(metadata i8* undef, metadata !1316, metadata !DIExpression(DW_OP_LLVM_fragment, 128, 64)), !dbg !1622
  call void @llvm.dbg.value(metadata i64 %output.1, metadata !1316, metadata !DIExpression(DW_OP_constu, 1, DW_OP_and, DW_OP_stack_value, DW_OP_LLVM_fragment, 192, 64)), !dbg !1622
  call void @llvm.dbg.value(metadata i64 2, metadata !1316, metadata !DIExpression(DW_OP_LLVM_fragment, 256, 64)), !dbg !1622
  call void @llvm.dbg.value(metadata [0 x i16]* %input.0, metadata !1321, metadata !DIExpression(DW_OP_LLVM_fragment, 0, 64)), !dbg !1622
  call void @llvm.dbg.value(metadata [0 x i8]* %output.0, metadata !1326, metadata !DIExpression(DW_OP_LLVM_fragment, 0, 64)), !dbg !1624
  call void @llvm.dbg.value(metadata i64 %output.1, metadata !1326, metadata !DIExpression(DW_OP_constu, 18446744073709551614, DW_OP_and, DW_OP_stack_value, DW_OP_LLVM_fragment, 64, 64)), !dbg !1624
  call void @llvm.dbg.value(metadata i64 2, metadata !1326, metadata !DIExpression(DW_OP_LLVM_fragment, 256, 64)), !dbg !1624
  call void @llvm.dbg.value(metadata [0 x i16]* %input.0, metadata !1329, metadata !DIExpression(DW_OP_LLVM_fragment, 0, 64)), !dbg !1624
  call void @llvm.dbg.value(metadata i64 %output.1, metadata !1332, metadata !DIExpression(DW_OP_constu, 18446744073709551614, DW_OP_and, DW_OP_stack_value, DW_OP_LLVM_fragment, 64, 64)), !dbg !1626
  call void @llvm.dbg.value(metadata i64 2, metadata !1332, metadata !DIExpression(DW_OP_LLVM_fragment, 256, 64)), !dbg !1626
  %n.i.i.i.i.i = lshr i64 %output.1, 1, !dbg !1628
  call void @llvm.dbg.value(metadata i64 %input.1, metadata !782, metadata !DIExpression()), !dbg !1631
  call void @llvm.dbg.value(metadata i64 %n.i.i.i.i.i, metadata !785, metadata !DIExpression()), !dbg !1631
  call void @llvm.dbg.value(metadata i64 %input.1, metadata !788, metadata !DIExpression()), !dbg !1633
  call void @llvm.dbg.value(metadata i64 %n.i.i.i.i.i, metadata !791, metadata !DIExpression()), !dbg !1633
  call void @llvm.dbg.value(metadata i64 %input.1, metadata !794, metadata !DIExpression()), !dbg !1635
  call void @llvm.dbg.value(metadata i64 %n.i.i.i.i.i, metadata !797, metadata !DIExpression()), !dbg !1635
  %0 = icmp ult i64 %n.i.i.i.i.i, %input.1, !dbg !1637
  %.0.sroa.speculated.i.i.i.i.i.i = select i1 %0, i64 %n.i.i.i.i.i, i64 %input.1, !dbg !1635
  call void @llvm.dbg.value(metadata %"core::iter::adapters::Take<core::iter::adapters::zip::Zip<core::slice::Iter<u16>, core::slice::ChunksExactMut<u8>>>"* undef, metadata !1596, metadata !DIExpression(DW_OP_deref)), !dbg !1638
  call void @llvm.dbg.value(metadata %"core::iter::adapters::Take<core::iter::adapters::zip::Zip<core::slice::Iter<u16>, core::slice::ChunksExactMut<u8>>>"* undef, metadata !1548, metadata !DIExpression()), !dbg !1639
  br label %bb2.i, !dbg !1641

bb2.i:                                            ; preds = %bb10.1, %_ZN4core4iter6traits8iterator8Iterator3zip17hbd84c1e91fef80f8E.exit
  %iter.sroa.16.0149 = phi i64 [ 320000, %_ZN4core4iter6traits8iterator8Iterator3zip17hbd84c1e91fef80f8E.exit ], [ %7, %bb10.1 ]
  %iter.sroa.11.0148 = phi i64 [ 0, %_ZN4core4iter6traits8iterator8Iterator3zip17hbd84c1e91fef80f8E.exit ], [ %13, %bb10.1 ]
  call void @llvm.dbg.value(metadata %"core::iter::adapters::Take<core::iter::adapters::zip::Zip<core::slice::Iter<u16>, core::slice::ChunksExactMut<u8>>>"* undef, metadata !1375, metadata !DIExpression()), !dbg !1642
  call void @llvm.dbg.value(metadata %"core::iter::adapters::Take<core::iter::adapters::zip::Zip<core::slice::Iter<u16>, core::slice::ChunksExactMut<u8>>>"* undef, metadata !1383, metadata !DIExpression()), !dbg !1644
  %_2.i.i.i = icmp ult i64 %iter.sroa.11.0148, %.0.sroa.speculated.i.i.i.i.i.i, !dbg !1646
  br i1 %_2.i.i.i, label %bb10, label %bb8, !dbg !1647

bb8:                                              ; preds = %bb10.1, %bb10, %bb2.i
  ret void, !dbg !1648

bb10:                                             ; preds = %bb2.i
  call void @llvm.dbg.value(metadata %"core::iter::adapters::Take<core::iter::adapters::zip::Zip<core::slice::Iter<u16>, core::slice::ChunksExactMut<u8>>>"* undef, metadata !1375, metadata !DIExpression()), !dbg !1642
  call void @llvm.dbg.value(metadata %"core::iter::adapters::Take<core::iter::adapters::zip::Zip<core::slice::Iter<u16>, core::slice::ChunksExactMut<u8>>>"* undef, metadata !1383, metadata !DIExpression()), !dbg !1644
  call void @llvm.dbg.value(metadata i64 %iter.sroa.11.0148, metadata !1386, metadata !DIExpression()), !dbg !1649
  call void @llvm.dbg.value(metadata i64 %iter.sroa.11.0148, metadata !541, metadata !DIExpression()), !dbg !1650
  call void @llvm.dbg.value(metadata [0 x i16]* %input.0, metadata !532, metadata !DIExpression()), !dbg !1652
  call void @llvm.dbg.value(metadata i64 %iter.sroa.11.0148, metadata !533, metadata !DIExpression()), !dbg !1652
  call void @llvm.dbg.value(metadata [0 x i16]* %input.0, metadata !525, metadata !DIExpression()), !dbg !1654
  call void @llvm.dbg.value(metadata i64 %iter.sroa.11.0148, metadata !526, metadata !DIExpression()), !dbg !1654
  %1 = getelementptr inbounds [0 x i16], [0 x i16]* %input.0, i64 0, i64 %iter.sroa.11.0148, !dbg !1656
  call void @llvm.dbg.value(metadata %"core::slice::ChunksExactMut<u8>"* undef, metadata !1403, metadata !DIExpression()), !dbg !1657
  call void @llvm.dbg.value(metadata i64 %iter.sroa.11.0148, metadata !1404, metadata !DIExpression()), !dbg !1657
  %start1.i.i.i.i = shl nuw i64 %iter.sroa.11.0148, 1, !dbg !1659
  call void @llvm.dbg.value(metadata i64 %start1.i.i.i.i, metadata !1405, metadata !DIExpression()), !dbg !1660
  call void @llvm.dbg.value(metadata [0 x i8]* %output.0, metadata !192, metadata !DIExpression()), !dbg !1661
  call void @llvm.dbg.value(metadata i64 %start1.i.i.i.i, metadata !193, metadata !DIExpression()), !dbg !1661
  call void @llvm.dbg.value(metadata [0 x i8]* %output.0, metadata !183, metadata !DIExpression()), !dbg !1663
  call void @llvm.dbg.value(metadata i64 %start1.i.i.i.i, metadata !184, metadata !DIExpression()), !dbg !1663
  %2 = getelementptr inbounds [0 x i8], [0 x i8]* %output.0, i64 0, i64 %start1.i.i.i.i, !dbg !1665
  call void @llvm.dbg.value(metadata i16* %1, metadata !1598, metadata !DIExpression(DW_OP_LLVM_fragment, 0, 64)), !dbg !1666
  call void @llvm.dbg.value(metadata i8* %2, metadata !1598, metadata !DIExpression(DW_OP_LLVM_fragment, 64, 64)), !dbg !1666
  call void @llvm.dbg.value(metadata i64 2, metadata !1598, metadata !DIExpression(DW_OP_LLVM_fragment, 128, 64)), !dbg !1666
  call void @llvm.dbg.value(metadata i8* %2, metadata !1604, metadata !DIExpression(DW_OP_LLVM_fragment, 0, 64)), !dbg !1667
  call void @llvm.dbg.value(metadata i64 2, metadata !1604, metadata !DIExpression(DW_OP_LLVM_fragment, 64, 64)), !dbg !1667
  %b = load i16, i16* %1, align 2, !dbg !1668
  call void @llvm.dbg.value(metadata i16 %b, metadata !1602, metadata !DIExpression()), !dbg !1667
  call void @llvm.dbg.value(metadata i16 %b, metadata !1605, metadata !DIExpression()), !dbg !1669
  call void @llvm.dbg.value(metadata i8* %2, metadata !192, metadata !DIExpression()), !dbg !1670
  call void @llvm.dbg.value(metadata i64 2, metadata !193, metadata !DIExpression()), !dbg !1670
  call void @llvm.dbg.value(metadata i8* %2, metadata !183, metadata !DIExpression()), !dbg !1673
  call void @llvm.dbg.value(metadata i64 2, metadata !184, metadata !DIExpression()), !dbg !1673
  call void @llvm.dbg.value(metadata { i8*, i8* }* undef, metadata !1607, metadata !DIExpression(DW_OP_deref)), !dbg !1675
  call void @llvm.dbg.value(metadata i16 %b, metadata !1605, metadata !DIExpression()), !dbg !1669
  call void @llvm.dbg.value(metadata i8* %2, metadata !183, metadata !DIExpression()), !dbg !1676
  call void @llvm.dbg.value(metadata i64 1, metadata !184, metadata !DIExpression()), !dbg !1676
  call void @llvm.dbg.value(metadata i8* %2, metadata !1609, metadata !DIExpression()), !dbg !1680
  call void @llvm.dbg.value(metadata i8* %2, metadata !1613, metadata !DIExpression()), !dbg !1681
  %3 = trunc i16 %b to i8, !dbg !1682
  store i8 %3, i8* %2, align 1, !dbg !1682
  %4 = lshr i16 %b, 8, !dbg !1683
  call void @llvm.dbg.value(metadata i16 %4, metadata !1605, metadata !DIExpression()), !dbg !1669
  call void @llvm.dbg.value(metadata { i8*, i8* }* undef, metadata !1607, metadata !DIExpression(DW_OP_deref)), !dbg !1675
  call void @llvm.dbg.value(metadata i16 %4, metadata !1605, metadata !DIExpression()), !dbg !1669
  %iter2.sroa.0.0.ptr.1 = getelementptr inbounds i8, i8* %2, i64 1, !dbg !1669
  call void @llvm.dbg.value(metadata i8* %iter2.sroa.0.0.ptr.1, metadata !183, metadata !DIExpression()), !dbg !1676
  call void @llvm.dbg.value(metadata i64 1, metadata !184, metadata !DIExpression()), !dbg !1676
  call void @llvm.dbg.value(metadata i8* %iter2.sroa.0.0.ptr.1, metadata !1609, metadata !DIExpression()), !dbg !1680
  call void @llvm.dbg.value(metadata i8* %iter2.sroa.0.0.ptr.1, metadata !1613, metadata !DIExpression()), !dbg !1681
  %5 = trunc i16 %4 to i8, !dbg !1682
  store i8 %5, i8* %iter2.sroa.0.0.ptr.1, align 1, !dbg !1682
  call void @llvm.dbg.value(metadata i16 0, metadata !1605, metadata !DIExpression()), !dbg !1669
  call void @llvm.dbg.value(metadata { i8*, i8* }* undef, metadata !1607, metadata !DIExpression(DW_OP_deref)), !dbg !1675
  %6 = or i64 %iter.sroa.11.0148, 1, !dbg !1684
  call void @llvm.dbg.value(metadata %"core::iter::adapters::Take<core::iter::adapters::zip::Zip<core::slice::Iter<u16>, core::slice::ChunksExactMut<u8>>>"* undef, metadata !1596, metadata !DIExpression(DW_OP_deref)), !dbg !1638
  call void @llvm.dbg.value(metadata %"core::iter::adapters::Take<core::iter::adapters::zip::Zip<core::slice::Iter<u16>, core::slice::ChunksExactMut<u8>>>"* undef, metadata !1548, metadata !DIExpression()), !dbg !1639
  %7 = add nsw i64 %iter.sroa.16.0149, -2, !dbg !1685
  call void @llvm.dbg.value(metadata %"core::iter::adapters::Take<core::iter::adapters::zip::Zip<core::slice::Iter<u16>, core::slice::ChunksExactMut<u8>>>"* undef, metadata !1375, metadata !DIExpression()), !dbg !1642
  call void @llvm.dbg.value(metadata %"core::iter::adapters::Take<core::iter::adapters::zip::Zip<core::slice::Iter<u16>, core::slice::ChunksExactMut<u8>>>"* undef, metadata !1383, metadata !DIExpression()), !dbg !1644
  %_2.i.i.i.1 = icmp ult i64 %6, %.0.sroa.speculated.i.i.i.i.i.i, !dbg !1646
  br i1 %_2.i.i.i.1, label %bb10.1, label %bb8, !dbg !1647

bb10.1:                                           ; preds = %bb10
  call void @llvm.dbg.value(metadata %"core::iter::adapters::Take<core::iter::adapters::zip::Zip<core::slice::Iter<u16>, core::slice::ChunksExactMut<u8>>>"* undef, metadata !1375, metadata !DIExpression()), !dbg !1642
  call void @llvm.dbg.value(metadata %"core::iter::adapters::Take<core::iter::adapters::zip::Zip<core::slice::Iter<u16>, core::slice::ChunksExactMut<u8>>>"* undef, metadata !1383, metadata !DIExpression()), !dbg !1644
  call void @llvm.dbg.value(metadata i64 %6, metadata !1386, metadata !DIExpression()), !dbg !1649
  call void @llvm.dbg.value(metadata i64 %6, metadata !541, metadata !DIExpression()), !dbg !1650
  call void @llvm.dbg.value(metadata [0 x i16]* %input.0, metadata !532, metadata !DIExpression()), !dbg !1652
  call void @llvm.dbg.value(metadata i64 %6, metadata !533, metadata !DIExpression()), !dbg !1652
  call void @llvm.dbg.value(metadata [0 x i16]* %input.0, metadata !525, metadata !DIExpression()), !dbg !1654
  call void @llvm.dbg.value(metadata i64 %6, metadata !526, metadata !DIExpression()), !dbg !1654
  %8 = getelementptr inbounds [0 x i16], [0 x i16]* %input.0, i64 0, i64 %6, !dbg !1656
  call void @llvm.dbg.value(metadata %"core::slice::ChunksExactMut<u8>"* undef, metadata !1403, metadata !DIExpression()), !dbg !1657
  call void @llvm.dbg.value(metadata i64 %6, metadata !1404, metadata !DIExpression()), !dbg !1657
  %start1.i.i.i.i.1 = shl nuw i64 %6, 1, !dbg !1659
  call void @llvm.dbg.value(metadata i64 %start1.i.i.i.i.1, metadata !1405, metadata !DIExpression()), !dbg !1660
  call void @llvm.dbg.value(metadata [0 x i8]* %output.0, metadata !192, metadata !DIExpression()), !dbg !1661
  call void @llvm.dbg.value(metadata i64 %start1.i.i.i.i.1, metadata !193, metadata !DIExpression()), !dbg !1661
  call void @llvm.dbg.value(metadata [0 x i8]* %output.0, metadata !183, metadata !DIExpression()), !dbg !1663
  call void @llvm.dbg.value(metadata i64 %start1.i.i.i.i.1, metadata !184, metadata !DIExpression()), !dbg !1663
  %9 = getelementptr inbounds [0 x i8], [0 x i8]* %output.0, i64 0, i64 %start1.i.i.i.i.1, !dbg !1665
  call void @llvm.dbg.value(metadata i16* %8, metadata !1598, metadata !DIExpression(DW_OP_LLVM_fragment, 0, 64)), !dbg !1666
  call void @llvm.dbg.value(metadata i8* %9, metadata !1598, metadata !DIExpression(DW_OP_LLVM_fragment, 64, 64)), !dbg !1666
  call void @llvm.dbg.value(metadata i64 2, metadata !1598, metadata !DIExpression(DW_OP_LLVM_fragment, 128, 64)), !dbg !1666
  call void @llvm.dbg.value(metadata i8* %9, metadata !1604, metadata !DIExpression(DW_OP_LLVM_fragment, 0, 64)), !dbg !1667
  call void @llvm.dbg.value(metadata i64 2, metadata !1604, metadata !DIExpression(DW_OP_LLVM_fragment, 64, 64)), !dbg !1667
  %b.1 = load i16, i16* %8, align 2, !dbg !1668
  call void @llvm.dbg.value(metadata i16 %b.1, metadata !1602, metadata !DIExpression()), !dbg !1667
  call void @llvm.dbg.value(metadata i16 %b.1, metadata !1605, metadata !DIExpression()), !dbg !1669
  call void @llvm.dbg.value(metadata i8* %9, metadata !192, metadata !DIExpression()), !dbg !1670
  call void @llvm.dbg.value(metadata i64 2, metadata !193, metadata !DIExpression()), !dbg !1670
  call void @llvm.dbg.value(metadata i8* %9, metadata !183, metadata !DIExpression()), !dbg !1673
  call void @llvm.dbg.value(metadata i64 2, metadata !184, metadata !DIExpression()), !dbg !1673
  call void @llvm.dbg.value(metadata { i8*, i8* }* undef, metadata !1607, metadata !DIExpression(DW_OP_deref)), !dbg !1675
  call void @llvm.dbg.value(metadata i16 %b.1, metadata !1605, metadata !DIExpression()), !dbg !1669
  call void @llvm.dbg.value(metadata i8* %9, metadata !183, metadata !DIExpression()), !dbg !1676
  call void @llvm.dbg.value(metadata i64 1, metadata !184, metadata !DIExpression()), !dbg !1676
  call void @llvm.dbg.value(metadata i8* %9, metadata !1609, metadata !DIExpression()), !dbg !1680
  call void @llvm.dbg.value(metadata i8* %9, metadata !1613, metadata !DIExpression()), !dbg !1681
  %10 = trunc i16 %b.1 to i8, !dbg !1682
  store i8 %10, i8* %9, align 1, !dbg !1682
  %11 = lshr i16 %b.1, 8, !dbg !1683
  call void @llvm.dbg.value(metadata i16 %11, metadata !1605, metadata !DIExpression()), !dbg !1669
  call void @llvm.dbg.value(metadata { i8*, i8* }* undef, metadata !1607, metadata !DIExpression(DW_OP_deref)), !dbg !1675
  call void @llvm.dbg.value(metadata i16 %11, metadata !1605, metadata !DIExpression()), !dbg !1669
  %iter2.sroa.0.0.ptr.1.1 = getelementptr inbounds i8, i8* %9, i64 1, !dbg !1669
  call void @llvm.dbg.value(metadata i8* %iter2.sroa.0.0.ptr.1.1, metadata !183, metadata !DIExpression()), !dbg !1676
  call void @llvm.dbg.value(metadata i64 1, metadata !184, metadata !DIExpression()), !dbg !1676
  call void @llvm.dbg.value(metadata i8* %iter2.sroa.0.0.ptr.1.1, metadata !1609, metadata !DIExpression()), !dbg !1680
  call void @llvm.dbg.value(metadata i8* %iter2.sroa.0.0.ptr.1.1, metadata !1613, metadata !DIExpression()), !dbg !1681
  %12 = trunc i16 %11 to i8, !dbg !1682
  store i8 %12, i8* %iter2.sroa.0.0.ptr.1.1, align 1, !dbg !1682
  call void @llvm.dbg.value(metadata i16 0, metadata !1605, metadata !DIExpression()), !dbg !1669
  call void @llvm.dbg.value(metadata { i8*, i8* }* undef, metadata !1607, metadata !DIExpression(DW_OP_deref)), !dbg !1675
  %13 = add nuw nsw i64 %iter.sroa.11.0148, 2, !dbg !1684
  call void @llvm.dbg.value(metadata %"core::iter::adapters::Take<core::iter::adapters::zip::Zip<core::slice::Iter<u16>, core::slice::ChunksExactMut<u8>>>"* undef, metadata !1596, metadata !DIExpression(DW_OP_deref)), !dbg !1638
  call void @llvm.dbg.value(metadata %"core::iter::adapters::Take<core::iter::adapters::zip::Zip<core::slice::Iter<u16>, core::slice::ChunksExactMut<u8>>>"* undef, metadata !1548, metadata !DIExpression()), !dbg !1639
  %_2.i.1 = icmp eq i64 %7, 0, !dbg !1686
  br i1 %_2.i.1, label %bb8, label %bb2.i, !dbg !1641
}

; Function Attrs: nounwind nonlazybind uwtable
declare i32 @rust_eh_personality(i32, i32, i64, %"unwind::libunwind::_Unwind_Exception"*, %"unwind::libunwind::_Unwind_Context"*) unnamed_addr #2

; Function Attrs: nounwind readnone speculatable
declare { i64, i1 } @llvm.uadd.with.overflow.i64(i64, i64) #3

; core::panicking::panic_bounds_check
; Function Attrs: cold noinline noreturn nonlazybind uwtable
declare void @_ZN4core9panicking18panic_bounds_check17h566454b12ba8f623E(i64, i64, %"core::panic::Location"* noalias readonly align 8 dereferenceable(24)) unnamed_addr #4

; Function Attrs: nounwind readnone speculatable
declare void @llvm.dbg.value(metadata, metadata, metadata) #3

; Function Attrs: nounwind readnone speculatable
declare { i64, i1 } @llvm.umul.with.overflow.i64(i64, i64) #3

attributes #0 = { noinline nounwind nonlazybind uwtable "probe-stack"="__rust_probestack" "target-cpu"="x86-64" }
attributes #1 = { noinline nonlazybind uwtable "probe-stack"="__rust_probestack" "target-cpu"="x86-64" }
attributes #2 = { nounwind nonlazybind uwtable "probe-stack"="__rust_probestack" "target-cpu"="x86-64" }
attributes #3 = { nounwind readnone speculatable }
attributes #4 = { cold noinline noreturn nonlazybind uwtable "probe-stack"="__rust_probestack" "target-cpu"="x86-64" }
attributes #5 = { nounwind }

!llvm.module.flags = !{!0, !1, !2}
!llvm.dbg.cu = !{!3}

!0 = !{i32 7, !"PIC Level", i32 2}
!1 = !{i32 2, !"RtLibUseGOT", i32 1}
!2 = !{i32 2, !"Debug Info Version", i32 3}
!3 = distinct !DICompileUnit(language: DW_LANG_Rust, file: !4, producer: "clang LLVM (rustc version 1.46.0-dev)", isOptimized: true, runtimeVersion: 0, emissionKind: FullDebug, enums: !5, globals: !30)
!4 = !DIFile(filename: "src/lib.rs", directory: "/benchdata/rust/assume_true/iterator_bench")
!5 = !{!6, !14, !23}
!6 = !DICompositeType(tag: DW_TAG_enumeration_type, name: "Result", scope: !8, file: !7, baseType: !10, size: 8, align: 8, flags: DIFlagEnumClass, elements: !11)
!7 = !DIFile(filename: "<unknown>", directory: "")
!8 = !DINamespace(name: "result", scope: !9)
!9 = !DINamespace(name: "core", scope: null)
!10 = !DIBasicType(name: "u8", size: 8, encoding: DW_ATE_unsigned)
!11 = !{!12, !13}
!12 = !DIEnumerator(name: "Ok", value: 0)
!13 = !DIEnumerator(name: "Err", value: 1)
!14 = !DICompositeType(tag: DW_TAG_enumeration_type, name: "Alignment", scope: !15, file: !7, baseType: !10, size: 8, align: 8, flags: DIFlagEnumClass, elements: !18)
!15 = !DINamespace(name: "v1", scope: !16)
!16 = !DINamespace(name: "rt", scope: !17)
!17 = !DINamespace(name: "fmt", scope: !9)
!18 = !{!19, !20, !21, !22}
!19 = !DIEnumerator(name: "Left", value: 0)
!20 = !DIEnumerator(name: "Right", value: 1)
!21 = !DIEnumerator(name: "Center", value: 2)
!22 = !DIEnumerator(name: "Unknown", value: 3)
!23 = !DICompositeType(tag: DW_TAG_enumeration_type, name: "Ordering", scope: !24, file: !7, baseType: !25, size: 8, align: 8, flags: DIFlagEnumClass, elements: !26)
!24 = !DINamespace(name: "cmp", scope: !9)
!25 = !DIBasicType(name: "i8", size: 8, encoding: DW_ATE_signed)
!26 = !{!27, !28, !29}
!27 = !DIEnumerator(name: "Less", value: -1)
!28 = !DIEnumerator(name: "Equal", value: 0)
!29 = !DIEnumerator(name: "Greater", value: 1)
!30 = !{!31}
!31 = !DIGlobalVariableExpression(var: !32, expr: !DIExpression())
!32 = distinct !DIGlobalVariable(name: "vtable", scope: null, file: !7, type: !33, isLocal: true, isDefinition: true)
!33 = !DICompositeType(tag: DW_TAG_structure_type, name: "vtable", file: !7, align: 64, flags: DIFlagArtificial, elements: !34, vtableHolder: !35, identifier: "vtable")
!34 = !{}
!35 = !DIDerivedType(tag: DW_TAG_pointer_type, name: "&usize", baseType: !36, size: 64, align: 64, dwarfAddressSpace: 0)
!36 = !DIBasicType(name: "usize", size: 64, encoding: DW_ATE_unsigned)
!37 = distinct !DISubprogram(name: "optimal_unsafe_impl", linkageName: "_ZN14iterator_bench19optimal_unsafe_impl17h43d230ec30bc4b7bE", scope: !39, file: !38, line: 132, type: !40, scopeLine: 132, flags: DIFlagPrototyped, spFlags: DISPFlagDefinition | DISPFlagOptimized, unit: !3, templateParams: !34, retainedNodes: !51)
!38 = !DIFile(filename: "src/lib.rs", directory: "/benchdata/rust/assume_true/iterator_bench", checksumkind: CSK_MD5, checksum: "a8dc37aaa783cb836f824ed3391fd70d")
!39 = !DINamespace(name: "iterator_bench", scope: null)
!40 = !DISubroutineType(types: !41)
!41 = !{null, !42, !46}
!42 = !DIDerivedType(tag: DW_TAG_pointer_type, name: "&mut [u8; 640000]", baseType: !43, size: 64, align: 64, dwarfAddressSpace: 0)
!43 = !DICompositeType(tag: DW_TAG_array_type, baseType: !10, size: 5120000, align: 8, elements: !44)
!44 = !{!45}
!45 = !DISubrange(count: 640000)
!46 = !DIDerivedType(tag: DW_TAG_pointer_type, name: "&[u16; 320000]", baseType: !47, size: 64, align: 64, dwarfAddressSpace: 0)
!47 = !DICompositeType(tag: DW_TAG_array_type, baseType: !48, size: 5120000, align: 16, elements: !49)
!48 = !DIBasicType(name: "u16", size: 16, encoding: DW_ATE_unsigned)
!49 = !{!50}
!50 = !DISubrange(count: 320000)
!51 = !{!52, !53, !54, !64, !66, !68, !70}
!52 = !DILocalVariable(name: "output", arg: 1, scope: !37, file: !38, line: 132, type: !42)
!53 = !DILocalVariable(name: "input", arg: 2, scope: !37, file: !38, line: 132, type: !46)
!54 = !DILocalVariable(name: "iter", scope: !55, file: !38, line: 133, type: !56, align: 8)
!55 = distinct !DILexicalBlock(scope: !37, file: !38, line: 133, column: 17)
!56 = !DICompositeType(tag: DW_TAG_structure_type, name: "Range<usize>", scope: !57, file: !7, size: 128, align: 64, elements: !59, templateParams: !62, identifier: "4be1f8843c4abc6e6b0755e50f9e3873")
!57 = !DINamespace(name: "range", scope: !58)
!58 = !DINamespace(name: "ops", scope: !9)
!59 = !{!60, !61}
!60 = !DIDerivedType(tag: DW_TAG_member, name: "start", scope: !56, file: !7, baseType: !36, size: 64, align: 64)
!61 = !DIDerivedType(tag: DW_TAG_member, name: "end", scope: !56, file: !7, baseType: !36, size: 64, align: 64, offset: 64)
!62 = !{!63}
!63 = !DITemplateTypeParameter(name: "Idx", type: !36)
!64 = !DILocalVariable(name: "__next", scope: !65, file: !38, line: 133, type: !36, align: 8)
!65 = distinct !DILexicalBlock(scope: !55, file: !38, line: 133, column: 26)
!66 = !DILocalVariable(name: "val", scope: !67, file: !38, line: 133, type: !36, align: 8)
!67 = distinct !DILexicalBlock(scope: !65, file: !38, line: 133, column: 21)
!68 = !DILocalVariable(name: "i", scope: !69, file: !38, line: 133, type: !36, align: 8)
!69 = distinct !DILexicalBlock(scope: !65, file: !38, line: 133, column: 26)
!70 = !DILocalVariable(name: "b", scope: !71, file: !38, line: 135, type: !48, align: 2)
!71 = distinct !DILexicalBlock(scope: !69, file: !38, line: 135, column: 25)
!72 = !DILocation(line: 0, scope: !37)
!73 = !DILocation(line: 0, scope: !55)
!74 = !DILocalVariable(name: "self", arg: 1, scope: !75, file: !76, line: 504, type: !97)
!75 = distinct !DISubprogram(name: "next<usize>", linkageName: "_ZN4core4iter5range101_$LT$impl$u20$core..iter..traits..iterator..Iterator$u20$for$u20$core..ops..range..Range$LT$A$GT$$GT$4next17h25cbe90ff389d789E", scope: !77, file: !76, line: 504, type: !80, scopeLine: 504, flags: DIFlagPrototyped, spFlags: DISPFlagLocalToUnit | DISPFlagDefinition | DISPFlagOptimized, unit: !3, templateParams: !101, retainedNodes: !98)
!76 = !DIFile(filename: "/benchdata/rust/rust-bcrm/src/libcore/iter/range.rs", directory: "", checksumkind: CSK_MD5, checksum: "cccabf57d1b2ffaf9873830757e526c9")
!77 = !DINamespace(name: "{{impl}}", scope: !78)
!78 = !DINamespace(name: "range", scope: !79)
!79 = !DINamespace(name: "iter", scope: !9)
!80 = !DISubroutineType(types: !81)
!81 = !{!82, !97}
!82 = !DICompositeType(tag: DW_TAG_structure_type, name: "Option<usize>", scope: !83, file: !7, size: 128, align: 64, elements: !84, identifier: "edae92f6aa2d4d3d8225245fd9f15299")
!83 = !DINamespace(name: "option", scope: !9)
!84 = !{!85}
!85 = !DICompositeType(tag: DW_TAG_variant_part, scope: !83, file: !7, size: 128, align: 64, elements: !86, templateParams: !89, identifier: "edae92f6aa2d4d3d8225245fd9f15299_variant_part", discriminator: !95)
!86 = !{!87, !91}
!87 = !DIDerivedType(tag: DW_TAG_member, name: "None", scope: !85, file: !7, baseType: !88, size: 128, align: 64, extraData: i64 0)
!88 = !DICompositeType(tag: DW_TAG_structure_type, name: "None", scope: !82, file: !7, size: 128, align: 64, elements: !34, templateParams: !89, identifier: "edae92f6aa2d4d3d8225245fd9f15299::None")
!89 = !{!90}
!90 = !DITemplateTypeParameter(name: "T", type: !36)
!91 = !DIDerivedType(tag: DW_TAG_member, name: "Some", scope: !85, file: !7, baseType: !92, size: 128, align: 64, extraData: i64 1)
!92 = !DICompositeType(tag: DW_TAG_structure_type, name: "Some", scope: !82, file: !7, size: 128, align: 64, elements: !93, templateParams: !89, identifier: "edae92f6aa2d4d3d8225245fd9f15299::Some")
!93 = !{!94}
!94 = !DIDerivedType(tag: DW_TAG_member, name: "__0", scope: !92, file: !7, baseType: !36, size: 64, align: 64, offset: 64)
!95 = !DIDerivedType(tag: DW_TAG_member, scope: !83, file: !7, baseType: !96, size: 64, align: 64, flags: DIFlagArtificial)
!96 = !DIBasicType(name: "u64", size: 64, encoding: DW_ATE_unsigned)
!97 = !DIDerivedType(tag: DW_TAG_pointer_type, name: "&mut core::ops::range::Range<usize>", baseType: !56, size: 64, align: 64, dwarfAddressSpace: 0)
!98 = !{!74, !99}
!99 = !DILocalVariable(name: "n", scope: !100, file: !76, line: 510, type: !36, align: 8)
!100 = distinct !DILexicalBlock(scope: !75, file: !76, line: 510, column: 13)
!101 = !{!102}
!102 = !DITemplateTypeParameter(name: "A", type: !36)
!103 = !DILocation(line: 0, scope: !75, inlinedAt: !104)
!104 = distinct !DILocation(line: 133, column: 26, scope: !65)
!105 = !DILocation(line: 505, column: 9, scope: !75, inlinedAt: !104)
!106 = !DILocation(line: 3025, column: 26, scope: !107, inlinedAt: !116)
!107 = distinct !DISubprogram(name: "unchecked_add", linkageName: "_ZN4core3num23_$LT$impl$u20$usize$GT$13unchecked_add17he27be0fa2186d468E", scope: !109, file: !108, line: 3022, type: !111, scopeLine: 3022, flags: DIFlagPrototyped, spFlags: DISPFlagLocalToUnit | DISPFlagDefinition | DISPFlagOptimized, unit: !3, templateParams: !34, retainedNodes: !113)
!108 = !DIFile(filename: "/benchdata/rust/rust-bcrm/src/libcore/num/mod.rs", directory: "", checksumkind: CSK_MD5, checksum: "b610d63e687c1bb61890b7290628f313")
!109 = !DINamespace(name: "{{impl}}", scope: !110)
!110 = !DINamespace(name: "num", scope: !9)
!111 = !DISubroutineType(types: !112)
!112 = !{!36, !36, !36}
!113 = !{!114, !115}
!114 = !DILocalVariable(name: "self", arg: 1, scope: !107, file: !108, line: 3022, type: !36)
!115 = !DILocalVariable(name: "rhs", arg: 2, scope: !107, file: !108, line: 3022, type: !36)
!116 = distinct !DILocation(line: 193, column: 22, scope: !117, inlinedAt: !121)
!117 = distinct !DISubprogram(name: "forward_unchecked", linkageName: "_ZN49_$LT$usize$u20$as$u20$core..iter..range..Step$GT$17forward_unchecked17hf3e4aa5239d3229aE", scope: !77, file: !76, line: 191, type: !111, scopeLine: 191, flags: DIFlagPrototyped, spFlags: DISPFlagLocalToUnit | DISPFlagDefinition | DISPFlagOptimized, unit: !3, templateParams: !34, retainedNodes: !118)
!118 = !{!119, !120}
!119 = !DILocalVariable(name: "start", arg: 1, scope: !117, file: !76, line: 191, type: !36)
!120 = !DILocalVariable(name: "n", arg: 2, scope: !117, file: !76, line: 191, type: !36)
!121 = distinct !DILocation(line: 510, column: 30, scope: !75, inlinedAt: !104)
!122 = !DILocation(line: 163, column: 18, scope: !123, inlinedAt: !137)
!123 = distinct !DISubprogram(name: "offset<u16>", linkageName: "_ZN4core3ptr9const_ptr33_$LT$impl$u20$$BP$const$u20$T$GT$6offset17h1ea7951510b1da58E", scope: !125, file: !124, line: 158, type: !128, scopeLine: 158, flags: DIFlagPrototyped, spFlags: DISPFlagLocalToUnit | DISPFlagDefinition | DISPFlagOptimized, unit: !3, templateParams: !135, retainedNodes: !132)
!124 = !DIFile(filename: "/benchdata/rust/rust-bcrm/src/libcore/ptr/const_ptr.rs", directory: "", checksumkind: CSK_MD5, checksum: "1029a80e51f3b78113c12b9a07d56765")
!125 = !DINamespace(name: "{{impl}}", scope: !126)
!126 = !DINamespace(name: "const_ptr", scope: !127)
!127 = !DINamespace(name: "ptr", scope: !9)
!128 = !DISubroutineType(types: !129)
!129 = !{!130, !130, !131}
!130 = !DIDerivedType(tag: DW_TAG_pointer_type, name: "*const u16", baseType: !48, size: 64, align: 64, dwarfAddressSpace: 0)
!131 = !DIBasicType(name: "isize", size: 64, encoding: DW_ATE_signed)
!132 = !{!133, !134}
!133 = !DILocalVariable(name: "self", arg: 1, scope: !123, file: !124, line: 158, type: !130)
!134 = !DILocalVariable(name: "count", arg: 2, scope: !123, file: !124, line: 158, type: !131)
!135 = !{!136}
!136 = !DITemplateTypeParameter(name: "T", type: !48)
!137 = distinct !DILocation(line: 479, column: 18, scope: !138, inlinedAt: !144)
!138 = distinct !DISubprogram(name: "add<u16>", linkageName: "_ZN4core3ptr9const_ptr33_$LT$impl$u20$$BP$const$u20$T$GT$3add17h84407a6ec849255eE", scope: !125, file: !124, line: 474, type: !139, scopeLine: 474, flags: DIFlagPrototyped, spFlags: DISPFlagLocalToUnit | DISPFlagDefinition | DISPFlagOptimized, unit: !3, templateParams: !135, retainedNodes: !141)
!139 = !DISubroutineType(types: !140)
!140 = !{!130, !130, !36}
!141 = !{!142, !143}
!142 = !DILocalVariable(name: "self", arg: 1, scope: !138, file: !124, line: 474, type: !130)
!143 = !DILocalVariable(name: "count", arg: 2, scope: !138, file: !124, line: 474, type: !36)
!144 = distinct !DILocation(line: 2991, column: 20, scope: !145, inlinedAt: !159)
!145 = distinct !DISubprogram(name: "get_unchecked<u16>", linkageName: "_ZN68_$LT$usize$u20$as$u20$core..slice..SliceIndex$LT$$u5b$T$u5d$$GT$$GT$13get_unchecked17h925a23a01d2de901E", scope: !147, file: !146, line: 2985, type: !149, scopeLine: 2985, flags: DIFlagPrototyped, spFlags: DISPFlagLocalToUnit | DISPFlagDefinition | DISPFlagOptimized, unit: !3, templateParams: !135, retainedNodes: !156)
!146 = !DIFile(filename: "/benchdata/rust/rust-bcrm/src/libcore/slice/mod.rs", directory: "", checksumkind: CSK_MD5, checksum: "9fd93c8a41addff7ba15d9096da1df6c")
!147 = !DINamespace(name: "{{impl}}", scope: !148)
!148 = !DINamespace(name: "slice", scope: !9)
!149 = !DISubroutineType(types: !150)
!150 = !{!151, !36, !152}
!151 = !DIDerivedType(tag: DW_TAG_pointer_type, name: "&u16", baseType: !48, size: 64, align: 64, dwarfAddressSpace: 0)
!152 = !DICompositeType(tag: DW_TAG_structure_type, name: "&[u16]", file: !7, size: 128, align: 64, elements: !153, templateParams: !34, identifier: "b0357cfe37f5889afcc00fbae608b8c")
!153 = !{!154, !155}
!154 = !DIDerivedType(tag: DW_TAG_member, name: "data_ptr", scope: !152, file: !7, baseType: !130, size: 64, align: 64)
!155 = !DIDerivedType(tag: DW_TAG_member, name: "length", scope: !152, file: !7, baseType: !36, size: 64, align: 64, offset: 64)
!156 = !{!157, !158}
!157 = !DILocalVariable(name: "self", arg: 1, scope: !145, file: !146, line: 2985, type: !36)
!158 = !DILocalVariable(name: "slice", arg: 2, scope: !145, file: !146, line: 2985, type: !152)
!159 = distinct !DILocation(line: 314, column: 18, scope: !160, inlinedAt: !168)
!160 = distinct !DISubprogram(name: "get_unchecked<u16,usize>", linkageName: "_ZN4core5slice29_$LT$impl$u20$$u5b$T$u5d$$GT$13get_unchecked17hf20048a1e3baefd0E", scope: !147, file: !146, line: 309, type: !161, scopeLine: 309, flags: DIFlagPrototyped, spFlags: DISPFlagLocalToUnit | DISPFlagDefinition | DISPFlagOptimized, unit: !3, templateParams: !166, retainedNodes: !163)
!161 = !DISubroutineType(types: !162)
!162 = !{!151, !152, !36}
!163 = !{!164, !165}
!164 = !DILocalVariable(name: "self", arg: 1, scope: !160, file: !146, line: 309, type: !152)
!165 = !DILocalVariable(name: "index", arg: 2, scope: !160, file: !146, line: 309, type: !36)
!166 = !{!136, !167}
!167 = !DITemplateTypeParameter(name: "I", type: !36)
!168 = distinct !DILocation(line: 135, column: 34, scope: !69)
!169 = !DILocation(line: 135, column: 33, scope: !69)
!170 = !DILocation(line: 136, column: 51, scope: !71)
!171 = !DILocation(line: 136, column: 25, scope: !71)
!172 = !DILocation(line: 137, column: 65, scope: !71)
!173 = !DILocation(line: 137, column: 51, scope: !71)
!174 = !DILocation(line: 159, column: 18, scope: !175, inlinedAt: !187)
!175 = distinct !DISubprogram(name: "offset<u8>", linkageName: "_ZN4core3ptr7mut_ptr31_$LT$impl$u20$$BP$mut$u20$T$GT$6offset17ha8eaf047cf6f2f2dE", scope: !177, file: !176, line: 152, type: !179, scopeLine: 152, flags: DIFlagPrototyped, spFlags: DISPFlagLocalToUnit | DISPFlagDefinition | DISPFlagOptimized, unit: !3, templateParams: !185, retainedNodes: !182)
!176 = !DIFile(filename: "/benchdata/rust/rust-bcrm/src/libcore/ptr/mut_ptr.rs", directory: "", checksumkind: CSK_MD5, checksum: "238dec856f48b4ef677669c578abb280")
!177 = !DINamespace(name: "{{impl}}", scope: !178)
!178 = !DINamespace(name: "mut_ptr", scope: !127)
!179 = !DISubroutineType(types: !180)
!180 = !{!181, !181, !131}
!181 = !DIDerivedType(tag: DW_TAG_pointer_type, name: "*mut u8", baseType: !10, size: 64, align: 64, dwarfAddressSpace: 0)
!182 = !{!183, !184}
!183 = !DILocalVariable(name: "self", arg: 1, scope: !175, file: !176, line: 152, type: !181)
!184 = !DILocalVariable(name: "count", arg: 2, scope: !175, file: !176, line: 152, type: !131)
!185 = !{!186}
!186 = !DITemplateTypeParameter(name: "T", type: !10)
!187 = distinct !DILocation(line: 530, column: 18, scope: !188, inlinedAt: !194)
!188 = distinct !DISubprogram(name: "add<u8>", linkageName: "_ZN4core3ptr7mut_ptr31_$LT$impl$u20$$BP$mut$u20$T$GT$3add17h5cc7c4b4a4fd234aE", scope: !177, file: !176, line: 525, type: !189, scopeLine: 525, flags: DIFlagPrototyped, spFlags: DISPFlagLocalToUnit | DISPFlagDefinition | DISPFlagOptimized, unit: !3, templateParams: !185, retainedNodes: !191)
!189 = !DISubroutineType(types: !190)
!190 = !{!181, !181, !36}
!191 = !{!192, !193}
!192 = !DILocalVariable(name: "self", arg: 1, scope: !188, file: !176, line: 525, type: !181)
!193 = !DILocalVariable(name: "count", arg: 2, scope: !188, file: !176, line: 525, type: !36)
!194 = distinct !DILocation(line: 2997, column: 24, scope: !195, inlinedAt: !207)
!195 = distinct !DISubprogram(name: "get_unchecked_mut<u8>", linkageName: "_ZN68_$LT$usize$u20$as$u20$core..slice..SliceIndex$LT$$u5b$T$u5d$$GT$$GT$17get_unchecked_mut17h6a1e0588c0dc2c16E", scope: !147, file: !146, line: 2995, type: !196, scopeLine: 2995, flags: DIFlagPrototyped, spFlags: DISPFlagLocalToUnit | DISPFlagDefinition | DISPFlagOptimized, unit: !3, templateParams: !185, retainedNodes: !204)
!196 = !DISubroutineType(types: !197)
!197 = !{!198, !36, !199}
!198 = !DIDerivedType(tag: DW_TAG_pointer_type, name: "&mut u8", baseType: !10, size: 64, align: 64, dwarfAddressSpace: 0)
!199 = !DICompositeType(tag: DW_TAG_structure_type, name: "&mut [u8]", file: !7, size: 128, align: 64, elements: !200, templateParams: !34, identifier: "7596319ecf86f60af9b48d8c05ebf9f7")
!200 = !{!201, !203}
!201 = !DIDerivedType(tag: DW_TAG_member, name: "data_ptr", scope: !199, file: !7, baseType: !202, size: 64, align: 64)
!202 = !DIDerivedType(tag: DW_TAG_pointer_type, name: "*const u8", baseType: !10, size: 64, align: 64, dwarfAddressSpace: 0)
!203 = !DIDerivedType(tag: DW_TAG_member, name: "length", scope: !199, file: !7, baseType: !36, size: 64, align: 64, offset: 64)
!204 = !{!205, !206}
!205 = !DILocalVariable(name: "self", arg: 1, scope: !195, file: !146, line: 2995, type: !36)
!206 = !DILocalVariable(name: "slice", arg: 2, scope: !195, file: !146, line: 2995, type: !199)
!207 = distinct !DILocation(line: 346, column: 18, scope: !208, inlinedAt: !215)
!208 = distinct !DISubprogram(name: "get_unchecked_mut<u8,usize>", linkageName: "_ZN4core5slice29_$LT$impl$u20$$u5b$T$u5d$$GT$17get_unchecked_mut17h3271901634b764d2E", scope: !147, file: !146, line: 341, type: !209, scopeLine: 341, flags: DIFlagPrototyped, spFlags: DISPFlagLocalToUnit | DISPFlagDefinition | DISPFlagOptimized, unit: !3, templateParams: !214, retainedNodes: !211)
!209 = !DISubroutineType(types: !210)
!210 = !{!198, !199, !36}
!211 = !{!212, !213}
!212 = !DILocalVariable(name: "self", arg: 1, scope: !208, file: !146, line: 341, type: !199)
!213 = !DILocalVariable(name: "index", arg: 2, scope: !208, file: !146, line: 341, type: !36)
!214 = !{!186, !167}
!215 = distinct !DILocation(line: 137, column: 26, scope: !71)
!216 = !DILocation(line: 137, column: 25, scope: !71)
!217 = distinct !{!217, !218}
!218 = !{!"llvm.loop.isvectorized", i32 1}
!219 = !DILocation(line: 140, column: 14, scope: !37)
!220 = distinct !DISubprogram(name: "c_style_fixed_size_impl", linkageName: "_ZN14iterator_bench23c_style_fixed_size_impl17h342585e2e19b3e4eE", scope: !39, file: !38, line: 190, type: !40, scopeLine: 190, flags: DIFlagPrototyped, spFlags: DISPFlagDefinition | DISPFlagOptimized, unit: !3, templateParams: !34, retainedNodes: !221)
!221 = !{!222, !223, !224, !226, !228, !230, !232}
!222 = !DILocalVariable(name: "output", arg: 1, scope: !220, file: !38, line: 190, type: !42)
!223 = !DILocalVariable(name: "input", arg: 2, scope: !220, file: !38, line: 190, type: !46)
!224 = !DILocalVariable(name: "iter", scope: !225, file: !38, line: 191, type: !56, align: 8)
!225 = distinct !DILexicalBlock(scope: !220, file: !38, line: 191, column: 17)
!226 = !DILocalVariable(name: "__next", scope: !227, file: !38, line: 191, type: !36, align: 8)
!227 = distinct !DILexicalBlock(scope: !225, file: !38, line: 191, column: 26)
!228 = !DILocalVariable(name: "val", scope: !229, file: !38, line: 191, type: !36, align: 8)
!229 = distinct !DILexicalBlock(scope: !227, file: !38, line: 191, column: 21)
!230 = !DILocalVariable(name: "i", scope: !231, file: !38, line: 191, type: !36, align: 8)
!231 = distinct !DILexicalBlock(scope: !227, file: !38, line: 191, column: 26)
!232 = !DILocalVariable(name: "b", scope: !233, file: !38, line: 192, type: !48, align: 2)
!233 = distinct !DILexicalBlock(scope: !231, file: !38, line: 192, column: 21)
!234 = !DILocation(line: 0, scope: !220)
!235 = !DILocation(line: 0, scope: !225)
!236 = !DILocation(line: 0, scope: !75, inlinedAt: !237)
!237 = distinct !DILocation(line: 191, column: 26, scope: !227)
!238 = !DILocation(line: 505, column: 9, scope: !75, inlinedAt: !237)
!239 = !DILocation(line: 3025, column: 26, scope: !107, inlinedAt: !240)
!240 = distinct !DILocation(line: 193, column: 22, scope: !117, inlinedAt: !241)
!241 = distinct !DILocation(line: 510, column: 30, scope: !75, inlinedAt: !237)
!242 = !DILocation(line: 192, column: 29, scope: !231)
!243 = !DILocation(line: 193, column: 28, scope: !233)
!244 = !DILocation(line: 193, column: 21, scope: !233)
!245 = !DILocation(line: 194, column: 28, scope: !233)
!246 = !DILocation(line: 194, column: 42, scope: !233)
!247 = !DILocation(line: 194, column: 21, scope: !233)
!248 = distinct !{!248, !218}
!249 = !DILocation(line: 196, column: 14, scope: !220)
!250 = distinct !DISubprogram(name: "c_style_input_size_fixed_impl", linkageName: "_ZN14iterator_bench29c_style_input_size_fixed_impl17hcfe426a147d1500bE", scope: !39, file: !38, line: 265, type: !251, scopeLine: 265, flags: DIFlagPrototyped, spFlags: DISPFlagDefinition | DISPFlagOptimized, unit: !3, templateParams: !34, retainedNodes: !253)
!251 = !DISubroutineType(types: !252)
!252 = !{null, !199, !46}
!253 = !{!254, !255, !256, !258, !260, !262, !264}
!254 = !DILocalVariable(name: "output", arg: 1, scope: !250, file: !38, line: 265, type: !199)
!255 = !DILocalVariable(name: "input", arg: 2, scope: !250, file: !38, line: 265, type: !46)
!256 = !DILocalVariable(name: "iter", scope: !257, file: !38, line: 266, type: !56, align: 8)
!257 = distinct !DILexicalBlock(scope: !250, file: !38, line: 266, column: 17)
!258 = !DILocalVariable(name: "__next", scope: !259, file: !38, line: 266, type: !36, align: 8)
!259 = distinct !DILexicalBlock(scope: !257, file: !38, line: 266, column: 26)
!260 = !DILocalVariable(name: "val", scope: !261, file: !38, line: 266, type: !36, align: 8)
!261 = distinct !DILexicalBlock(scope: !259, file: !38, line: 266, column: 21)
!262 = !DILocalVariable(name: "i", scope: !263, file: !38, line: 266, type: !36, align: 8)
!263 = distinct !DILexicalBlock(scope: !259, file: !38, line: 266, column: 26)
!264 = !DILocalVariable(name: "b", scope: !265, file: !38, line: 267, type: !48, align: 2)
!265 = distinct !DILexicalBlock(scope: !263, file: !38, line: 267, column: 21)
!266 = !DILocation(line: 0, scope: !250)
!267 = !DILocation(line: 0, scope: !257)
!268 = !DILocation(line: 0, scope: !75, inlinedAt: !269)
!269 = distinct !DILocation(line: 266, column: 26, scope: !259)
!270 = !DILocation(line: 505, column: 9, scope: !75, inlinedAt: !269)
!271 = !DILocation(line: 271, column: 14, scope: !250)
!272 = !DILocation(line: 0, scope: !117, inlinedAt: !273)
!273 = distinct !DILocation(line: 510, column: 30, scope: !75, inlinedAt: !269)
!274 = !DILocation(line: 0, scope: !107, inlinedAt: !275)
!275 = distinct !DILocation(line: 193, column: 22, scope: !117, inlinedAt: !273)
!276 = !DILocation(line: 3025, column: 26, scope: !107, inlinedAt: !275)
!277 = !DILocation(line: 0, scope: !259)
!278 = !DILocation(line: 0, scope: !263)
!279 = !DILocation(line: 267, column: 29, scope: !263)
!280 = !DILocation(line: 0, scope: !265)
!281 = !DILocation(line: 268, column: 28, scope: !265)
!282 = !DILocation(line: 268, column: 21, scope: !265)
!283 = !{!"branch_weights", i32 2000, i32 1}
!284 = !DILocation(line: 269, column: 28, scope: !265)
!285 = !DILocation(line: 269, column: 21, scope: !265)
!286 = !DILocation(line: 269, column: 42, scope: !265)
!287 = !DILocation(line: 1137, column: 52, scope: !288, inlinedAt: !298)
!288 = distinct !DISubprogram(name: "lt", linkageName: "_ZN4core3cmp5impls57_$LT$impl$u20$core..cmp..PartialOrd$u20$for$u20$usize$GT$2lt17h697d7385366f3475E", scope: !290, file: !289, line: 1137, type: !292, scopeLine: 1137, flags: DIFlagPrototyped, spFlags: DISPFlagLocalToUnit | DISPFlagDefinition | DISPFlagOptimized, unit: !3, templateParams: !34, retainedNodes: !295)
!289 = !DIFile(filename: "/benchdata/rust/rust-bcrm/src/libcore/cmp.rs", directory: "", checksumkind: CSK_MD5, checksum: "a4329b033234040c2caa81654f112278")
!290 = !DINamespace(name: "{{impl}}", scope: !291)
!291 = !DINamespace(name: "impls", scope: !24)
!292 = !DISubroutineType(types: !293)
!293 = !{!294, !35, !35}
!294 = !DIBasicType(name: "bool", size: 8, encoding: DW_ATE_boolean)
!295 = !{!296, !297}
!296 = !DILocalVariable(name: "self", arg: 1, scope: !288, file: !289, line: 1137, type: !35)
!297 = !DILocalVariable(name: "other", arg: 2, scope: !288, file: !289, line: 1137, type: !35)
!298 = distinct !DILocation(line: 505, column: 12, scope: !75, inlinedAt: !269)
!299 = distinct !DISubprogram(name: "c_style_output_size_fixed_impl", linkageName: "_ZN14iterator_bench30c_style_output_size_fixed_impl17hf1905e2e3293ab9bE", scope: !39, file: !38, line: 326, type: !300, scopeLine: 326, flags: DIFlagPrototyped, spFlags: DISPFlagDefinition | DISPFlagOptimized, unit: !3, templateParams: !34, retainedNodes: !302)
!300 = !DISubroutineType(types: !301)
!301 = !{null, !42, !152}
!302 = !{!303, !304, !305, !307, !309, !311, !313}
!303 = !DILocalVariable(name: "output", arg: 1, scope: !299, file: !38, line: 326, type: !42)
!304 = !DILocalVariable(name: "input", arg: 2, scope: !299, file: !38, line: 326, type: !152)
!305 = !DILocalVariable(name: "iter", scope: !306, file: !38, line: 327, type: !56, align: 8)
!306 = distinct !DILexicalBlock(scope: !299, file: !38, line: 327, column: 17)
!307 = !DILocalVariable(name: "__next", scope: !308, file: !38, line: 327, type: !36, align: 8)
!308 = distinct !DILexicalBlock(scope: !306, file: !38, line: 327, column: 26)
!309 = !DILocalVariable(name: "val", scope: !310, file: !38, line: 327, type: !36, align: 8)
!310 = distinct !DILexicalBlock(scope: !308, file: !38, line: 327, column: 21)
!311 = !DILocalVariable(name: "i", scope: !312, file: !38, line: 327, type: !36, align: 8)
!312 = distinct !DILexicalBlock(scope: !308, file: !38, line: 327, column: 26)
!313 = !DILocalVariable(name: "b", scope: !314, file: !38, line: 328, type: !48, align: 2)
!314 = distinct !DILexicalBlock(scope: !312, file: !38, line: 328, column: 21)
!315 = !DILocation(line: 0, scope: !299)
!316 = !DILocation(line: 0, scope: !306)
!317 = !DILocation(line: 0, scope: !75, inlinedAt: !318)
!318 = distinct !DILocation(line: 327, column: 26, scope: !308)
!319 = !DILocation(line: 1137, column: 52, scope: !288, inlinedAt: !320)
!320 = distinct !DILocation(line: 505, column: 12, scope: !75, inlinedAt: !318)
!321 = !DILocation(line: 505, column: 9, scope: !75, inlinedAt: !318)
!322 = !DILocation(line: 332, column: 14, scope: !299)
!323 = !DILocation(line: 0, scope: !117, inlinedAt: !324)
!324 = distinct !DILocation(line: 510, column: 30, scope: !75, inlinedAt: !318)
!325 = !DILocation(line: 0, scope: !107, inlinedAt: !326)
!326 = distinct !DILocation(line: 193, column: 22, scope: !117, inlinedAt: !324)
!327 = !DILocation(line: 3025, column: 26, scope: !107, inlinedAt: !326)
!328 = !DILocation(line: 0, scope: !308)
!329 = !DILocation(line: 0, scope: !312)
!330 = !DILocation(line: 328, column: 29, scope: !312)
!331 = !DILocation(line: 0, scope: !314)
!332 = !DILocation(line: 329, column: 28, scope: !314)
!333 = !DILocation(line: 329, column: 21, scope: !314)
!334 = !{!"branch_weights", i32 1, i32 2000}
!335 = !DILocation(line: 330, column: 28, scope: !314)
!336 = !DILocation(line: 330, column: 42, scope: !314)
!337 = !DILocation(line: 330, column: 21, scope: !314)
!338 = distinct !DISubprogram(name: "c_style_unknown_size_impl", linkageName: "_ZN14iterator_bench25c_style_unknown_size_impl17ha4507c1657d6df17E", scope: !39, file: !38, line: 384, type: !339, scopeLine: 384, flags: DIFlagPrototyped, spFlags: DISPFlagDefinition | DISPFlagOptimized, unit: !3, templateParams: !34, retainedNodes: !341)
!339 = !DISubroutineType(types: !340)
!340 = !{null, !199, !152}
!341 = !{!342, !343, !344, !346, !348, !350, !352}
!342 = !DILocalVariable(name: "output", arg: 1, scope: !338, file: !38, line: 384, type: !199)
!343 = !DILocalVariable(name: "input", arg: 2, scope: !338, file: !38, line: 384, type: !152)
!344 = !DILocalVariable(name: "iter", scope: !345, file: !38, line: 385, type: !56, align: 8)
!345 = distinct !DILexicalBlock(scope: !338, file: !38, line: 385, column: 17)
!346 = !DILocalVariable(name: "__next", scope: !347, file: !38, line: 385, type: !36, align: 8)
!347 = distinct !DILexicalBlock(scope: !345, file: !38, line: 385, column: 26)
!348 = !DILocalVariable(name: "val", scope: !349, file: !38, line: 385, type: !36, align: 8)
!349 = distinct !DILexicalBlock(scope: !347, file: !38, line: 385, column: 21)
!350 = !DILocalVariable(name: "i", scope: !351, file: !38, line: 385, type: !36, align: 8)
!351 = distinct !DILexicalBlock(scope: !347, file: !38, line: 385, column: 26)
!352 = !DILocalVariable(name: "b", scope: !353, file: !38, line: 386, type: !48, align: 2)
!353 = distinct !DILexicalBlock(scope: !351, file: !38, line: 386, column: 21)
!354 = !DILocation(line: 0, scope: !338)
!355 = !DILocation(line: 0, scope: !345)
!356 = !DILocation(line: 0, scope: !75, inlinedAt: !357)
!357 = distinct !DILocation(line: 385, column: 26, scope: !347)
!358 = !DILocation(line: 1137, column: 52, scope: !288, inlinedAt: !359)
!359 = distinct !DILocation(line: 505, column: 12, scope: !75, inlinedAt: !357)
!360 = !DILocation(line: 505, column: 9, scope: !75, inlinedAt: !357)
!361 = !DILocation(line: 390, column: 14, scope: !338)
!362 = !DILocation(line: 0, scope: !117, inlinedAt: !363)
!363 = distinct !DILocation(line: 510, column: 30, scope: !75, inlinedAt: !357)
!364 = !DILocation(line: 0, scope: !107, inlinedAt: !365)
!365 = distinct !DILocation(line: 193, column: 22, scope: !117, inlinedAt: !363)
!366 = !DILocation(line: 3025, column: 26, scope: !107, inlinedAt: !365)
!367 = !DILocation(line: 0, scope: !347)
!368 = !DILocation(line: 0, scope: !351)
!369 = !DILocation(line: 386, column: 29, scope: !351)
!370 = !DILocation(line: 0, scope: !353)
!371 = !DILocation(line: 387, column: 28, scope: !353)
!372 = !DILocation(line: 387, column: 21, scope: !353)
!373 = !DILocation(line: 388, column: 28, scope: !353)
!374 = !DILocation(line: 388, column: 21, scope: !353)
!375 = !DILocation(line: 388, column: 42, scope: !353)
!376 = distinct !DISubprogram(name: "c_style_unknown_size_limit_impl", linkageName: "_ZN14iterator_bench31c_style_unknown_size_limit_impl17h959ca8c4442b3f9cE", scope: !39, file: !38, line: 445, type: !339, scopeLine: 445, flags: DIFlagPrototyped, spFlags: DISPFlagDefinition | DISPFlagOptimized, unit: !3, templateParams: !34, retainedNodes: !377)
!377 = !{!378, !379, !380, !382, !384, !386, !388}
!378 = !DILocalVariable(name: "output", arg: 1, scope: !376, file: !38, line: 445, type: !199)
!379 = !DILocalVariable(name: "input", arg: 2, scope: !376, file: !38, line: 445, type: !152)
!380 = !DILocalVariable(name: "iter", scope: !381, file: !38, line: 447, type: !56, align: 8)
!381 = distinct !DILexicalBlock(scope: !376, file: !38, line: 447, column: 17)
!382 = !DILocalVariable(name: "__next", scope: !383, file: !38, line: 447, type: !36, align: 8)
!383 = distinct !DILexicalBlock(scope: !381, file: !38, line: 447, column: 26)
!384 = !DILocalVariable(name: "val", scope: !385, file: !38, line: 447, type: !36, align: 8)
!385 = distinct !DILexicalBlock(scope: !383, file: !38, line: 447, column: 21)
!386 = !DILocalVariable(name: "i", scope: !387, file: !38, line: 447, type: !36, align: 8)
!387 = distinct !DILexicalBlock(scope: !383, file: !38, line: 447, column: 26)
!388 = !DILocalVariable(name: "b", scope: !389, file: !38, line: 448, type: !48, align: 2)
!389 = distinct !DILexicalBlock(scope: !387, file: !38, line: 448, column: 21)
!390 = !DILocation(line: 0, scope: !376)
!391 = !DILocalVariable(name: "v1", arg: 1, scope: !392, file: !289, line: 994, type: !36)
!392 = distinct !DISubprogram(name: "max<usize>", linkageName: "_ZN4core3cmp3max17hd69510cf96ce65d3E", scope: !24, file: !289, line: 994, type: !111, scopeLine: 994, flags: DIFlagPrototyped, spFlags: DISPFlagLocalToUnit | DISPFlagDefinition | DISPFlagOptimized, unit: !3, templateParams: !89, retainedNodes: !393)
!393 = !{!391, !394}
!394 = !DILocalVariable(name: "v2", arg: 2, scope: !392, file: !289, line: 994, type: !36)
!395 = !DILocation(line: 0, scope: !392, inlinedAt: !396)
!396 = distinct !DILocation(line: 447, column: 29, scope: !376)
!397 = !DILocalVariable(name: "self", arg: 1, scope: !398, file: !289, line: 600, type: !36)
!398 = distinct !DISubprogram(name: "max<usize>", linkageName: "_ZN4core3cmp3Ord3max17hf04816fbfc63fc99E", scope: !399, file: !289, line: 600, type: !111, scopeLine: 600, flags: DIFlagPrototyped, spFlags: DISPFlagLocalToUnit | DISPFlagDefinition | DISPFlagOptimized, unit: !3, templateParams: !402, retainedNodes: !400)
!399 = !DINamespace(name: "Ord", scope: !24)
!400 = !{!397, !401}
!401 = !DILocalVariable(name: "other", arg: 2, scope: !398, file: !289, line: 600, type: !36)
!402 = !{!403}
!403 = !DITemplateTypeParameter(name: "Self", type: !36)
!404 = !DILocation(line: 0, scope: !398, inlinedAt: !405)
!405 = distinct !DILocation(line: 995, column: 5, scope: !392, inlinedAt: !396)
!406 = !DILocalVariable(name: "v1", arg: 1, scope: !407, file: !289, line: 1015, type: !36)
!407 = distinct !DISubprogram(name: "max_by<usize,fn(&usize, &usize) -> core::cmp::Ordering>", linkageName: "_ZN4core3cmp6max_by17h45a7a595acc422f8E", scope: !24, file: !289, line: 1015, type: !408, scopeLine: 1015, flags: DIFlagPrototyped, spFlags: DISPFlagLocalToUnit | DISPFlagDefinition | DISPFlagOptimized, unit: !3, templateParams: !416, retainedNodes: !413)
!408 = !DISubroutineType(types: !409)
!409 = !{!36, !36, !36, !410}
!410 = !DIDerivedType(tag: DW_TAG_pointer_type, name: "fn(&usize, &usize) -> core::cmp::Ordering", baseType: !411, align: 8, dwarfAddressSpace: 0)
!411 = !DISubroutineType(types: !412)
!412 = !{!23, !35, !35}
!413 = !{!406, !414, !415}
!414 = !DILocalVariable(name: "v2", arg: 2, scope: !407, file: !289, line: 1015, type: !36)
!415 = !DILocalVariable(name: "compare", arg: 3, scope: !407, file: !289, line: 1015, type: !410)
!416 = !{!90, !417}
!417 = !DITemplateTypeParameter(name: "F", type: !410)
!418 = !DILocation(line: 0, scope: !407, inlinedAt: !419)
!419 = distinct !DILocation(line: 604, column: 9, scope: !398, inlinedAt: !405)
!420 = !DILocation(line: 0, scope: !381)
!421 = !DILocation(line: 0, scope: !75, inlinedAt: !422)
!422 = distinct !DILocation(line: 447, column: 26, scope: !383)
!423 = !DILocation(line: 505, column: 9, scope: !75, inlinedAt: !422)
!424 = !DILocation(line: 452, column: 14, scope: !376)
!425 = !DILocation(line: 0, scope: !117, inlinedAt: !426)
!426 = distinct !DILocation(line: 510, column: 30, scope: !75, inlinedAt: !422)
!427 = !DILocation(line: 0, scope: !107, inlinedAt: !428)
!428 = distinct !DILocation(line: 193, column: 22, scope: !117, inlinedAt: !426)
!429 = !DILocation(line: 3025, column: 26, scope: !107, inlinedAt: !428)
!430 = !DILocation(line: 0, scope: !383)
!431 = !DILocation(line: 0, scope: !387)
!432 = !DILocation(line: 448, column: 29, scope: !387)
!433 = !DILocation(line: 0, scope: !389)
!434 = !DILocation(line: 449, column: 28, scope: !389)
!435 = !DILocation(line: 449, column: 21, scope: !389)
!436 = !DILocation(line: 450, column: 28, scope: !389)
!437 = !DILocation(line: 450, column: 21, scope: !389)
!438 = !DILocation(line: 450, column: 42, scope: !389)
!439 = !DILocation(line: 1137, column: 52, scope: !288, inlinedAt: !440)
!440 = distinct !DILocation(line: 505, column: 12, scope: !75, inlinedAt: !422)
!441 = distinct !DISubprogram(name: "zip_chunks_fixed_size_impl", linkageName: "_ZN14iterator_bench26zip_chunks_fixed_size_impl17ha62eecc2e2c38aabE", scope: !39, file: !38, line: 505, type: !40, scopeLine: 505, flags: DIFlagPrototyped, spFlags: DISPFlagDefinition | DISPFlagOptimized, unit: !3, templateParams: !34, retainedNodes: !442)
!442 = !{!443, !444, !445, !475, !481, !483, !485}
!443 = !DILocalVariable(name: "output", arg: 1, scope: !441, file: !38, line: 505, type: !42)
!444 = !DILocalVariable(name: "input", arg: 2, scope: !441, file: !38, line: 505, type: !46)
!445 = !DILocalVariable(name: "iter", scope: !446, file: !38, line: 506, type: !447, align: 8)
!446 = distinct !DILexicalBlock(scope: !441, file: !38, line: 506, column: 17)
!447 = !DICompositeType(tag: DW_TAG_structure_type, name: "Zip<core::slice::Iter<u16>, core::slice::ChunksMut<u8>>", scope: !448, file: !7, size: 448, align: 64, elements: !450, templateParams: !472, identifier: "2603922c5128e7d2a0c421e882eb59e8")
!448 = !DINamespace(name: "zip", scope: !449)
!449 = !DINamespace(name: "adapters", scope: !79)
!450 = !{!451, !465, !470, !471}
!451 = !DIDerivedType(tag: DW_TAG_member, name: "a", scope: !447, file: !7, baseType: !452, size: 128, align: 64)
!452 = !DICompositeType(tag: DW_TAG_structure_type, name: "Iter<u16>", scope: !148, file: !7, size: 128, align: 64, elements: !453, templateParams: !135, identifier: "3b6f625891d0497522e6ef9adb8e48b9")
!453 = !{!454, !459, !460}
!454 = !DIDerivedType(tag: DW_TAG_member, name: "ptr", scope: !452, file: !7, baseType: !455, size: 64, align: 64)
!455 = !DICompositeType(tag: DW_TAG_structure_type, name: "NonNull<u16>", scope: !456, file: !7, size: 64, align: 64, elements: !457, templateParams: !135, identifier: "93f0871a8bbbfb515b6ec5299845b747")
!456 = !DINamespace(name: "non_null", scope: !127)
!457 = !{!458}
!458 = !DIDerivedType(tag: DW_TAG_member, name: "pointer", scope: !455, file: !7, baseType: !130, size: 64, align: 64)
!459 = !DIDerivedType(tag: DW_TAG_member, name: "end", scope: !452, file: !7, baseType: !130, size: 64, align: 64, offset: 64)
!460 = !DIDerivedType(tag: DW_TAG_member, name: "_marker", scope: !452, file: !7, baseType: !461, align: 8)
!461 = !DICompositeType(tag: DW_TAG_structure_type, name: "PhantomData<&u16>", scope: !462, file: !7, align: 8, elements: !34, templateParams: !463, identifier: "b0f09a0ff467ada3bd7ae1b7c7b8c070")
!462 = !DINamespace(name: "marker", scope: !9)
!463 = !{!464}
!464 = !DITemplateTypeParameter(name: "T", type: !151)
!465 = !DIDerivedType(tag: DW_TAG_member, name: "b", scope: !447, file: !7, baseType: !466, size: 192, align: 64, offset: 128)
!466 = !DICompositeType(tag: DW_TAG_structure_type, name: "ChunksMut<u8>", scope: !148, file: !7, size: 192, align: 64, elements: !467, templateParams: !185, identifier: "3d60118ea8ab2507bfb6d9d594c44bd8")
!467 = !{!468, !469}
!468 = !DIDerivedType(tag: DW_TAG_member, name: "v", scope: !466, file: !7, baseType: !199, size: 128, align: 64)
!469 = !DIDerivedType(tag: DW_TAG_member, name: "chunk_size", scope: !466, file: !7, baseType: !36, size: 64, align: 64, offset: 128)
!470 = !DIDerivedType(tag: DW_TAG_member, name: "index", scope: !447, file: !7, baseType: !36, size: 64, align: 64, offset: 320)
!471 = !DIDerivedType(tag: DW_TAG_member, name: "len", scope: !447, file: !7, baseType: !36, size: 64, align: 64, offset: 384)
!472 = !{!473, !474}
!473 = !DITemplateTypeParameter(name: "A", type: !452)
!474 = !DITemplateTypeParameter(name: "B", type: !466)
!475 = !DILocalVariable(name: "__next", scope: !476, file: !38, line: 506, type: !477, align: 8)
!476 = distinct !DILexicalBlock(scope: !446, file: !38, line: 506, column: 33)
!477 = !DICompositeType(tag: DW_TAG_structure_type, name: "(&u16, &mut [u8])", file: !7, size: 192, align: 64, elements: !478, templateParams: !34, identifier: "da34b111579020308bcd12aa4b615188")
!478 = !{!479, !480}
!479 = !DIDerivedType(tag: DW_TAG_member, name: "__0", scope: !477, file: !7, baseType: !151, size: 64, align: 64)
!480 = !DIDerivedType(tag: DW_TAG_member, name: "__1", scope: !477, file: !7, baseType: !199, size: 128, align: 64, offset: 64)
!481 = !DILocalVariable(name: "val", scope: !482, file: !38, line: 506, type: !477, align: 8)
!482 = distinct !DILexicalBlock(scope: !476, file: !38, line: 506, column: 21)
!483 = !DILocalVariable(name: "b", scope: !484, file: !38, line: 506, type: !48, align: 2)
!484 = distinct !DILexicalBlock(scope: !476, file: !38, line: 506, column: 33)
!485 = !DILocalVariable(name: "ac", scope: !484, file: !38, line: 506, type: !199, align: 8)
!486 = !DILocation(line: 0, scope: !441)
!487 = !DILocation(line: 0, scope: !446)
!488 = !DILocalVariable(name: "self", arg: 1, scope: !489, file: !490, line: 46, type: !506)
!489 = distinct !DISubprogram(name: "next<core::slice::Iter<u16>,core::slice::ChunksMut<u8>>", linkageName: "_ZN102_$LT$core..iter..adapters..zip..Zip$LT$A$C$B$GT$$u20$as$u20$core..iter..traits..iterator..Iterator$GT$4next17h261f1104123b97a0E", scope: !491, file: !490, line: 46, type: !492, scopeLine: 46, flags: DIFlagPrototyped, spFlags: DISPFlagLocalToUnit | DISPFlagDefinition | DISPFlagOptimized, unit: !3, templateParams: !472, retainedNodes: !507)
!490 = !DIFile(filename: "/benchdata/rust/rust-bcrm/src/libcore/iter/adapters/zip.rs", directory: "", checksumkind: CSK_MD5, checksum: "f3eb2f902ea9ef422ff1bfca2897667a")
!491 = !DINamespace(name: "{{impl}}", scope: !448)
!492 = !DISubroutineType(types: !493)
!493 = !{!494, !506}
!494 = !DICompositeType(tag: DW_TAG_structure_type, name: "Option<(&u16, &mut [u8])>", scope: !83, file: !7, size: 192, align: 64, elements: !495, identifier: "94209b0a14e89d36c0760065ce090683")
!495 = !{!496}
!496 = !DICompositeType(tag: DW_TAG_variant_part, scope: !83, file: !7, size: 192, align: 64, elements: !497, templateParams: !500, identifier: "94209b0a14e89d36c0760065ce090683_variant_part", discriminator: !95)
!497 = !{!498, !502}
!498 = !DIDerivedType(tag: DW_TAG_member, name: "None", scope: !496, file: !7, baseType: !499, size: 192, align: 64, extraData: i64 0)
!499 = !DICompositeType(tag: DW_TAG_structure_type, name: "None", scope: !494, file: !7, size: 192, align: 64, elements: !34, templateParams: !500, identifier: "94209b0a14e89d36c0760065ce090683::None")
!500 = !{!501}
!501 = !DITemplateTypeParameter(name: "T", type: !477)
!502 = !DIDerivedType(tag: DW_TAG_member, name: "Some", scope: !496, file: !7, baseType: !503, size: 192, align: 64)
!503 = !DICompositeType(tag: DW_TAG_structure_type, name: "Some", scope: !494, file: !7, size: 192, align: 64, elements: !504, templateParams: !500, identifier: "94209b0a14e89d36c0760065ce090683::Some")
!504 = !{!505}
!505 = !DIDerivedType(tag: DW_TAG_member, name: "__0", scope: !503, file: !7, baseType: !477, size: 192, align: 64)
!506 = !DIDerivedType(tag: DW_TAG_pointer_type, name: "&mut core::iter::adapters::zip::Zip<core::slice::Iter<u16>, core::slice::ChunksMut<u8>>", baseType: !447, size: 64, align: 64, dwarfAddressSpace: 0)
!507 = !{!488}
!508 = !DILocation(line: 0, scope: !489, inlinedAt: !509)
!509 = distinct !DILocation(line: 506, column: 33, scope: !476)
!510 = !DILocalVariable(name: "self", arg: 1, scope: !511, file: !490, line: 173, type: !506)
!511 = distinct !DISubprogram(name: "next<core::slice::Iter<u16>,core::slice::ChunksMut<u8>>", linkageName: "_ZN111_$LT$core..iter..adapters..zip..Zip$LT$A$C$B$GT$$u20$as$u20$core..iter..adapters..zip..ZipImpl$LT$A$C$B$GT$$GT$4next17h4340cb2fc3d57d84E", scope: !491, file: !490, line: 173, type: !492, scopeLine: 173, flags: DIFlagPrototyped, spFlags: DISPFlagLocalToUnit | DISPFlagDefinition | DISPFlagOptimized, unit: !3, templateParams: !472, retainedNodes: !512)
!512 = !{!510, !513}
!513 = !DILocalVariable(name: "i", scope: !514, file: !490, line: 175, type: !36, align: 8)
!514 = distinct !DILexicalBlock(scope: !511, file: !490, line: 175, column: 13)
!515 = !DILocation(line: 0, scope: !511, inlinedAt: !516)
!516 = distinct !DILocation(line: 47, column: 9, scope: !489, inlinedAt: !509)
!517 = !DILocation(line: 174, column: 9, scope: !511, inlinedAt: !516)
!518 = !DILocation(line: 176, column: 13, scope: !514, inlinedAt: !516)
!519 = !DILocation(line: 159, column: 18, scope: !520, inlinedAt: !527)
!520 = distinct !DISubprogram(name: "offset<u16>", linkageName: "_ZN4core3ptr7mut_ptr31_$LT$impl$u20$$BP$mut$u20$T$GT$6offset17h92aca73ecbe6dcdaE", scope: !177, file: !176, line: 152, type: !521, scopeLine: 152, flags: DIFlagPrototyped, spFlags: DISPFlagLocalToUnit | DISPFlagDefinition | DISPFlagOptimized, unit: !3, templateParams: !135, retainedNodes: !524)
!521 = !DISubroutineType(types: !522)
!522 = !{!523, !523, !131}
!523 = !DIDerivedType(tag: DW_TAG_pointer_type, name: "*mut u16", baseType: !48, size: 64, align: 64, dwarfAddressSpace: 0)
!524 = !{!525, !526}
!525 = !DILocalVariable(name: "self", arg: 1, scope: !520, file: !176, line: 152, type: !523)
!526 = !DILocalVariable(name: "count", arg: 2, scope: !520, file: !176, line: 152, type: !131)
!527 = distinct !DILocation(line: 530, column: 18, scope: !528, inlinedAt: !534)
!528 = distinct !DISubprogram(name: "add<u16>", linkageName: "_ZN4core3ptr7mut_ptr31_$LT$impl$u20$$BP$mut$u20$T$GT$3add17hb4031df3ce20c655E", scope: !177, file: !176, line: 525, type: !529, scopeLine: 525, flags: DIFlagPrototyped, spFlags: DISPFlagLocalToUnit | DISPFlagDefinition | DISPFlagOptimized, unit: !3, templateParams: !135, retainedNodes: !531)
!529 = !DISubroutineType(types: !530)
!530 = !{!523, !523, !36}
!531 = !{!532, !533}
!532 = !DILocalVariable(name: "self", arg: 1, scope: !528, file: !176, line: 525, type: !523)
!533 = !DILocalVariable(name: "count", arg: 2, scope: !528, file: !176, line: 525, type: !36)
!534 = distinct !DILocation(line: 6302, column: 20, scope: !535, inlinedAt: !542)
!535 = distinct !DISubprogram(name: "get_unchecked<u16>", linkageName: "_ZN93_$LT$core..slice..Iter$LT$T$GT$$u20$as$u20$core..iter..adapters..zip..TrustedRandomAccess$GT$13get_unchecked17hefa02adb481ff826E", scope: !147, file: !146, line: 6297, type: !536, scopeLine: 6297, flags: DIFlagPrototyped, spFlags: DISPFlagLocalToUnit | DISPFlagDefinition | DISPFlagOptimized, unit: !3, templateParams: !135, retainedNodes: !539)
!536 = !DISubroutineType(types: !537)
!537 = !{!151, !538, !36}
!538 = !DIDerivedType(tag: DW_TAG_pointer_type, name: "&mut core::slice::Iter<u16>", baseType: !452, size: 64, align: 64, dwarfAddressSpace: 0)
!539 = !{!540, !541}
!540 = !DILocalVariable(name: "self", arg: 1, scope: !535, file: !146, line: 6297, type: !538)
!541 = !DILocalVariable(name: "i", arg: 2, scope: !535, file: !146, line: 6297, type: !36)
!542 = distinct !DILocation(line: 178, column: 28, scope: !514, inlinedAt: !516)
!543 = !DILocation(line: 5029, column: 21, scope: !544, inlinedAt: !557)
!544 = distinct !DISubprogram(name: "get_unchecked<u8>", linkageName: "_ZN98_$LT$core..slice..ChunksMut$LT$T$GT$$u20$as$u20$core..iter..adapters..zip..TrustedRandomAccess$GT$13get_unchecked17hb5619e58b7fe560aE", scope: !147, file: !146, line: 5028, type: !545, scopeLine: 5028, flags: DIFlagPrototyped, spFlags: DISPFlagLocalToUnit | DISPFlagDefinition | DISPFlagOptimized, unit: !3, templateParams: !185, retainedNodes: !548)
!545 = !DISubroutineType(types: !546)
!546 = !{!199, !547, !36}
!547 = !DIDerivedType(tag: DW_TAG_pointer_type, name: "&mut core::slice::ChunksMut<u8>", baseType: !466, size: 64, align: 64, dwarfAddressSpace: 0)
!548 = !{!549, !550, !551, !553, !555}
!549 = !DILocalVariable(name: "self", arg: 1, scope: !544, file: !146, line: 5028, type: !547)
!550 = !DILocalVariable(name: "i", arg: 2, scope: !544, file: !146, line: 5028, type: !36)
!551 = !DILocalVariable(name: "start", scope: !552, file: !146, line: 5029, type: !36, align: 8)
!552 = distinct !DILexicalBlock(scope: !544, file: !146, line: 5029, column: 9)
!553 = !DILocalVariable(name: "end", scope: !554, file: !146, line: 5030, type: !36, align: 8)
!554 = distinct !DILexicalBlock(scope: !552, file: !146, line: 5030, column: 9)
!555 = !DILocalVariable(name: "end", scope: !556, file: !146, line: 5032, type: !36, align: 8)
!556 = distinct !DILexicalBlock(scope: !552, file: !146, line: 5032, column: 13)
!557 = distinct !DILocation(line: 178, column: 53, scope: !514, inlinedAt: !516)
!558 = !DILocation(line: 159, column: 18, scope: !175, inlinedAt: !559)
!559 = distinct !DILocation(line: 530, column: 18, scope: !188, inlinedAt: !560)
!560 = distinct !DILocation(line: 5035, column: 37, scope: !554, inlinedAt: !557)
!561 = !DILocation(line: 506, column: 23, scope: !476)
!562 = !DILocation(line: 509, column: 21, scope: !484)
!563 = !DILocation(line: 510, column: 30, scope: !484)
!564 = !DILocation(line: 510, column: 21, scope: !484)
!565 = distinct !{!565, !218}
!566 = !DILocation(line: 512, column: 14, scope: !441)
!567 = distinct !DISubprogram(name: "zip_chunks_fixed_size_take_impl", linkageName: "_ZN14iterator_bench31zip_chunks_fixed_size_take_impl17hd453fdeb726d293dE", scope: !39, file: !38, line: 565, type: !40, scopeLine: 565, flags: DIFlagPrototyped, spFlags: DISPFlagDefinition | DISPFlagOptimized, unit: !3, templateParams: !34, retainedNodes: !568)
!568 = !{!569, !570, !571, !579, !581, !583, !585}
!569 = !DILocalVariable(name: "output", arg: 1, scope: !567, file: !38, line: 565, type: !42)
!570 = !DILocalVariable(name: "input", arg: 2, scope: !567, file: !38, line: 565, type: !46)
!571 = !DILocalVariable(name: "iter", scope: !572, file: !38, line: 566, type: !573, align: 8)
!572 = distinct !DILexicalBlock(scope: !567, file: !38, line: 566, column: 17)
!573 = !DICompositeType(tag: DW_TAG_structure_type, name: "Take<core::iter::adapters::zip::Zip<core::slice::Iter<u16>, core::slice::ChunksMut<u8>>>", scope: !449, file: !7, size: 512, align: 64, elements: !574, templateParams: !577, identifier: "8a349ab4c0331bdbde1ff71b2d8993b6")
!574 = !{!575, !576}
!575 = !DIDerivedType(tag: DW_TAG_member, name: "iter", scope: !573, file: !7, baseType: !447, size: 448, align: 64)
!576 = !DIDerivedType(tag: DW_TAG_member, name: "n", scope: !573, file: !7, baseType: !36, size: 64, align: 64, offset: 448)
!577 = !{!578}
!578 = !DITemplateTypeParameter(name: "I", type: !447)
!579 = !DILocalVariable(name: "__next", scope: !580, file: !38, line: 566, type: !477, align: 8)
!580 = distinct !DILexicalBlock(scope: !572, file: !38, line: 566, column: 33)
!581 = !DILocalVariable(name: "val", scope: !582, file: !38, line: 566, type: !477, align: 8)
!582 = distinct !DILexicalBlock(scope: !580, file: !38, line: 566, column: 21)
!583 = !DILocalVariable(name: "b", scope: !584, file: !38, line: 566, type: !48, align: 2)
!584 = distinct !DILexicalBlock(scope: !580, file: !38, line: 566, column: 33)
!585 = !DILocalVariable(name: "ac", scope: !584, file: !38, line: 566, type: !199, align: 8)
!586 = !DILocation(line: 0, scope: !567)
!587 = !DILocation(line: 0, scope: !572)
!588 = !DILocalVariable(name: "self", arg: 1, scope: !589, file: !590, line: 2195, type: !594)
!589 = distinct !DISubprogram(name: "next<core::iter::adapters::zip::Zip<core::slice::Iter<u16>, core::slice::ChunksMut<u8>>>", linkageName: "_ZN94_$LT$core..iter..adapters..Take$LT$I$GT$$u20$as$u20$core..iter..traits..iterator..Iterator$GT$4next17h6d19cfc82ede2c83E", scope: !591, file: !590, line: 2195, type: !592, scopeLine: 2195, flags: DIFlagPrototyped, spFlags: DISPFlagLocalToUnit | DISPFlagDefinition | DISPFlagOptimized, unit: !3, templateParams: !577, retainedNodes: !595)
!590 = !DIFile(filename: "/benchdata/rust/rust-bcrm/src/libcore/iter/adapters/mod.rs", directory: "", checksumkind: CSK_MD5, checksum: "ea0d10848170548968a5df5bdc9565ca")
!591 = !DINamespace(name: "{{impl}}", scope: !449)
!592 = !DISubroutineType(types: !593)
!593 = !{!494, !594}
!594 = !DIDerivedType(tag: DW_TAG_pointer_type, name: "&mut core::iter::adapters::Take<core::iter::adapters::zip::Zip<core::slice::Iter<u16>, core::slice::ChunksMut<u8>>>", baseType: !573, size: 64, align: 64, dwarfAddressSpace: 0)
!595 = !{!588}
!596 = !DILocation(line: 0, scope: !589, inlinedAt: !597)
!597 = distinct !DILocation(line: 566, column: 33, scope: !580)
!598 = !DILocation(line: 2196, column: 9, scope: !589, inlinedAt: !597)
!599 = !DILocation(line: 176, column: 13, scope: !514, inlinedAt: !600)
!600 = distinct !DILocation(line: 47, column: 9, scope: !489, inlinedAt: !601)
!601 = distinct !DILocation(line: 2198, column: 13, scope: !589, inlinedAt: !597)
!602 = !DILocation(line: 159, column: 18, scope: !520, inlinedAt: !603)
!603 = distinct !DILocation(line: 530, column: 18, scope: !528, inlinedAt: !604)
!604 = distinct !DILocation(line: 6302, column: 20, scope: !535, inlinedAt: !605)
!605 = distinct !DILocation(line: 178, column: 28, scope: !514, inlinedAt: !600)
!606 = !DILocation(line: 5029, column: 21, scope: !544, inlinedAt: !607)
!607 = distinct !DILocation(line: 178, column: 53, scope: !514, inlinedAt: !600)
!608 = !DILocation(line: 159, column: 18, scope: !175, inlinedAt: !609)
!609 = distinct !DILocation(line: 530, column: 18, scope: !188, inlinedAt: !610)
!610 = distinct !DILocation(line: 5035, column: 37, scope: !554, inlinedAt: !607)
!611 = !DILocation(line: 566, column: 23, scope: !580)
!612 = !DILocation(line: 569, column: 21, scope: !584)
!613 = !DILocation(line: 570, column: 30, scope: !584)
!614 = !DILocation(line: 570, column: 21, scope: !584)
!615 = distinct !{!615, !218}
!616 = !DILocation(line: 572, column: 14, scope: !567)
!617 = distinct !DISubprogram(name: "zip_chunks_fixed_size_take_iter_impl", linkageName: "_ZN14iterator_bench36zip_chunks_fixed_size_take_iter_impl17hcfee63b3af005a98E", scope: !39, file: !38, line: 628, type: !40, scopeLine: 628, flags: DIFlagPrototyped, spFlags: DISPFlagDefinition | DISPFlagOptimized, unit: !3, templateParams: !34, retainedNodes: !618)
!618 = !{!619, !620, !621, !623, !625, !627, !629, !630, !632, !645, !647, !649}
!619 = !DILocalVariable(name: "output", arg: 1, scope: !617, file: !38, line: 628, type: !42)
!620 = !DILocalVariable(name: "input", arg: 2, scope: !617, file: !38, line: 628, type: !46)
!621 = !DILocalVariable(name: "iter", scope: !622, file: !38, line: 629, type: !573, align: 8)
!622 = distinct !DILexicalBlock(scope: !617, file: !38, line: 629, column: 17)
!623 = !DILocalVariable(name: "__next", scope: !624, file: !38, line: 629, type: !477, align: 8)
!624 = distinct !DILexicalBlock(scope: !622, file: !38, line: 629, column: 33)
!625 = !DILocalVariable(name: "val", scope: !626, file: !38, line: 629, type: !477, align: 8)
!626 = distinct !DILexicalBlock(scope: !624, file: !38, line: 629, column: 21)
!627 = !DILocalVariable(name: "b", scope: !628, file: !38, line: 629, type: !48, align: 2)
!628 = distinct !DILexicalBlock(scope: !624, file: !38, line: 629, column: 33)
!629 = !DILocalVariable(name: "ac", scope: !628, file: !38, line: 629, type: !199, align: 8)
!630 = !DILocalVariable(name: "val", scope: !631, file: !38, line: 630, type: !48, align: 2)
!631 = distinct !DILexicalBlock(scope: !628, file: !38, line: 630, column: 21)
!632 = !DILocalVariable(name: "iter", scope: !633, file: !38, line: 636, type: !634, align: 8)
!633 = distinct !DILexicalBlock(scope: !631, file: !38, line: 636, column: 21)
!634 = !DICompositeType(tag: DW_TAG_structure_type, name: "IterMut<u8>", scope: !148, file: !7, size: 128, align: 64, elements: !635, templateParams: !185, identifier: "131574891c4d713bf80e93f001cfe21a")
!635 = !{!636, !640, !641}
!636 = !DIDerivedType(tag: DW_TAG_member, name: "ptr", scope: !634, file: !7, baseType: !637, size: 64, align: 64)
!637 = !DICompositeType(tag: DW_TAG_structure_type, name: "NonNull<u8>", scope: !456, file: !7, size: 64, align: 64, elements: !638, templateParams: !185, identifier: "b3dafaa6879eff18f86da9cac8f804d8")
!638 = !{!639}
!639 = !DIDerivedType(tag: DW_TAG_member, name: "pointer", scope: !637, file: !7, baseType: !202, size: 64, align: 64)
!640 = !DIDerivedType(tag: DW_TAG_member, name: "end", scope: !634, file: !7, baseType: !181, size: 64, align: 64, offset: 64)
!641 = !DIDerivedType(tag: DW_TAG_member, name: "_marker", scope: !634, file: !7, baseType: !642, align: 8)
!642 = !DICompositeType(tag: DW_TAG_structure_type, name: "PhantomData<&mut u8>", scope: !462, file: !7, align: 8, elements: !34, templateParams: !643, identifier: "499867ef99fce33131fbefe362fffb15")
!643 = !{!644}
!644 = !DITemplateTypeParameter(name: "T", type: !198)
!645 = !DILocalVariable(name: "__next", scope: !646, file: !38, line: 636, type: !198, align: 8)
!646 = distinct !DILexicalBlock(scope: !633, file: !38, line: 636, column: 33)
!647 = !DILocalVariable(name: "val", scope: !648, file: !38, line: 636, type: !198, align: 8)
!648 = distinct !DILexicalBlock(scope: !646, file: !38, line: 636, column: 25)
!649 = !DILocalVariable(name: "byte", scope: !650, file: !38, line: 636, type: !198, align: 8)
